; Listing generated by Microsoft (R) Optimizing Compiler Version 18.00.21005.1 

	TITLE	C:\Users\Marcos\Desktop\prj\mGear-1\mGear-1\engine.c
	.686P
	.XMM
	include listing.inc
	.model	flat

INCLUDELIB LIBCMT
INCLUDELIB OLDNAMES

PUBLIC	??_C@_0OI@GJFBFCOP@?$CDversion?5110?6varying?5in?5vec3?5Pos@ ; `string'
PUBLIC	??_C@_0MG@BKMGOPGG@?$CDversion?5110?6uniform?5sampler2D?5t@ ; `string'
PUBLIC	??_C@_0NN@FCAKKMCK@?$CDversion?5110?6uniform?5sampler2D?5t@ ; `string'
PUBLIC	??_C@_0BIF@GBAEIKJH@?$CDversion?5110?6uniform?5sampler2D?5t@ ; `string'
PUBLIC	??_C@_0BBN@JJOIBKFE@?$CDversion?5110?6uniform?5sampler2D?5t@ ; `string'
PUBLIC	??_C@_0CMD@FLBEOBHH@?$CDversion?5110?6varying?5in?5vec2?5Tex@ ; `string'
PUBLIC	??_C@_0PM@NPFOCGLD@?$CDversion?5130?6in?5vec3?5Position?$DL?6i@ ; `string'
PUBLIC	??_C@_0BDP@HLHOENOH@?$CDversion?5130?6uniform?5sampler2D?5t@ ; `string'
PUBLIC	??_C@_0NB@HNGLJMAI@?$CDversion?5130?6uniform?5sampler2D?5t@ ; `string'
PUBLIC	??_C@_0BFE@LHCNEGLH@?$CDversion?5130?6uniform?5sampler2D?5t@ ; `string'
PUBLIC	??_C@_0BAB@HLALIPKD@?$CDversion?5130?6uniform?5sampler2D?5t@ ; `string'
PUBLIC	??_C@_0CMF@PHINLJLD@?$CDversion?5130?6in?5vec2?5TexCoord2?$DL?6@ ; `string'
PUBLIC	_vbdt_num
PUBLIC	_texone_num
_DATA	SEGMENT
COMM	_st:BYTE:0328140H
COMM	_ent:BYTE:084020H
COMM	_events:BYTE:038H
COMM	_game_lights:BYTE:0280H
COMM	_mgg_sys:BYTE:0b4H
COMM	_mgg_map:BYTE:0f00H
COMM	_mgg_game:BYTE:01e00H
COMM	_wn:DWORD
COMM	_lmp:BYTE:08400H
COMM	_DataN:DWORD
COMM	_DataNT:DWORD
COMM	_DATA_TEST:DWORD
COMM	_z_buffer:WORD:01c800H
COMM	_z_slot:WORD:039H
COMM	_z_used:BYTE
COMM	_lm:DWORD
COMM	_vbd:BYTE:040H
COMM	_vbdt:DWORD
_DATA	ENDS
_BSS	SEGMENT
_vbdt_num DW	01H DUP (?)
	ALIGN	4

_texone_num DW	01H DUP (?)
_BSS	ENDS
_DATA	SEGMENT
COMM	_texone_ids:WORD:0800H
COMM	_movie:BYTE:03cH
_DATA	ENDS
_BSS	SEGMENT
	ALIGN	4

_stbi__vertically_flip_on_load DD 01H DUP (?)
_stbi__unpremultiply_on_load DD 01H DUP (?)
_stbi__de_iphone_flag DD 01H DUP (?)
?tesg@?1??Renderer@@9@9 DD 01H DUP (?)			; `Renderer'::`2'::tesg
_BSS	ENDS
CONST	SEGMENT
_stbi__zdefault_length DB 08H
	DB	08H
	DB	08H
	DB	08H
	DB	08H
	DB	08H
	DB	08H
	DB	08H
	DB	08H
	DB	08H
	DB	08H
	DB	08H
	DB	08H
	DB	08H
	DB	08H
	DB	08H
	DB	08H
	DB	08H
	DB	08H
	DB	08H
	DB	08H
	DB	08H
	DB	08H
	DB	08H
	DB	08H
	DB	08H
	DB	08H
	DB	08H
	DB	08H
	DB	08H
	DB	08H
	DB	08H
	DB	08H
	DB	08H
	DB	08H
	DB	08H
	DB	08H
	DB	08H
	DB	08H
	DB	08H
	DB	08H
	DB	08H
	DB	08H
	DB	08H
	DB	08H
	DB	08H
	DB	08H
	DB	08H
	DB	08H
	DB	08H
	DB	08H
	DB	08H
	DB	08H
	DB	08H
	DB	08H
	DB	08H
	DB	08H
	DB	08H
	DB	08H
	DB	08H
	DB	08H
	DB	08H
	DB	08H
	DB	08H
	DB	08H
	DB	08H
	DB	08H
	DB	08H
	DB	08H
	DB	08H
	DB	08H
	DB	08H
	DB	08H
	DB	08H
	DB	08H
	DB	08H
	DB	08H
	DB	08H
	DB	08H
	DB	08H
	DB	08H
	DB	08H
	DB	08H
	DB	08H
	DB	08H
	DB	08H
	DB	08H
	DB	08H
	DB	08H
	DB	08H
	DB	08H
	DB	08H
	DB	08H
	DB	08H
	DB	08H
	DB	08H
	DB	08H
	DB	08H
	DB	08H
	DB	08H
	DB	08H
	DB	08H
	DB	08H
	DB	08H
	DB	08H
	DB	08H
	DB	08H
	DB	08H
	DB	08H
	DB	08H
	DB	08H
	DB	08H
	DB	08H
	DB	08H
	DB	08H
	DB	08H
	DB	08H
	DB	08H
	DB	08H
	DB	08H
	DB	08H
	DB	08H
	DB	08H
	DB	08H
	DB	08H
	DB	08H
	DB	08H
	DB	08H
	DB	08H
	DB	08H
	DB	08H
	DB	08H
	DB	08H
	DB	08H
	DB	08H
	DB	08H
	DB	08H
	DB	08H
	DB	08H
	DB	08H
	DB	08H
	DB	08H
	DB	08H
	DB	08H
	DB	09H
	DB	09H
	DB	09H
	DB	09H
	DB	09H
	DB	09H
	DB	09H
	DB	09H
	DB	09H
	DB	09H
	DB	09H
	DB	09H
	DB	09H
	DB	09H
	DB	09H
	DB	09H
	DB	09H
	DB	09H
	DB	09H
	DB	09H
	DB	09H
	DB	09H
	DB	09H
	DB	09H
	DB	09H
	DB	09H
	DB	09H
	DB	09H
	DB	09H
	DB	09H
	DB	09H
	DB	09H
	DB	09H
	DB	09H
	DB	09H
	DB	09H
	DB	09H
	DB	09H
	DB	09H
	DB	09H
	DB	09H
	DB	09H
	DB	09H
	DB	09H
	DB	09H
	DB	09H
	DB	09H
	DB	09H
	DB	09H
	DB	09H
	DB	09H
	DB	09H
	DB	09H
	DB	09H
	DB	09H
	DB	09H
	DB	09H
	DB	09H
	DB	09H
	DB	09H
	DB	09H
	DB	09H
	DB	09H
	DB	09H
	DB	09H
	DB	09H
	DB	09H
	DB	09H
	DB	09H
	DB	09H
	DB	09H
	DB	09H
	DB	09H
	DB	09H
	DB	09H
	DB	09H
	DB	09H
	DB	09H
	DB	09H
	DB	09H
	DB	09H
	DB	09H
	DB	09H
	DB	09H
	DB	09H
	DB	09H
	DB	09H
	DB	09H
	DB	09H
	DB	09H
	DB	09H
	DB	09H
	DB	09H
	DB	09H
	DB	09H
	DB	09H
	DB	09H
	DB	09H
	DB	09H
	DB	09H
	DB	09H
	DB	09H
	DB	09H
	DB	09H
	DB	09H
	DB	09H
	DB	09H
	DB	09H
	DB	09H
	DB	09H
	DB	09H
	DB	09H
	DB	07H
	DB	07H
	DB	07H
	DB	07H
	DB	07H
	DB	07H
	DB	07H
	DB	07H
	DB	07H
	DB	07H
	DB	07H
	DB	07H
	DB	07H
	DB	07H
	DB	07H
	DB	07H
	DB	07H
	DB	07H
	DB	07H
	DB	07H
	DB	07H
	DB	07H
	DB	07H
	DB	07H
	DB	08H
	DB	08H
	DB	08H
	DB	08H
	DB	08H
	DB	08H
	DB	08H
	DB	08H
_stbi__zdefault_distance DB 05H
	DB	05H
	DB	05H
	DB	05H
	DB	05H
	DB	05H
	DB	05H
	DB	05H
	DB	05H
	DB	05H
	DB	05H
	DB	05H
	DB	05H
	DB	05H
	DB	05H
	DB	05H
	DB	05H
	DB	05H
	DB	05H
	DB	05H
	DB	05H
	DB	05H
	DB	05H
	DB	05H
	DB	05H
	DB	05H
	DB	05H
	DB	05H
	DB	05H
	DB	05H
	DB	05H
	DB	05H
?tag@?O@??stbi__process_marker@@9@9 DB 04aH		; `stbi__process_marker'::`14'::tag
	DB	046H
	DB	049H
	DB	046H
	DB	00H
	ORG $+3
?tag@?BA@??stbi__process_marker@@9@9 DB 041H		; `stbi__process_marker'::`16'::tag
	DB	064H
	DB	06fH
	DB	062H
	DB	065H
	DB	00H
	ORG $+2
_stbi__jbias DD	00H
	DD	0ffffffffH
	DD	0fffffffdH
	DD	0fffffff9H
	DD	0fffffff1H
	DD	0ffffffe1H
	DD	0ffffffc1H
	DD	0ffffff81H
	DD	0ffffff01H
	DD	0fffffe01H
	DD	0fffffc01H
	DD	0fffff801H
	DD	0fffff001H
	DD	0ffffe001H
	DD	0ffffc001H
	DD	0ffff8001H
CONST	ENDS
;	COMDAT ??_C@_0CMF@PHINLJLD@?$CDversion?5130?6in?5vec2?5TexCoord2?$DL?6@
CONST	SEGMENT
??_C@_0CMF@PHINLJLD@?$CDversion?5130?6in?5vec2?5TexCoord2?$DL?6@ DB '#ver'
	DB	'sion 130', 0aH, 'in vec2 TexCoord2;', 0aH, 'in vec4 colore;', 0aH
	DB	'in vec2 TexLight2;', 0aH, 'out vec4 FColor;', 0aH, 'uniform s'
	DB	'ampler2D texu;', 0aH, 'uniform sampler2D texu2;', 0aH, 'unifo'
	DB	'rm sampler2D texu3;', 0aH, 'uniform float normal;', 0aH, 'voi'
	DB	'd main()', 0aH, '{', 0aH, 'if(normal == 0.0)', 0aH, 'FColor ='
	DB	' texture(texu, TexCoord2) * colore;', 0aH, 'else', 0aH, 'if(n'
	DB	'ormal == 1.0)', 0aH, '{', 0aH, 'vec4 Lightmap = texture(texu2'
	DB	', TexLight2) * 4.0;', 0aH, 'vec3 L = normalize(Lightmap.rgb);'
	DB	0aH, 'vec3 N = normalize(texture(texu3, TexCoord2).rgb * 2.0 -'
	DB	' 1.0);', 0aH, 'FColor = texture(texu, TexCoord2) * colore * ('
	DB	'Lightmap * max(dot(N, L), 0.0));', 0aH, '}', 0aH, 'else', 0aH
	DB	'if(normal == 2.0)', 0aH, '{', 0aH, 'vec4 Lightmap = texture(t'
	DB	'exu2, TexLight2) * 4.0;', 0aH, 'FColor = texture(texu, TexCoo'
	DB	'rd2) * colore * Lightmap;', 0aH, '}', 0aH, 'else', 0aH, 'if(n'
	DB	'ormal == 3.0)', 0aH, 'FColor = texture(texu, TexCoord2) * col'
	DB	'ore;', 0aH, '}', 0aH, 00H			; `string'
CONST	ENDS
;	COMDAT ??_C@_0BAB@HLALIPKD@?$CDversion?5130?6uniform?5sampler2D?5t@
CONST	SEGMENT
??_C@_0BAB@HLALIPKD@?$CDversion?5130?6uniform?5sampler2D?5t@ DB '#version'
	DB	' 130', 0aH, 'uniform sampler2D texu;', 0aH, 'uniform sampler2'
	DB	'D texu2;', 0aH, 'in vec2 TexCoord2;', 0aH, 'in vec4 colore;', 0aH
	DB	'out vec4 FColor;', 0aH, 'void main()', 0aH, '{', 0aH, 'vec4 D'
	DB	'iffuse = texture(texu, TexCoord2);', 0aH, 'vec4 Alpha = textu'
	DB	're(texu2, TexCoord2);', 0aH, 'FColor = vec4(Alpha.rgb * Diffu'
	DB	'se.rgb,1.0);', 0aH, '};', 0aH, 00H		; `string'
CONST	ENDS
;	COMDAT ??_C@_0BFE@LHCNEGLH@?$CDversion?5130?6uniform?5sampler2D?5t@
CONST	SEGMENT
??_C@_0BFE@LHCNEGLH@?$CDversion?5130?6uniform?5sampler2D?5t@ DB '#version'
	DB	' 130', 0aH, 'uniform sampler2D texu;', 0aH, 'uniform sampler2'
	DB	'D texu2;', 0aH, 'in vec2 TexCoord2;', 0aH, 'in vec4 colore;', 0aH
	DB	'out vec4 FColor;', 0aH, 'void main()', 0aH, '{', 0aH, 'vec4 D'
	DB	'iffuse = texture(texu, TexCoord2) * colore;', 0aH, 'vec4 Bckg'
	DB	' = texture(texu2, TexCoord2);', 0aH, 'if(Diffuse.a == 1.0)', 0aH
	DB	'discard;', 0aH, 'else', 0aH, '{', 0aH, 'FColor = vec4((Diffus'
	DB	'e.a * Diffuse.rgb) + ((1.0 - Diffuse.a) * Bckg.rgb), 1.0);', 0aH
	DB	'}', 0aH, '};', 0aH, 00H			; `string'
CONST	ENDS
;	COMDAT ??_C@_0NB@HNGLJMAI@?$CDversion?5130?6uniform?5sampler2D?5t@
CONST	SEGMENT
??_C@_0NB@HNGLJMAI@?$CDversion?5130?6uniform?5sampler2D?5t@ DB '#version '
	DB	'130', 0aH, 'uniform sampler2D texu;', 0aH, 'in vec2 TexCoord2'
	DB	';', 0aH, 'in vec4 colore;', 0aH, 'out vec4 FColor;', 0aH, 'vo'
	DB	'id main()', 0aH, '{', 0aH, 'vec4 Diffuse = texture(texu, TexC'
	DB	'oord2) * colore;', 0aH, 'if(Diffuse.a < 1.0)', 0aH, 'discard;'
	DB	0aH, 'else', 0aH, 'FColor = Diffuse;', 0aH, '};', 0aH, 00H ; `string'
CONST	ENDS
;	COMDAT ??_C@_0BDP@HLHOENOH@?$CDversion?5130?6uniform?5sampler2D?5t@
CONST	SEGMENT
??_C@_0BDP@HLHOENOH@?$CDversion?5130?6uniform?5sampler2D?5t@ DB '#version'
	DB	' 130', 0aH, 'uniform sampler2D texu;', 0aH, 'uniform int ligh'
	DB	't_type;in vec2 TexCoord2;', 0aH, 'in vec4 colore;', 0aH, 'out'
	DB	' vec4 FColor;', 0aH, 'void main()', 0aH, '{', 0aH, 'if( light'
	DB	'_type == 0)', 0aH, 'FColor = texture(texu, TexCoord2);', 0aH, 'e'
	DB	'lse', 0aH, 'if( light_type == 1)', 0aH, 'FColor = texture(tex'
	DB	'u, TexCoord2) * 2.0;', 0aH, 'else', 0aH, 'if( light_type == 2'
	DB	')', 0aH, 'FColor = texture(texu, TexCoord2) * 4.0;', 0aH, '};'
	DB	00H						; `string'
CONST	ENDS
;	COMDAT ??_C@_0PM@NPFOCGLD@?$CDversion?5130?6in?5vec3?5Position?$DL?6i@
CONST	SEGMENT
??_C@_0PM@NPFOCGLD@?$CDversion?5130?6in?5vec3?5Position?$DL?6i@ DB '#vers'
	DB	'ion 130', 0aH, 'in vec3 Position;', 0aH, 'in vec2 TexCoord;', 0aH
	DB	'in vec4 Color;', 0aH, 'in vec2 TexLight;', 0aH, 'out vec2 Tex'
	DB	'Coord2;', 0aH, 'out vec4 colore;', 0aH, 'out vec2 TexLight2;', 0aH
	DB	'void main()', 0aH, '{', 0aH, 'gl_Position = vec4(Position, 1.'
	DB	'0);', 0aH, 'TexCoord2 = TexCoord;', 0aH, 'colore = Color;', 0aH
	DB	'TexLight2 = TexLight;', 0aH, '};', 0aH, 00H	; `string'
CONST	ENDS
;	COMDAT ??_C@_0CMD@FLBEOBHH@?$CDversion?5110?6varying?5in?5vec2?5Tex@
CONST	SEGMENT
??_C@_0CMD@FLBEOBHH@?$CDversion?5110?6varying?5in?5vec2?5Tex@ DB '#versio'
	DB	'n 110', 0aH, 'varying in vec2 TexCoord2;', 0aH, 'varying in v'
	DB	'ec4 colore;', 0aH, 'varying out vec4 FColor;', 0aH, 'uniform '
	DB	'sampler2D texu;', 0aH, 'uniform sampler2D texu2;', 0aH, 'unif'
	DB	'orm sampler2D texu3;', 0aH, 'uniform float normal;', 0aH, 'vo'
	DB	'id main()', 0aH, '{', 0aH, 'vec4 Lightmap = texture2D(texu2, '
	DB	'TexCoord2);', 0aH, 'vec3 L = normalize(Lightmap.rgb);', 0aH, 'i'
	DB	'f(normal == 1.0)', 0aH, '{', 0aH, 'vec3 N = normalize((textur'
	DB	'e2D(texu3, TexCoord2).rgb) * 2.0 - 1.0);', 0aH, 'FColor = (te'
	DB	'xture2D(texu, TexCoord2) * colore) * ((Lightmap) * max(dot(N,'
	DB	' L), 0.0));', 0aH, '}', 0aH, 'else', 0aH, 'if(normal == 0.0 |'
	DB	'| normal == 2.0)', 0aH, '{', 0aH, 'vec3 NormalColor = vec3(0.'
	DB	'501, 0.501, 1.0);', 0aH, 'FColor = (texture2D(texu, TexCoord2'
	DB	') * colore) * ((Lightmap) * max(dot(NormalColor, L), 0.0));', 0aH
	DB	'}', 0aH, 'else', 0aH, 'if(normal == 3.0)', 0aH, 'FColor = tex'
	DB	'ture2D(texu, TexCoord2) * colore;', 0aH, '}', 0aH, 00H ; `string'
CONST	ENDS
;	COMDAT ??_C@_0BBN@JJOIBKFE@?$CDversion?5110?6uniform?5sampler2D?5t@
CONST	SEGMENT
??_C@_0BBN@JJOIBKFE@?$CDversion?5110?6uniform?5sampler2D?5t@ DB '#version'
	DB	' 110', 0aH, 'uniform sampler2D texu;', 0aH, 'uniform sampler2'
	DB	'D texu2;', 0aH, 'varying in vec2 TexCoord2;', 0aH, 'varying i'
	DB	'n vec4 colore;', 0aH, 'varying out vec4 FColor;', 0aH, 'void '
	DB	'main()', 0aH, '{', 0aH, 'vec4 Diffuse = texture2D(texu, TexCo'
	DB	'ord2);', 0aH, 'vec4 Alpha = texture2D(texu2, TexCoord2);', 0aH
	DB	'FColor = vec4(Alpha.rgb * Diffuse.rgb,1.0);', 0aH, '};', 0aH, 00H ; `string'
CONST	ENDS
;	COMDAT ??_C@_0BIF@GBAEIKJH@?$CDversion?5110?6uniform?5sampler2D?5t@
CONST	SEGMENT
??_C@_0BIF@GBAEIKJH@?$CDversion?5110?6uniform?5sampler2D?5t@ DB '#version'
	DB	' 110', 0aH, 'uniform sampler2D texu;', 0aH, 'uniform sampler2'
	DB	'D texu2;', 0aH, 'varying in vec2 TexCoord2;', 0aH, 'varying i'
	DB	'n vec4 colore;', 0aH, 'varying out vec4 FColor;', 0aH, 'void '
	DB	'main()', 0aH, '{', 0aH, 'vec4 Diffuse = texture2D(texu, TexCo'
	DB	'ord2) * colore;', 0aH, 'vec4 Bckg = texture2D(texu2, TexCoord'
	DB	'2) * colore;', 0aH, 'if(Diffuse.a == 1.0)', 0aH, 'discard;', 0aH
	DB	'if(Diffuse.a < 1.0 && Diffuse.a > 0.5)', 0aH, '{', 0aH, 'FCol'
	DB	'or = vec4((Diffuse.a * Diffuse.rgb) * Bckg.rgb, 1.0);', 0aH, '}'
	DB	0aH, '};', 0aH, 00H				; `string'
CONST	ENDS
;	COMDAT ??_C@_0NN@FCAKKMCK@?$CDversion?5110?6uniform?5sampler2D?5t@
CONST	SEGMENT
??_C@_0NN@FCAKKMCK@?$CDversion?5110?6uniform?5sampler2D?5t@ DB '#version '
	DB	'110', 0aH, 'uniform sampler2D texu;', 0aH, 'varying in vec2 T'
	DB	'exCoord2;', 0aH, 'varying in vec4 colore;', 0aH, 'varying out'
	DB	' vec4 FColor;', 0aH, 'void main()', 0aH, '{', 0aH, 'vec4 Diff'
	DB	'use = texture2D(texu, TexCoord2);', 0aH, 'if(Diffuse.a < 1.0)'
	DB	0aH, 'discard;', 0aH, 'FColor = Diffuse;', 0aH, '};', 0aH, 00H ; `string'
CONST	ENDS
;	COMDAT ??_C@_0MG@BKMGOPGG@?$CDversion?5110?6uniform?5sampler2D?5t@
CONST	SEGMENT
??_C@_0MG@BKMGOPGG@?$CDversion?5110?6uniform?5sampler2D?5t@ DB '#version '
	DB	'110', 0aH, 'uniform sampler2D texu;', 0aH, 'uniform float nor'
	DB	'mal;', 0aH, 'varying in vec2 TexCoord2;', 0aH, 'varying in ve'
	DB	'c4 colore;', 0aH, 'varying out vec4 FColor;', 0aH, 'void main'
	DB	'()', 0aH, '{', 0aH, 'FColor = texture2D(texu,TexCoord2) * col'
	DB	'ore;', 0aH, '};', 0aH, 00H			; `string'
CONST	ENDS
;	COMDAT ??_C@_0OI@GJFBFCOP@?$CDversion?5110?6varying?5in?5vec3?5Pos@
CONST	SEGMENT
??_C@_0OI@GJFBFCOP@?$CDversion?5110?6varying?5in?5vec3?5Pos@ DB '#version'
	DB	' 110', 0aH, 'varying in vec3 Position;', 0aH, 'varying in vec'
	DB	'2 TexCoord;', 0aH, 'varying in vec4 Color;', 0aH, 'varying ou'
	DB	't vec2 TexCoord2;', 0aH, 'varying out vec4 colore;', 0aH, 'vo'
	DB	'id main()', 0aH, '{', 0aH, 'gl_Position = vec4(Position, 1.0)'
	DB	';', 0aH, 'TexCoord2 = TexCoord;', 0aH, 'colore = Color;', 0aH
	DB	'};', 0aH, 00H				; `string'
CONST	ENDS
_DATA	SEGMENT
?invalid_chunk@?BO@??stbi__parse_png_file@@9@9 DB 'XXXX PNG chunk not kno'
	DB	'wn', 00H					; `stbi__parse_png_file'::`30'::invalid_chunk
	ORG $+3
_stbi__l2h_gamma DD 0400ccccdr			; 2.2
_stbi__l2h_scale DD 03f800000r			; 1
_stbi__h2l_gamma_i DD 03ee8ba2er		; 0.454545
_stbi__h2l_scale_i DD 03f800000r		; 1
?length_dezigzag@?1??stbi__compute_huffman_codes@@9@9 DB 010H ; `stbi__compute_huffman_codes'::`2'::length_dezigzag
	DB	011H
	DB	012H
	DB	00H
	DB	08H
	DB	07H
	DB	09H
	DB	06H
	DB	0aH
	DB	05H
	DB	0bH
	DB	04H
	DB	0cH
	DB	03H
	DB	0dH
	DB	02H
	DB	0eH
	DB	01H
	DB	0fH
	ORG $+1
_stbi__zlength_base DD 03H
	DD	04H
	DD	05H
	DD	06H
	DD	07H
	DD	08H
	DD	09H
	DD	0aH
	DD	0bH
	DD	0dH
	DD	0fH
	DD	011H
	DD	013H
	DD	017H
	DD	01bH
	DD	01fH
	DD	023H
	DD	02bH
	DD	033H
	DD	03bH
	DD	043H
	DD	053H
	DD	063H
	DD	073H
	DD	083H
	DD	0a3H
	DD	0c3H
	DD	0e3H
	DD	0102H
	DD	00H
	DD	00H
?rgb@?5??stbi__process_frame_header@@9@9 DB 052H	; `stbi__process_frame_header'::`6'::rgb
	DB	047H
	DB	042H
	ORG $+1
_stbi__zlength_extra DD 00H
	DD	00H
	DD	00H
	DD	00H
	DD	00H
	DD	00H
	DD	00H
	DD	00H
	DD	01H
	DD	01H
	DD	01H
	DD	01H
	DD	02H
	DD	02H
	DD	02H
	DD	02H
	DD	03H
	DD	03H
	DD	03H
	DD	03H
	DD	04H
	DD	04H
	DD	04H
	DD	04H
	DD	05H
	DD	05H
	DD	05H
	DD	05H
	DD	00H
	DD	00H
	DD	00H
_stbi__depth_scale_table DB 00H
	DB	0ffH
	DB	055H
	DB	00H
	DB	011H
	DB	00H
	DB	00H
	DB	00H
	DB	01H
	ORG $+3
_stbi__zdist_base DD 01H
	DD	02H
	DD	03H
	DD	04H
	DD	05H
	DD	07H
	DD	09H
	DD	0dH
	DD	011H
	DD	019H
	DD	021H
	DD	031H
	DD	041H
	DD	061H
	DD	081H
	DD	0c1H
	DD	0101H
	DD	0181H
	DD	0201H
	DD	0301H
	DD	0401H
	DD	0601H
	DD	0801H
	DD	0c01H
	DD	01001H
	DD	01801H
	DD	02001H
	DD	03001H
	DD	04001H
	DD	06001H
	DD	00H
	DD	00H
_stbi__zdist_extra DD 00H
	DD	00H
	DD	00H
	DD	00H
	DD	01H
	DD	01H
	DD	02H
	DD	02H
	DD	03H
	DD	03H
	DD	04H
	DD	04H
	DD	05H
	DD	05H
	DD	06H
	DD	06H
	DD	07H
	DD	07H
	DD	08H
	DD	08H
	DD	09H
	DD	09H
	DD	0aH
	DD	0aH
	DD	0bH
	DD	0bH
	DD	0cH
	DD	0cH
	DD	0dH
	DD	0dH
	ORG $+8
_Texture_VShader110 DD FLAT:??_C@_0OI@GJFBFCOP@?$CDversion?5110?6varying?5in?5vec3?5Pos@
	ORG $+252
_Texture_FShader110 DD FLAT:??_C@_0MG@BKMGOPGG@?$CDversion?5110?6uniform?5sampler2D?5t@
	ORG $+252
_TextureNoT_FShader110 DD FLAT:??_C@_0NN@FCAKKMCK@?$CDversion?5110?6uniform?5sampler2D?5t@
	ORG $+252
_TextureT_FShader110 DD FLAT:??_C@_0BIF@GBAEIKJH@?$CDversion?5110?6uniform?5sampler2D?5t@
	ORG $+252
_Blend_FShader110 DD FLAT:??_C@_0BBN@JJOIBKFE@?$CDversion?5110?6uniform?5sampler2D?5t@
	ORG $+252
_Lightmap_FShader110 DD FLAT:??_C@_0CMD@FLBEOBHH@?$CDversion?5110?6varying?5in?5vec2?5Tex@
	ORG $+508
_Texture_VShader DD FLAT:??_C@_0PM@NPFOCGLD@?$CDversion?5130?6in?5vec3?5Position?$DL?6i@
	ORG $+252
_Texture_FShader DD FLAT:??_C@_0BDP@HLHOENOH@?$CDversion?5130?6uniform?5sampler2D?5t@
	ORG $+252
_TextureNoT_FShader DD FLAT:??_C@_0NB@HNGLJMAI@?$CDversion?5130?6uniform?5sampler2D?5t@
	ORG $+252
_TextureT_FShader DD FLAT:??_C@_0BFE@LHCNEGLH@?$CDversion?5130?6uniform?5sampler2D?5t@
	ORG $+252
_Blend_FShader DD FLAT:??_C@_0BAB@HLALIPKD@?$CDversion?5130?6uniform?5sampler2D?5t@
	ORG $+252
_Lightmap_FShader DD FLAT:??_C@_0CMF@PHINLJLD@?$CDversion?5130?6in?5vec2?5TexCoord2?$DL?6@
	ORG $+508
?png_sig@?1??stbi__check_png_header@@9@9 DB 089H	; `stbi__check_png_header'::`2'::png_sig
	DB	050H
	DB	04eH
	DB	047H
	DB	0dH
	DB	0aH
	DB	01aH
	DB	0aH
_first_row_filter DB 00H
	DB	01H
	DB	00H
	DB	05H
	DB	06H
	ORG $+3
_stbi__stdio_callbacks DD FLAT:_stbi__stdio_read
	DD	FLAT:_stbi__stdio_skip
	DD	FLAT:_stbi__stdio_eof
	ORG $+4
_stbi__bmask DD	00H
	DD	01H
	DD	03H
	DD	07H
	DD	0fH
	DD	01fH
	DD	03fH
	DD	07fH
	DD	0ffH
	DD	01ffH
	DD	03ffH
	DD	07ffH
	DD	0fffH
	DD	01fffH
	DD	03fffH
	DD	07fffH
	DD	0ffffH
	ORG $+4
_stbi__jpeg_dezigzag DB 00H
	DB	01H
	DB	08H
	DB	010H
	DB	09H
	DB	02H
	DB	03H
	DB	0aH
	DB	011H
	DB	018H
	DB	020H
	DB	019H
	DB	012H
	DB	0bH
	DB	04H
	DB	05H
	DB	0cH
	DB	013H
	DB	01aH
	DB	021H
	DB	028H
	DB	030H
	DB	029H
	DB	022H
	DB	01bH
	DB	014H
	DB	0dH
	DB	06H
	DB	07H
	DB	0eH
	DB	015H
	DB	01cH
	DB	023H
	DB	02aH
	DB	031H
	DB	038H
	DB	039H
	DB	032H
	DB	02bH
	DB	024H
	DB	01dH
	DB	016H
	DB	0fH
	DB	017H
	DB	01eH
	DB	025H
	DB	02cH
	DB	033H
	DB	03aH
	DB	03bH
	DB	034H
	DB	02dH
	DB	026H
	DB	01fH
	DB	027H
	DB	02eH
	DB	035H
	DB	03cH
	DB	03dH
	DB	036H
	DB	02fH
	DB	037H
	DB	03eH
	DB	03fH
	DB	03fH
	DB	03fH
	DB	03fH
	DB	03fH
	DB	03fH
	DB	03fH
	DB	03fH
	DB	03fH
	DB	03fH
	DB	03fH
	DB	03fH
	DB	03fH
	DB	03fH
	DB	03fH
	DB	03fH
_DATA	ENDS
PUBLIC	_Init
PUBLIC	_OpenFont
PUBLIC	_Quit
PUBLIC	_CheckMGGInSystem
PUBLIC	_CheckMGGFile
PUBLIC	_LoadMGG
PUBLIC	_FreeMGG
PUBLIC	_InitMGG
PUBLIC	@SetTimerM@8
PUBLIC	@GetTimerM@0
PUBLIC	_FPSCounter
PUBLIC	_CreateLog
PUBLIC	_LogIn
PUBLIC	_RestartVideo
PUBLIC	_STWci
PUBLIC	_POT
PUBLIC	@WTS@8
PUBLIC	_WTSf
PUBLIC	_ResetVB
PUBLIC	_mCos
PUBLIC	_mSin
PUBLIC	_mTan
PUBLIC	_CalCos16s
PUBLIC	_CalSin16s
PUBLIC	_CalTan16s
PUBLIC	_CalCos32s
PUBLIC	_CalSin32s
PUBLIC	_CalTan32s
PUBLIC	_CalCos16u
PUBLIC	_CalSin16u
PUBLIC	_CalTan16u
PUBLIC	_CalCos32u
PUBLIC	_CalSin32u
PUBLIC	_CalTan32u
PUBLIC	_BASICBKD
PUBLIC	_DrawObj
PUBLIC	_DrawLine
PUBLIC	_DrawString2
PUBLIC	_DrawString2UI
PUBLIC	_DrawStringUI
PUBLIC	_DrawUI
PUBLIC	_DrawPolygon
PUBLIC	_DrawUI2
PUBLIC	_DrawStringUIv
PUBLIC	_Renderer
PUBLIC	_CheckCollisionMouse
PUBLIC	_CheckCollisionMouseWorld
PUBLIC	_UIData
PUBLIC	_StringUI2Data
PUBLIC	_StringUIData
PUBLIC	_StringUIvData
PUBLIC	_String2Data
PUBLIC	_StringData
PUBLIC	_Finish
PUBLIC	_DrawSys
PUBLIC	_stbi_load_from_memory
PUBLIC	_stbi_load_from_callbacks
PUBLIC	_stbi_load
PUBLIC	_stbi_load_from_file
PUBLIC	_stbi_load_16_from_memory
PUBLIC	_stbi_load_16_from_callbacks
PUBLIC	_stbi_load_16
PUBLIC	_stbi_load_from_file_16
PUBLIC	_stbi_loadf_from_memory
PUBLIC	_stbi_loadf_from_callbacks
PUBLIC	_stbi_loadf
PUBLIC	_stbi_loadf_from_file
PUBLIC	_stbi_ldr_to_hdr_gamma
PUBLIC	_stbi_ldr_to_hdr_scale
PUBLIC	_stbi_is_hdr_from_callbacks
PUBLIC	_stbi_is_hdr_from_memory
PUBLIC	_stbi_is_hdr
PUBLIC	_stbi_is_hdr_from_file
PUBLIC	_stbi_failure_reason
PUBLIC	_stbi_image_free
PUBLIC	_stbi_info_from_memory
PUBLIC	_stbi_info_from_callbacks
PUBLIC	_stbi_info
PUBLIC	_stbi_info_from_file
PUBLIC	_stbi_set_unpremultiply_on_load
PUBLIC	_stbi_convert_iphone_png_to_rgb
PUBLIC	_stbi_set_flip_vertically_on_load
PUBLIC	_stbi_zlib_decode_malloc_guesssize
PUBLIC	_stbi_zlib_decode_malloc_guesssize_headerflag
PUBLIC	_stbi_zlib_decode_malloc
PUBLIC	_stbi_zlib_decode_buffer
PUBLIC	_stbi_zlib_decode_noheader_malloc
PUBLIC	_stbi_zlib_decode_noheader_buffer
PUBLIC	_stbi_hdr_to_ldr_gamma
PUBLIC	_stbi_hdr_to_ldr_scale
PUBLIC	_WindowEvents
PUBLIC	_LineData
PUBLIC	??_C@_0BD@CBEDEJPH@unknown?5image?5type?$AA@	; `string'
PUBLIC	??_C@_08NOGIMCHF@outofmem?$AA@			; `string'
PUBLIC	?__LINE__Var@?1??stbi__load_and_postprocess_8bit@@9@9@e7b221e1 ; `stbi__load_and_postprocess_8bit'::`2'::__LINE__Var
PUBLIC	??_C@_1HC@LCAFOEHA@?$AAc?$AA?3?$AA?2?$AAu?$AAs?$AAe?$AAr?$AAs?$AA?2?$AAm?$AAa?$AAr?$AAc?$AAo?$AAs?$AA?2?$AAd?$AAe?$AAs?$AAk?$AAt?$AAo?$AAp?$AA?2?$AAp?$AAr?$AAj?$AA?2?$AAm?$AAg?$AAe?$AAa@ ; `string'
PUBLIC	??_C@_1DE@BAGIOALB@?$AAr?$AAi?$AA?4?$AAb?$AAi?$AAt?$AAs?$AA_?$AAp?$AAe?$AAr?$AA_?$AAc?$AAh?$AAa?$AAn?$AAn?$AAe?$AAl?$AA?5?$AA?$DN?$AA?$DN?$AA?5?$AA1?$AA6?$AA?$AA@ ; `string'
PUBLIC	?__LINE__Var@?1??stbi__load_and_postprocess_16bit@@9@9@e7b221e1 ; `stbi__load_and_postprocess_16bit'::`2'::__LINE__Var
PUBLIC	??_C@_1DC@NDPEGMEG@?$AAr?$AAi?$AA?4?$AAb?$AAi?$AAt?$AAs?$AA_?$AAp?$AAe?$AAr?$AA_?$AAc?$AAh?$AAa?$AAn?$AAn?$AAe?$AAl?$AA?5?$AA?$DN?$AA?$DN?$AA?5?$AA8?$AA?$AA@ ; `string'
PUBLIC	??_C@_02JDPG@rb?$AA@				; `string'
PUBLIC	??_C@_0M@JPDHFAGK@can?8t?5fopen?$AA@		; `string'
PUBLIC	?__LINE__Var@?1??stbi__convert_format@@9@9@e7b221e1 ; `stbi__convert_format'::`2'::__LINE__Var
PUBLIC	??_C@_1DO@MABJBNAJ@?$AAr?$AAe?$AAq?$AA_?$AAc?$AAo?$AAm?$AAp?$AA?5?$AA?$DO?$AA?$DN?$AA?5?$AA1?$AA?5?$AA?$CG?$AA?$CG?$AA?5?$AAr?$AAe?$AAq?$AA_?$AAc?$AAo?$AAm?$AAp?$AA?5?$AA?$DM?$AA?$DN?$AA?5?$AA4?$AA?$AA@ ; `string'
PUBLIC	??_C@_13COJANIEC@?$AA0?$AA?$AA@			; `string'
PUBLIC	?__LINE__Var@?1??stbi__convert_format16@@9@9@e7b221e1 ; `stbi__convert_format16'::`2'::__LINE__Var
PUBLIC	??_C@_0BB@FOKGPEKG@bad?5code?5lengths?$AA@	; `string'
PUBLIC	?__LINE__Var@?1??stbi__jpeg_huff_decode@@9@9@e7b221e1 ; `stbi__jpeg_huff_decode'::`2'::__LINE__Var
PUBLIC	??_C@_1KE@JGKPJEBO@?$AA?$CI?$AA?$CI?$AA?$CI?$AAj?$AA?9?$AA?$DO?$AAc?$AAo?$AAd?$AAe?$AA_?$AAb?$AAu?$AAf?$AAf?$AAe?$AAr?$AA?$CJ?$AA?5?$AA?$DO?$AA?$DO?$AA?5?$AA?$CI?$AA3?$AA2?$AA?5?$AA?9?$AA?5?$AAh?$AA?9?$AA?$DO?$AAs@ ; `string'
PUBLIC	?__LINE__Var@?1??stbi__extend_receive@@9@9@e7b221e1 ; `stbi__extend_receive'::`2'::__LINE__Var
PUBLIC	??_C@_1HO@LDGMAAKB@?$AAn?$AA?5?$AA?$DO?$AA?$DN?$AA?5?$AA0?$AA?5?$AA?$CG?$AA?$CG?$AA?5?$AAn?$AA?5?$AA?$DM?$AA?5?$AA?$CI?$AAi?$AAn?$AAt?$AA?$CJ?$AA?5?$AA?$CI?$AAs?$AAi?$AAz?$AAe?$AAo?$AAf?$AA?$CI?$AAs?$AAt?$AAb?$AAi@ ; `string'
PUBLIC	??_C@_0BB@IIMLINA@bad?5huffman?5code?$AA@	; `string'
PUBLIC	??_C@_0BG@PJBJDAGM@can?8t?5merge?5dc?5and?5ac?$AA@ ; `string'
PUBLIC	??_C@_0BA@KLNDOKJD@expected?5marker?$AA@	; `string'
PUBLIC	??_C@_0M@LPHNODCG@bad?5DRI?5len?$AA@		; `string'
PUBLIC	??_C@_0N@BOFJCHAP@bad?5DQT?5type?$AA@		; `string'
PUBLIC	??_C@_0O@CNHKKDIM@bad?5DQT?5table?$AA@		; `string'
PUBLIC	??_C@_0P@JLGKOCGN@bad?5DHT?5header?$AA@		; `string'
PUBLIC	??_C@_0M@CICAFFCH@bad?5COM?5len?$AA@		; `string'
PUBLIC	??_C@_0M@EENLKPDI@bad?5APP?5len?$AA@		; `string'
PUBLIC	??_C@_0P@NNGPHMMK@unknown?5marker?$AA@		; `string'
PUBLIC	??_C@_0BI@DHFJCMBA@bad?5SOS?5component?5count?$AA@ ; `string'
PUBLIC	??_C@_0M@GNEHAHOH@bad?5SOS?5len?$AA@		; `string'
PUBLIC	??_C@_0M@NOCCBFAC@bad?5DC?5huff?$AA@		; `string'
PUBLIC	??_C@_0M@JGMCBLGG@bad?5AC?5huff?$AA@		; `string'
PUBLIC	??_C@_07EEJOMGGP@bad?5SOS?$AA@			; `string'
PUBLIC	??_C@_0M@DOFMJEMP@bad?5SOF?5len?$AA@		; `string'
PUBLIC	??_C@_0L@BCINMEBJ@only?58?9bit?$AA@		; `string'
PUBLIC	??_C@_0BB@LNEGOMA@no?5header?5height?$AA@	; `string'
PUBLIC	??_C@_07BIDACDEF@0?5width?$AA@			; `string'
PUBLIC	??_C@_0BE@DAPHADHL@bad?5component?5count?$AA@	; `string'
PUBLIC	??_C@_05BLPKENEJ@bad?5H?$AA@			; `string'
PUBLIC	??_C@_05MPLLHCJG@bad?5V?$AA@			; `string'
PUBLIC	??_C@_06LJIHDFHI@bad?5TQ?$AA@			; `string'
PUBLIC	??_C@_09OJDLMMBJ@too?5large?$AA@		; `string'
PUBLIC	??_C@_06CLMBLEP@no?5SOI?$AA@			; `string'
PUBLIC	??_C@_06IFCEAHIA@no?5SOF?$AA@			; `string'
PUBLIC	??_C@_0M@EPMOIECP@bad?5DNL?5len?$AA@		; `string'
PUBLIC	??_C@_0P@PNCLKCLJ@bad?5DNL?5height?$AA@		; `string'
PUBLIC	??_C@_0N@KBPNPPBJ@bad?5req_comp?$AA@		; `string'
PUBLIC	?__LINE__Var@?1??stbi__bit_reverse@@9@9@e7b221e1 ; `stbi__bit_reverse'::`2'::__LINE__Var
PUBLIC	??_C@_1BG@HKNLHECB@?$AAb?$AAi?$AAt?$AAs?$AA?5?$AA?$DM?$AA?$DN?$AA?5?$AA1?$AA6?$AA?$AA@ ; `string'
PUBLIC	??_C@_09EOHLEIKL@bad?5sizes?$AA@		; `string'
PUBLIC	??_C@_0BA@MDNKOBMC@bad?5codelengths?$AA@	; `string'
PUBLIC	?__LINE__Var@?1??stbi__fill_bits@@9@9@e7b221e1	; `stbi__fill_bits'::`2'::__LINE__Var
PUBLIC	??_C@_1EK@GAHNONBJ@?$AAz?$AA?9?$AA?$DO?$AAc?$AAo?$AAd?$AAe?$AA_?$AAb?$AAu?$AAf?$AAf?$AAe?$AAr?$AA?5?$AA?$DM?$AA?5?$AA?$CI?$AA1?$AAU?$AA?5?$AA?$DM?$AA?$DM?$AA?5?$AAz?$AA?9?$AA?$DO?$AAn?$AAu?$AAm?$AA_?$AAb@ ; `string'
PUBLIC	?__LINE__Var@?1??stbi__zhuffman_decode_slowpath@@9@9@e7b221e1 ; `stbi__zhuffman_decode_slowpath'::`2'::__LINE__Var
PUBLIC	??_C@_1CA@BMLMNMFI@?$AAz?$AA?9?$AA?$DO?$AAs?$AAi?$AAz?$AAe?$AA?$FL?$AAb?$AA?$FN?$AA?5?$AA?$DN?$AA?$DN?$AA?5?$AAs?$AA?$AA@ ; `string'
PUBLIC	??_C@_0BE@IBFIPFO@output?5buffer?5limit?$AA@	; `string'
PUBLIC	??_C@_08DIAPIMGJ@bad?5dist?$AA@			; `string'
PUBLIC	?__LINE__Var@?1??stbi__compute_huffman_codes@@9@9@e7b221e1 ; `stbi__compute_huffman_codes'::`2'::__LINE__Var
PUBLIC	??_C@_1BA@NKONKNHF@?$AAc?$AA?5?$AA?$DN?$AA?$DN?$AA?5?$AA1?$AA8?$AA?$AA@ ; `string'
PUBLIC	?__LINE__Var@?1??stbi__parse_uncompressed_block@@9@9@e7b221e1 ; `stbi__parse_uncompressed_block'::`2'::__LINE__Var
PUBLIC	??_C@_1CC@BHGGCLFF@?$AAa?$AA?9?$AA?$DO?$AAn?$AAu?$AAm?$AA_?$AAb?$AAi?$AAt?$AAs?$AA?5?$AA?$DN?$AA?$DN?$AA?5?$AA0?$AA?$AA@ ; `string'
PUBLIC	??_C@_0N@IECDHMDI@zlib?5corrupt?$AA@		; `string'
PUBLIC	??_C@_0BB@PIPBCKIA@read?5past?5buffer?$AA@	; `string'
PUBLIC	??_C@_0BA@OBKOPAFL@bad?5zlib?5header?$AA@	; `string'
PUBLIC	??_C@_0P@DOGMHEBI@no?5preset?5dict?$AA@		; `string'
PUBLIC	??_C@_0BA@MCNBDLPD@bad?5compression?$AA@	; `string'
PUBLIC	??_C@_0M@DMDNBACF@bad?5png?5sig?$AA@		; `string'
PUBLIC	?__LINE__Var@?1??stbi__create_png_image_raw@@9@9@e7b221e1 ; `stbi__create_png_image_raw'::`2'::__LINE__Var
PUBLIC	??_C@_1FC@ICDHLHK@?$AAo?$AAu?$AAt?$AA_?$AAn?$AA?5?$AA?$DN?$AA?$DN?$AA?5?$AAs?$AA?9?$AA?$DO?$AAi?$AAm?$AAg?$AA_?$AAn?$AA?5?$AA?$HM?$AA?$HM?$AA?5?$AAo?$AAu?$AAt?$AA_?$AAn?$AA?5?$AA?$DN?$AA?$DN?$AA?5?$AAs?$AA?9@ ; `string'
PUBLIC	??_C@_0BC@BHMPBBMG@not?5enough?5pixels?$AA@	; `string'
PUBLIC	??_C@_0P@FBBCPGMN@invalid?5filter?$AA@		; `string'
PUBLIC	??_C@_1CK@EJKIMPDL@?$AAi?$AAm?$AAg?$AA_?$AAw?$AAi?$AAd?$AAt?$AAh?$AA_?$AAb?$AAy?$AAt?$AAe?$AAs?$AA?5?$AA?$DM?$AA?$DN?$AA?5?$AAx?$AA?$AA@ ; `string'
PUBLIC	??_C@_1CC@CPJBBDGC@?$AAi?$AAm?$AAg?$AA_?$AAn?$AA?$CL?$AA1?$AA?5?$AA?$DN?$AA?$DN?$AA?5?$AAo?$AAu?$AAt?$AA_?$AAn?$AA?$AA@ ; `string'
PUBLIC	??_C@_1BG@FLOPDKAN@?$AAi?$AAm?$AAg?$AA_?$AAn?$AA?5?$AA?$DN?$AA?$DN?$AA?5?$AA3?$AA?$AA@ ; `string'
PUBLIC	?__LINE__Var@?1??stbi__compute_transparency@@9@9@e7b221e1 ; `stbi__compute_transparency'::`2'::__LINE__Var
PUBLIC	??_C@_1DC@BMIDKOPK@?$AAo?$AAu?$AAt?$AA_?$AAn?$AA?5?$AA?$DN?$AA?$DN?$AA?5?$AA2?$AA?5?$AA?$HM?$AA?$HM?$AA?5?$AAo?$AAu?$AAt?$AA_?$AAn?$AA?5?$AA?$DN?$AA?$DN?$AA?5?$AA4?$AA?$AA@ ; `string'
PUBLIC	?__LINE__Var@?1??stbi__compute_transparency16@@9@9@e7b221e1 ; `stbi__compute_transparency16'::`2'::__LINE__Var
PUBLIC	?__LINE__Var@?1??stbi__de_iphone@@9@9@e7b221e1	; `stbi__de_iphone'::`2'::__LINE__Var
PUBLIC	??_C@_1CE@GKIDJEJM@?$AAs?$AA?9?$AA?$DO?$AAi?$AAm?$AAg?$AA_?$AAo?$AAu?$AAt?$AA_?$AAn?$AA?5?$AA?$DN?$AA?$DN?$AA?5?$AA4?$AA?$AA@ ; `string'
PUBLIC	??_C@_0O@KBHBNJOK@multiple?5IHDR?$AA@		; `string'
PUBLIC	??_C@_0N@POJLKMKK@bad?5IHDR?5len?$AA@		; `string'
PUBLIC	??_C@_0BE@EJHIPKNO@1?12?14?18?116?9bit?5only?$AA@ ; `string'
PUBLIC	??_C@_09MBBNGCKB@bad?5ctype?$AA@		; `string'
PUBLIC	??_C@_0BA@MDMBDDFG@bad?5comp?5method?$AA@	; `string'
PUBLIC	??_C@_0BC@GHLIKKMD@bad?5filter?5method?$AA@	; `string'
PUBLIC	??_C@_0BF@JCGDPBAA@bad?5interlace?5method?$AA@	; `string'
PUBLIC	??_C@_0O@FNFBHCOO@0?9pixel?5image?$AA@		; `string'
PUBLIC	??_C@_0P@JEAFOMAF@first?5not?5IHDR?$AA@		; `string'
PUBLIC	??_C@_0N@JCPAJAKB@invalid?5PLTE?$AA@		; `string'
PUBLIC	??_C@_0BA@PCPJHDKJ@tRNS?5after?5IDAT?$AA@	; `string'
PUBLIC	??_C@_0BB@CEDNNLBG@tRNS?5before?5PLTE?$AA@	; `string'
PUBLIC	??_C@_0N@KDLCCKCH@bad?5tRNS?5len?$AA@		; `string'
PUBLIC	??_C@_0BA@ENDPGCHB@tRNS?5with?5alpha?$AA@	; `string'
PUBLIC	??_C@_07CKIELOEH@no?5PLTE?$AA@			; `string'
PUBLIC	??_C@_09MNNCNKEO@outofdata?$AA@			; `string'
PUBLIC	??_C@_07MLPECBNA@no?5IDAT?$AA@			; `string'
PUBLIC	??_C@_07IANEBNLB@not?5BMP?$AA@			; `string'
PUBLIC	??_C@_0M@KHBIBJBG@unknown?5BMP?$AA@		; `string'
PUBLIC	??_C@_07IEJCHBDI@bad?5BMP?$AA@			; `string'
PUBLIC	??_C@_0L@FEJFGKNE@monochrome?$AA@		; `string'
PUBLIC	??_C@_07IMHMNOIB@BMP?5RLE?$AA@			; `string'
PUBLIC	??_C@_07MALOAKCI@invalid?$AA@			; `string'
PUBLIC	??_C@_07JNJHIMGH@bad?5bpp?$AA@			; `string'
PUBLIC	??_C@_09DAEBACAB@bad?5masks?$AA@		; `string'
PUBLIC	??_C@_0L@DMAPJJO@bad?5format?$AA@		; `string'
PUBLIC	?__LINE__Var@?1??stbi__tga_load@@9@9@e7b221e1	; `stbi__tga_load'::`2'::__LINE__Var
PUBLIC	??_C@_1CK@GOOINIO@?$AAt?$AAg?$AAa?$AA_?$AAc?$AAo?$AAm?$AAp?$AA?5?$AA?$DN?$AA?$DN?$AA?5?$AAS?$AAT?$AAB?$AAI?$AA_?$AAr?$AAg?$AAb?$AA?$AA@ ; `string'
PUBLIC	??_C@_0M@ILLOCNCO@bad?5palette?$AA@		; `string'
PUBLIC	??_C@_02DPNLHKJD@a?$CL?$AA@			; `string'
PUBLIC	??_C@_09JFHIBJMD@mgear?4log?$AA@		; `string'
PUBLIC	??_C@_1DA@PFAEBODD@?$AAO?$AAp?$AAe?$AAn?$AAi?$AAn?$AAg?$AA?5?$AAl?$AAo?$AAg?$AA?5?$AAf?$AAi?$AAl?$AAe?$AA?5?$AAf?$AAa?$AAi?$AAl?$AAe?$AAd?$AA?$AA@ ; `string'
PUBLIC	??_C@_03OFAPEBGM@?$CFs?6?$AA@			; `string'
PUBLIC	??_C@_01NOFIACDB@w?$AA@				; `string'
PUBLIC	??_C@_1CE@CDPPCMAP@?$AAC?$AAr?$AAe?$AAa?$AAt?$AAe?$AA?5?$AAl?$AAo?$AAg?$AA?5?$AAf?$AAa?$AAi?$AAl?$AAe?$AAd?$AA?$AA@ ; `string'
PUBLIC	??_C@_08PJPFOJIA@?$CFs?5?$CF?42f?6?$AA@		; `string'
PUBLIC	??_C@_0BA@BIGBPAJK@Engine?5started?6?$AA@	; `string'
PUBLIC	??_C@_0N@JPOOLMEG@Log?5created?6?$AA@		; `string'
PUBLIC	??_C@_0N@NDCMMGFF@?$CFs?5fps?3?5?$CF?42f?$AA@	; `string'
PUBLIC	??_C@_05PDOBBJNA@Color?$AA@			; `string'
PUBLIC	??_C@_08GCJNLIKG@Position?$AA@			; `string'
PUBLIC	??_C@_08NGMLKGCO@TexCoord?$AA@			; `string'
PUBLIC	??_C@_08DGBKPNED@TexLight?$AA@			; `string'
PUBLIC	??_C@_0BM@HCNBMJIE@SDL?5Initilization?5failed?5?$CFs?$AA@ ; `string'
PUBLIC	??_C@_0BD@DNBPCBJE@SDL?52?40?5initialzed?$AA@	; `string'
PUBLIC	??_C@_0CG@LLIBEPGC@Error?5while?5initializing?5SDL?5TTF@ ; `string'
PUBLIC	??_C@_0BE@MBBIJNFJ@SDL?5TTF?5initialized?$AA@	; `string'
PUBLIC	??_C@_0DJ@GHPNMNEC@Error?5setting?5fullscreen?5video?5m@ ; `string'
PUBLIC	??_C@_0DG@HINKMIAE@Error?5setting?5widowed?5video?5mode@ ; `string'
PUBLIC	??_C@_0CB@CJINDJOG@Window?5created?0?5?$CFd?5x?5?$CFd?0?5?$CFd?5bits@ ; `string'
PUBLIC	??_C@_0BL@JKBAOCCM@Error?5setting?5renderer?3?5?$CFs?$AA@ ; `string'
PUBLIC	??_C@_0BH@PJDJGOFF@Opengl?5context?5created?$AA@ ; `string'
PUBLIC	??_C@_0BL@PNJKGHIL@GL_ARB_vertex_array_object?$AA@ ; `string'
PUBLIC	??_C@_0FD@HGLPPOCA@VAO?5not?5supported?0?5check?5your?5vi@ ; `string'
PUBLIC	??_C@_0BM@OOMEFFAE@GL_ARB_vertex_buffer_object?$AA@ ; `string'
PUBLIC	??_C@_0FF@HDHKLDIO@VBOs?5not?5supported?0?5check?5your?5v@ ; `string'
PUBLIC	??_C@_0BE@PFGKPDCP@GL_EXT_vertex_array?$AA@	; `string'
PUBLIC	??_C@_0DP@GKIFJBKD@Your?5video?5card?5is?5not?5adequate?5@ ; `string'
PUBLIC	??_C@_0BD@HLIFEONF@GL_EXT_framebuffer?$AA@	; `string'
PUBLIC	??_C@_0GA@BFFFOFBB@Framebuffer?5object?5not?5support?0?5@ ; `string'
PUBLIC	??_C@_0O@BNBOBIPB@Shader?5?$CFd?3?5?$CFs?$AA@	; `string'
PUBLIC	??_C@_0BK@JJHKDBGE@Counld?5not?5compile?5shader?$AA@ ; `string'
PUBLIC	??_C@_0BD@CHEFDAHK@Changing?5to?5VBO?4?4?4?$AA@	; `string'
PUBLIC	??_C@_0BC@FPJNDHAI@Changing?5to?5VA?4?4?4?$AA@	; `string'
PUBLIC	??_C@_04DBNNPNIH@texu?$AA@			; `string'
PUBLIC	??_C@_05JOJNJPAP@texu2?$AA@			; `string'
PUBLIC	??_C@_05IHIGKOEO@texu3?$AA@			; `string'
PUBLIC	??_C@_06IKLLLDHL@normal?$AA@			; `string'
PUBLIC	??_C@_0L@GLKJCCIE@light_type?$AA@		; `string'
PUBLIC	??_C@_0BD@MFHDJABA@Opengl?5initialized?$AA@	; `string'
PUBLIC	??_C@_0CA@IICOLDCN@GL_ARB_texture_non_power_of_two?$AA@ ; `string'
PUBLIC	??_C@_0GF@JPJDLJAN@Non?5power?5of?5two?5textures?5not?5su@ ; `string'
PUBLIC	??_C@_0BJ@NKHMPMDJ@GL_ARB_texture_rectangle?$AA@ ; `string'
PUBLIC	??_C@_0BI@KIAKBMLM@GL_NV_texture_rectangle?$AA@	; `string'
PUBLIC	??_C@_0FP@HOKOFLMI@Rectangle?5textures?5not?5supported@ ; `string'
PUBLIC	??_C@_0BC@DHDBMALK@Input?5initialized?$AA@	; `string'
PUBLIC	??_C@_0CC@HAGAANID@Error?5while?5opening?5TTF?5font?5?3?5?$CF@ ; `string'
PUBLIC	??_C@_0BA@NDONFOIB@Video?5restarted?$AA@	; `string'
PUBLIC	??_C@_0DH@KKJPEJIP@Error?5setting?5windowed?5video?5mod@ ; `string'
PUBLIC	??_C@_0BK@MKEONLB@Window?5resized?5to?5?$CFd?5x?5?$CFd?$AA@ ; `string'
PUBLIC	??_C@_0BK@JNFOJKPO@Error?5reading?5MGG?5file?5?$CFs?$AA@ ; `string'
PUBLIC	??_C@_0BD@IGEJGLBO@MGG?5File?5Version?51?$AA@	; `string'
PUBLIC	??_C@_0BL@HGJNDNHB@Invalid?5MGG?5file?5header?5?$CFs?$AA@ ; `string'
PUBLIC	??_C@_0BE@GOCIOEKA@Invalid?5MGG?5file?5?$CFs?$AA@ ; `string'
PUBLIC	??_C@_0BJ@MDEIDPPP@Invalid?5MGG?5file?5info?5?$CFs?$AA@ ; `string'
PUBLIC	??_C@_0DJ@PPPGBEPE@Error?5allocating?5memory?5for?5text@ ; `string'
PUBLIC	??_C@_0CC@PLAHMHNO@Error?5loading?5texture?5from?5memor@ ; `string'
PUBLIC	??_C@_0EI@OCDBEPGI@Error?5allocating?5memory?5for?5norm@ ; `string'
PUBLIC	??_C@_0DB@EBPLCLOB@Error?5loading?5normal?5mapping?5tex@ ; `string'
PUBLIC	??_C@_0DG@BNCAOHGG@Error?5could?5not?5allocate?5memory?5@ ; `string'
PUBLIC	??_C@_0CH@GLOGGAHF@Warning?3?5max?5number?5os?5strings?5r@ ; `string'
PUBLIC	??_C@_01CLKCMJKC@?5?$AA@			; `string'
PUBLIC	__real@00000000
PUBLIC	__real@0000000000000000
PUBLIC	__real@39000000
PUBLIC	__real@39638e39
PUBLIC	__real@3a000000
PUBLIC	__real@3c23d70a
PUBLIC	__real@3dcccccd
PUBLIC	__real@3f800000
PUBLIC	__real@3ff0000000000000
PUBLIC	__real@40000000
PUBLIC	__real@400921fb53c8d4f1
PUBLIC	__real@40400000
PUBLIC	__real@404ca5dc1af05a77
PUBLIC	__real@4066800000000000
PUBLIC	__real@41200000
PUBLIC	__real@42c80000
PUBLIC	__real@437f0000
PUBLIC	__real@43b40ccd
PUBLIC	__real@447a0000
PUBLIC	__real@44800000
PUBLIC	__real@45000000
PUBLIC	__real@46100000
PUBLIC	__real@46180000
PUBLIC	__real@46800000
PUBLIC	__real@47000000
PUBLIC	__real@bf800000
PUBLIC	__xmm@00000200000002000000020000000200
PUBLIC	__xmm@00080008000800080008000800080008
PUBLIC	__xmm@00ff00ff00ff00ff00ff00ff00ff00ff
PUBLIC	__xmm@01010000010100000101000001010000
PUBLIC	__xmm@08a914e808a914e808a914e808a914e8
PUBLIC	__xmm@11c8e09e11c8e09e11c8e09e11c8e09e
PUBLIC	__xmm@11c8f9c311c8f9c311c8f9c311c8f9c3
PUBLIC	__xmm@12d0046b12d0046b12d0046b12d0046b
PUBLIC	__xmm@166f166f166f166f166f166f166f166f
PUBLIC	__xmm@1c5a1c5a1c5a1c5a1c5a1c5a1c5a1c5a
PUBLIC	__xmm@41f00000000000000000000000000000
PUBLIC	__xmm@80808080808080808080808080808080
PUBLIC	__xmm@e09ee565e09ee565e09ee565e09ee565
PUBLIC	__xmm@e9cf12d0e9cf12d0e9cf12d0e9cf12d0
PUBLIC	__xmm@eb1a08a9eb1a08a9eb1a08a9eb1a08a9
PUBLIC	__xmm@f493f493f493f493f493f493f493f493
PUBLIC	__xmm@f9c31a9df9c31a9df9c31a9df9c31a9d
PUBLIC	__xmm@fa7efa7efa7efa7efa7efa7efa7efa7e
EXTRN	_memcpy:PROC
EXTRN	_memset:PROC
EXTRN	_strcpy:PROC
EXTRN	_strcmp:PROC
EXTRN	_strlen:PROC
EXTRN	_strstr:PROC
EXTRN	__imp__MessageBoxA@16:PROC
EXTRN	__imp__glBindTexture@8:PROC
EXTRN	__imp__glBlendFunc@8:PROC
EXTRN	__imp__glClear@4:PROC
EXTRN	__imp__glClearColor@16:PROC
EXTRN	__imp__glClearDepth@8:PROC
EXTRN	__imp__glColorPointer@16:PROC
EXTRN	__imp__glDeleteTextures@8:PROC
EXTRN	__imp__glDepthFunc@4:PROC
EXTRN	__imp__glDisable@4:PROC
EXTRN	__imp__glDisableClientState@4:PROC
EXTRN	__imp__glEnable@4:PROC
EXTRN	__imp__glEnableClientState@4:PROC
EXTRN	__imp__glGenTextures@8:PROC
EXTRN	__imp__glGetString@4:PROC
EXTRN	__imp__glGetTexImage@20:PROC
EXTRN	__imp__glLoadIdentity@0:PROC
EXTRN	__imp__glMatrixMode@4:PROC
EXTRN	__imp__glOrtho@48:PROC
EXTRN	__imp__glPixelStorei@8:PROC
EXTRN	__imp__glTexCoordPointer@16:PROC
EXTRN	__imp__glTexImage2D@36:PROC
EXTRN	__imp__glTexParameterf@12:PROC
EXTRN	__imp__glTexParameteri@12:PROC
EXTRN	__imp__glTexSubImage2D@36:PROC
EXTRN	__imp__glVertexPointer@16:PROC
EXTRN	__imp__glViewport@16:PROC
EXTRN	_GLeeEnabled:PROC
EXTRN	_SDL_GetError:PROC
EXTRN	_exit:PROC
EXTRN	_calloc:PROC
EXTRN	_free:PROC
EXTRN	_malloc:PROC
EXTRN	_realloc:PROC
EXTRN	__lrotl:PROC
EXTRN	_SDL_FreeSurface:PROC
EXTRN	_SDL_CreateWindow:PROC
EXTRN	_SDL_SetWindowTitle:PROC
EXTRN	_SDL_DestroyWindow:PROC
EXTRN	_SDL_GL_SetAttribute:PROC
EXTRN	_SDL_GL_CreateContext:PROC
EXTRN	_SDL_GL_SetSwapInterval:PROC
EXTRN	_SDL_SetRelativeMouseMode:PROC
EXTRN	_SDL_GetRelativeMouseMode:PROC
EXTRN	_SDL_Log:PROC
EXTRN	_SDL_LogSetOutputFunction:PROC
EXTRN	_SDL_GetTicks:PROC
EXTRN	_SDL_Init:PROC
EXTRN	_SDL_Quit:PROC
EXTRN	_TTF_Init:PROC
EXTRN	_TTF_OpenFont:PROC
EXTRN	_TTF_RenderUTF8_Blended:PROC
EXTRN	_TTF_Quit:PROC
EXTRN	_fclose:PROC
EXTRN	_feof:PROC
EXTRN	_fopen:PROC
EXTRN	_fopen_s:PROC
EXTRN	_fprintf:PROC
EXTRN	_fread:PROC
EXTRN	_fseek:PROC
EXTRN	_ftell:PROC
EXTRN	_rewind:PROC
EXTRN	_sprintf:PROC
EXTRN	_abs:PROC
EXTRN	_InputInit:PROC
EXTRN	_InputProcess:PROC
EXTRN	_InputClose:PROC
EXTRN	_atan2:PROC
EXTRN	_cos:PROC
EXTRN	_pow:PROC
EXTRN	_sin:PROC
EXTRN	_tan:PROC
EXTRN	__wassert:PROC
EXTRN	@_RTC_CheckStackVars@8:PROC
EXTRN	@__security_check_cookie@4:PROC
EXTRN	__RTC_CheckEsp:PROC
EXTRN	__RTC_InitBase:PROC
EXTRN	__RTC_Shutdown:PROC
EXTRN	__RTC_UninitUse:PROC
EXTRN	__chkstk:PROC
EXTRN	__ftoui3:PROC
EXTRN	__GLEE_VERSION_3_0:BYTE
EXTRN	_GLeeFuncPtr_glDrawRangeElements:DWORD
EXTRN	_GLeeFuncPtr_glActiveTexture:DWORD
EXTRN	_GLeeFuncPtr_glBindBuffer:DWORD
EXTRN	_GLeeFuncPtr_glGenBuffers:DWORD
EXTRN	_GLeeFuncPtr_glBufferData:DWORD
EXTRN	_GLeeFuncPtr_glBufferSubData:DWORD
EXTRN	_GLeeFuncPtr_glDrawBuffers:DWORD
EXTRN	_GLeeFuncPtr_glAttachShader:DWORD
EXTRN	_GLeeFuncPtr_glCompileShader:DWORD
EXTRN	_GLeeFuncPtr_glCreateProgram:DWORD
EXTRN	_GLeeFuncPtr_glCreateShader:DWORD
EXTRN	_GLeeFuncPtr_glDeleteProgram:DWORD
EXTRN	_GLeeFuncPtr_glDeleteShader:DWORD
EXTRN	_GLeeFuncPtr_glDetachShader:DWORD
EXTRN	_GLeeFuncPtr_glDisableVertexAttribArray:DWORD
EXTRN	_GLeeFuncPtr_glEnableVertexAttribArray:DWORD
EXTRN	_GLeeFuncPtr_glGetAttribLocation:DWORD
EXTRN	_GLeeFuncPtr_glGetProgramiv:DWORD
EXTRN	_GLeeFuncPtr_glGetProgramInfoLog:DWORD
EXTRN	_GLeeFuncPtr_glGetShaderiv:DWORD
EXTRN	_GLeeFuncPtr_glGetShaderInfoLog:DWORD
EXTRN	_GLeeFuncPtr_glGetUniformLocation:DWORD
EXTRN	_GLeeFuncPtr_glLinkProgram:DWORD
EXTRN	_GLeeFuncPtr_glShaderSource:DWORD
EXTRN	_GLeeFuncPtr_glUseProgram:DWORD
EXTRN	_GLeeFuncPtr_glUniform1f:DWORD
EXTRN	_GLeeFuncPtr_glUniform1i:DWORD
EXTRN	_GLeeFuncPtr_glVertexAttribPointer:DWORD
EXTRN	_GLeeFuncPtr_glBindRenderbuffer:DWORD
EXTRN	_GLeeFuncPtr_glGenRenderbuffers:DWORD
EXTRN	_GLeeFuncPtr_glRenderbufferStorage:DWORD
EXTRN	_GLeeFuncPtr_glBindFramebuffer:DWORD
EXTRN	_GLeeFuncPtr_glGenFramebuffers:DWORD
EXTRN	_GLeeFuncPtr_glFramebufferTexture2D:DWORD
EXTRN	_GLeeFuncPtr_glFramebufferRenderbuffer:DWORD
EXTRN	_GLeeFuncPtr_glGenerateMipmap:DWORD
EXTRN	_GLeeFuncPtr_glBindVertexArray:DWORD
EXTRN	_GLeeFuncPtr_glGenVertexArrays:DWORD
EXTRN	___security_cookie:DWORD
EXTRN	__fltused:DWORD
_BSS	SEGMENT
_stbi__g_failure_reason DD 01H DUP (?)
_BSS	ENDS
;	COMDAT __xmm@fa7efa7efa7efa7efa7efa7efa7efa7e
CONST	SEGMENT
__xmm@fa7efa7efa7efa7efa7efa7efa7efa7e DB '~', 0faH, '~', 0faH, '~', 0faH
	DB	'~', 0faH, '~', 0faH, '~', 0faH, '~', 0faH, '~', 0faH
CONST	ENDS
;	COMDAT __xmm@f9c31a9df9c31a9df9c31a9df9c31a9d
CONST	SEGMENT
__xmm@f9c31a9df9c31a9df9c31a9df9c31a9d DB 09dH, 01aH, 0c3H, 0f9H, 09dH, 01aH
	DB	0c3H, 0f9H, 09dH, 01aH, 0c3H, 0f9H, 09dH, 01aH, 0c3H, 0f9H
CONST	ENDS
;	COMDAT __xmm@f493f493f493f493f493f493f493f493
CONST	SEGMENT
__xmm@f493f493f493f493f493f493f493f493 DB 093H, 0f4H, 093H, 0f4H, 093H, 0f4H
	DB	093H, 0f4H, 093H, 0f4H, 093H, 0f4H, 093H, 0f4H, 093H, 0f4H
CONST	ENDS
;	COMDAT __xmm@eb1a08a9eb1a08a9eb1a08a9eb1a08a9
CONST	SEGMENT
__xmm@eb1a08a9eb1a08a9eb1a08a9eb1a08a9 DB 0a9H, 08H, 01aH, 0ebH, 0a9H, 08H
	DB	01aH, 0ebH, 0a9H, 08H, 01aH, 0ebH, 0a9H, 08H, 01aH, 0ebH
CONST	ENDS
;	COMDAT __xmm@e9cf12d0e9cf12d0e9cf12d0e9cf12d0
CONST	SEGMENT
__xmm@e9cf12d0e9cf12d0e9cf12d0e9cf12d0 DB 0d0H, 012H, 0cfH, 0e9H, 0d0H, 012H
	DB	0cfH, 0e9H, 0d0H, 012H, 0cfH, 0e9H, 0d0H, 012H, 0cfH, 0e9H
CONST	ENDS
;	COMDAT __xmm@e09ee565e09ee565e09ee565e09ee565
CONST	SEGMENT
__xmm@e09ee565e09ee565e09ee565e09ee565 DB 'e', 0e5H, 09eH, 0e0H, 'e', 0e5H
	DB	09eH, 0e0H, 'e', 0e5H, 09eH, 0e0H, 'e', 0e5H, 09eH, 0e0H
CONST	ENDS
;	COMDAT __xmm@80808080808080808080808080808080
CONST	SEGMENT
__xmm@80808080808080808080808080808080 DB 080H, 080H, 080H, 080H, 080H, 080H
	DB	080H, 080H, 080H, 080H, 080H, 080H, 080H, 080H, 080H, 080H
CONST	ENDS
;	COMDAT __xmm@41f00000000000000000000000000000
CONST	SEGMENT
__xmm@41f00000000000000000000000000000 DB 00H, 00H, 00H, 00H, 00H, 00H, 00H
	DB	00H, 00H, 00H, 00H, 00H, 00H, 00H, 0f0H, 'A'
CONST	ENDS
;	COMDAT __xmm@1c5a1c5a1c5a1c5a1c5a1c5a1c5a1c5a
CONST	SEGMENT
__xmm@1c5a1c5a1c5a1c5a1c5a1c5a1c5a1c5a DB 'Z', 01cH, 'Z', 01cH, 'Z', 01cH
	DB	'Z', 01cH, 'Z', 01cH, 'Z', 01cH, 'Z', 01cH, 'Z', 01cH
CONST	ENDS
;	COMDAT __xmm@166f166f166f166f166f166f166f166f
CONST	SEGMENT
__xmm@166f166f166f166f166f166f166f166f DB 'o', 016H, 'o', 016H, 'o', 016H
	DB	'o', 016H, 'o', 016H, 'o', 016H, 'o', 016H, 'o', 016H
CONST	ENDS
;	COMDAT __xmm@12d0046b12d0046b12d0046b12d0046b
CONST	SEGMENT
__xmm@12d0046b12d0046b12d0046b12d0046b DB 'k', 04H, 0d0H, 012H, 'k', 04H, 0d0H
	DB	012H, 'k', 04H, 0d0H, 012H, 'k', 04H, 0d0H, 012H
CONST	ENDS
;	COMDAT __xmm@11c8f9c311c8f9c311c8f9c311c8f9c3
CONST	SEGMENT
__xmm@11c8f9c311c8f9c311c8f9c311c8f9c3 DB 0c3H, 0f9H, 0c8H, 011H, 0c3H, 0f9H
	DB	0c8H, 011H, 0c3H, 0f9H, 0c8H, 011H, 0c3H, 0f9H, 0c8H, 011H
CONST	ENDS
;	COMDAT __xmm@11c8e09e11c8e09e11c8e09e11c8e09e
CONST	SEGMENT
__xmm@11c8e09e11c8e09e11c8e09e11c8e09e DB 09eH, 0e0H, 0c8H, 011H, 09eH, 0e0H
	DB	0c8H, 011H, 09eH, 0e0H, 0c8H, 011H, 09eH, 0e0H, 0c8H, 011H
CONST	ENDS
;	COMDAT __xmm@08a914e808a914e808a914e808a914e8
CONST	SEGMENT
__xmm@08a914e808a914e808a914e808a914e8 DB 0e8H, 014H, 0a9H, 08H, 0e8H, 014H
	DB	0a9H, 08H, 0e8H, 014H, 0a9H, 08H, 0e8H, 014H, 0a9H, 08H
CONST	ENDS
;	COMDAT __xmm@01010000010100000101000001010000
CONST	SEGMENT
__xmm@01010000010100000101000001010000 DB 00H, 00H, 01H, 01H, 00H, 00H, 01H
	DB	01H, 00H, 00H, 01H, 01H, 00H, 00H, 01H, 01H
CONST	ENDS
;	COMDAT __xmm@00ff00ff00ff00ff00ff00ff00ff00ff
CONST	SEGMENT
__xmm@00ff00ff00ff00ff00ff00ff00ff00ff DB 0ffH, 00H, 0ffH, 00H, 0ffH, 00H
	DB	0ffH, 00H, 0ffH, 00H, 0ffH, 00H, 0ffH, 00H, 0ffH, 00H
CONST	ENDS
;	COMDAT __xmm@00080008000800080008000800080008
CONST	SEGMENT
__xmm@00080008000800080008000800080008 DB 08H, 00H, 08H, 00H, 08H, 00H, 08H
	DB	00H, 08H, 00H, 08H, 00H, 08H, 00H, 08H, 00H
CONST	ENDS
;	COMDAT __xmm@00000200000002000000020000000200
CONST	SEGMENT
__xmm@00000200000002000000020000000200 DB 00H, 02H, 00H, 00H, 00H, 02H, 00H
	DB	00H, 00H, 02H, 00H, 00H, 00H, 02H, 00H, 00H
CONST	ENDS
;	COMDAT __real@bf800000
CONST	SEGMENT
__real@bf800000 DD 0bf800000r			; -1
CONST	ENDS
;	COMDAT __real@47000000
CONST	SEGMENT
__real@47000000 DD 047000000r			; 32768
CONST	ENDS
;	COMDAT __real@46800000
CONST	SEGMENT
__real@46800000 DD 046800000r			; 16384
CONST	ENDS
;	COMDAT __real@46180000
CONST	SEGMENT
__real@46180000 DD 046180000r			; 9728
CONST	ENDS
;	COMDAT __real@46100000
CONST	SEGMENT
__real@46100000 DD 046100000r			; 9216
CONST	ENDS
;	COMDAT __real@45000000
CONST	SEGMENT
__real@45000000 DD 045000000r			; 2048
CONST	ENDS
;	COMDAT __real@44800000
CONST	SEGMENT
__real@44800000 DD 044800000r			; 1024
CONST	ENDS
;	COMDAT __real@447a0000
CONST	SEGMENT
__real@447a0000 DD 0447a0000r			; 1000
CONST	ENDS
;	COMDAT __real@43b40ccd
CONST	SEGMENT
__real@43b40ccd DD 043b40ccdr			; 360.1
CONST	ENDS
;	COMDAT __real@437f0000
CONST	SEGMENT
__real@437f0000 DD 0437f0000r			; 255
CONST	ENDS
;	COMDAT __real@42c80000
CONST	SEGMENT
__real@42c80000 DD 042c80000r			; 100
CONST	ENDS
;	COMDAT __real@41200000
CONST	SEGMENT
__real@41200000 DD 041200000r			; 10
CONST	ENDS
;	COMDAT __real@4066800000000000
CONST	SEGMENT
__real@4066800000000000 DQ 04066800000000000r	; 180
CONST	ENDS
;	COMDAT __real@404ca5dc1af05a77
CONST	SEGMENT
__real@404ca5dc1af05a77 DQ 0404ca5dc1af05a77r	; 57.2958
CONST	ENDS
;	COMDAT __real@40400000
CONST	SEGMENT
__real@40400000 DD 040400000r			; 3
CONST	ENDS
;	COMDAT __real@400921fb53c8d4f1
CONST	SEGMENT
__real@400921fb53c8d4f1 DQ 0400921fb53c8d4f1r	; 3.14159
CONST	ENDS
;	COMDAT __real@40000000
CONST	SEGMENT
__real@40000000 DD 040000000r			; 2
CONST	ENDS
;	COMDAT __real@3ff0000000000000
CONST	SEGMENT
__real@3ff0000000000000 DQ 03ff0000000000000r	; 1
CONST	ENDS
;	COMDAT __real@3f800000
CONST	SEGMENT
__real@3f800000 DD 03f800000r			; 1
CONST	ENDS
;	COMDAT __real@3dcccccd
CONST	SEGMENT
__real@3dcccccd DD 03dcccccdr			; 0.1
CONST	ENDS
;	COMDAT __real@3c23d70a
CONST	SEGMENT
__real@3c23d70a DD 03c23d70ar			; 0.01
CONST	ENDS
;	COMDAT __real@3a000000
CONST	SEGMENT
__real@3a000000 DD 03a000000r			; 0.000488281
CONST	ENDS
;	COMDAT __real@39638e39
CONST	SEGMENT
__real@39638e39 DD 039638e39r			; 0.000217014
CONST	ENDS
;	COMDAT __real@39000000
CONST	SEGMENT
__real@39000000 DD 039000000r			; 0.00012207
CONST	ENDS
;	COMDAT __real@0000000000000000
CONST	SEGMENT
__real@0000000000000000 DQ 00000000000000000r	; 0
CONST	ENDS
;	COMDAT __real@00000000
CONST	SEGMENT
__real@00000000 DD 000000000r			; 0
CONST	ENDS
;	COMDAT rtc$TMZ
rtc$TMZ	SEGMENT
__RTC_Shutdown.rtc$TMZ DD FLAT:__RTC_Shutdown
rtc$TMZ	ENDS
;	COMDAT rtc$IMZ
rtc$IMZ	SEGMENT
__RTC_InitBase.rtc$IMZ DD FLAT:__RTC_InitBase
rtc$IMZ	ENDS
;	COMDAT ??_C@_01CLKCMJKC@?5?$AA@
CONST	SEGMENT
??_C@_01CLKCMJKC@?5?$AA@ DB ' ', 00H			; `string'
CONST	ENDS
;	COMDAT ??_C@_0CH@GLOGGAHF@Warning?3?5max?5number?5os?5strings?5r@
CONST	SEGMENT
??_C@_0CH@GLOGGAHF@Warning?3?5max?5number?5os?5strings?5r@ DB 'Warning: m'
	DB	'ax number os strings reached', 00H		; `string'
CONST	ENDS
;	COMDAT ??_C@_0DG@BNCAOHGG@Error?5could?5not?5allocate?5memory?5@
CONST	SEGMENT
??_C@_0DG@BNCAOHGG@Error?5could?5not?5allocate?5memory?5@ DB 'Error could'
	DB	' not allocate memory for the Vertex Buffer', 00H ; `string'
CONST	ENDS
;	COMDAT ??_C@_0DB@EBPLCLOB@Error?5loading?5normal?5mapping?5tex@
CONST	SEGMENT
??_C@_0DB@EBPLCLOB@Error?5loading?5normal?5mapping?5tex@ DB 'Error loadin'
	DB	'g normal mapping texture from memory', 00H	; `string'
CONST	ENDS
;	COMDAT ??_C@_0EI@OCDBEPGI@Error?5allocating?5memory?5for?5norm@
CONST	SEGMENT
??_C@_0EI@OCDBEPGI@Error?5allocating?5memory?5for?5norm@ DB 'Error alloca'
	DB	'ting memory for normal mapping texture %d, size %d, file %s', 00H ; `string'
CONST	ENDS
;	COMDAT ??_C@_0CC@PLAHMHNO@Error?5loading?5texture?5from?5memor@
CONST	SEGMENT
??_C@_0CC@PLAHMHNO@Error?5loading?5texture?5from?5memor@ DB 'Error loadin'
	DB	'g texture from memory', 00H			; `string'
CONST	ENDS
;	COMDAT ??_C@_0DJ@PPPGBEPE@Error?5allocating?5memory?5for?5text@
CONST	SEGMENT
??_C@_0DJ@PPPGBEPE@Error?5allocating?5memory?5for?5text@ DB 'Error alloca'
	DB	'ting memory for texture %d, size %d, file %s', 00H ; `string'
CONST	ENDS
;	COMDAT ??_C@_0BJ@MDEIDPPP@Invalid?5MGG?5file?5info?5?$CFs?$AA@
CONST	SEGMENT
??_C@_0BJ@MDEIDPPP@Invalid?5MGG?5file?5info?5?$CFs?$AA@ DB 'Invalid MGG f'
	DB	'ile info %s', 00H				; `string'
CONST	ENDS
;	COMDAT ??_C@_0BE@GOCIOEKA@Invalid?5MGG?5file?5?$CFs?$AA@
CONST	SEGMENT
??_C@_0BE@GOCIOEKA@Invalid?5MGG?5file?5?$CFs?$AA@ DB 'Invalid MGG file %s'
	DB	00H						; `string'
CONST	ENDS
;	COMDAT ??_C@_0BL@HGJNDNHB@Invalid?5MGG?5file?5header?5?$CFs?$AA@
CONST	SEGMENT
??_C@_0BL@HGJNDNHB@Invalid?5MGG?5file?5header?5?$CFs?$AA@ DB 'Invalid MGG'
	DB	' file header %s', 00H			; `string'
CONST	ENDS
;	COMDAT ??_C@_0BD@IGEJGLBO@MGG?5File?5Version?51?$AA@
CONST	SEGMENT
??_C@_0BD@IGEJGLBO@MGG?5File?5Version?51?$AA@ DB 'MGG File Version 1', 00H ; `string'
CONST	ENDS
;	COMDAT ??_C@_0BK@JNFOJKPO@Error?5reading?5MGG?5file?5?$CFs?$AA@
CONST	SEGMENT
??_C@_0BK@JNFOJKPO@Error?5reading?5MGG?5file?5?$CFs?$AA@ DB 'Error readin'
	DB	'g MGG file %s', 00H				; `string'
CONST	ENDS
;	COMDAT ??_C@_0BK@MKEONLB@Window?5resized?5to?5?$CFd?5x?5?$CFd?$AA@
CONST	SEGMENT
??_C@_0BK@MKEONLB@Window?5resized?5to?5?$CFd?5x?5?$CFd?$AA@ DB 'Window re'
	DB	'sized to %d x %d', 00H			; `string'
CONST	ENDS
;	COMDAT ??_C@_0DH@KKJPEJIP@Error?5setting?5windowed?5video?5mod@
CONST	SEGMENT
??_C@_0DH@KKJPEJIP@Error?5setting?5windowed?5video?5mod@ DB 'Error settin'
	DB	'g windowed video mode %d x %d %d bits - %s', 00H ; `string'
CONST	ENDS
;	COMDAT ??_C@_0BA@NDONFOIB@Video?5restarted?$AA@
CONST	SEGMENT
??_C@_0BA@NDONFOIB@Video?5restarted?$AA@ DB 'Video restarted', 00H ; `string'
CONST	ENDS
;	COMDAT ??_C@_0CC@HAGAANID@Error?5while?5opening?5TTF?5font?5?3?5?$CF@
CONST	SEGMENT
??_C@_0CC@HAGAANID@Error?5while?5opening?5TTF?5font?5?3?5?$CF@ DB 'Error '
	DB	'while opening TTF font : %s', 00H		; `string'
CONST	ENDS
;	COMDAT ??_C@_0BC@DHDBMALK@Input?5initialized?$AA@
CONST	SEGMENT
??_C@_0BC@DHDBMALK@Input?5initialized?$AA@ DB 'Input initialized', 00H ; `string'
CONST	ENDS
;	COMDAT ??_C@_0FP@HOKOFLMI@Rectangle?5textures?5not?5supported@
CONST	SEGMENT
??_C@_0FP@HOKOFLMI@Rectangle?5textures?5not?5supported@ DB 'Rectangle tex'
	DB	'tures not supported, your video card is not supported or try '
	DB	'updating your driver', 00H			; `string'
CONST	ENDS
;	COMDAT ??_C@_0BI@KIAKBMLM@GL_NV_texture_rectangle?$AA@
CONST	SEGMENT
??_C@_0BI@KIAKBMLM@GL_NV_texture_rectangle?$AA@ DB 'GL_NV_texture_rectang'
	DB	'le', 00H					; `string'
CONST	ENDS
;	COMDAT ??_C@_0BJ@NKHMPMDJ@GL_ARB_texture_rectangle?$AA@
CONST	SEGMENT
??_C@_0BJ@NKHMPMDJ@GL_ARB_texture_rectangle?$AA@ DB 'GL_ARB_texture_recta'
	DB	'ngle', 00H					; `string'
CONST	ENDS
;	COMDAT ??_C@_0GF@JPJDLJAN@Non?5power?5of?5two?5textures?5not?5su@
CONST	SEGMENT
??_C@_0GF@JPJDLJAN@Non?5power?5of?5two?5textures?5not?5su@ DB 'Non power '
	DB	'of two textures not supported, loading times might increase a'
	DB	'nd video''s fps might decrease', 00H	; `string'
CONST	ENDS
;	COMDAT ??_C@_0CA@IICOLDCN@GL_ARB_texture_non_power_of_two?$AA@
CONST	SEGMENT
??_C@_0CA@IICOLDCN@GL_ARB_texture_non_power_of_two?$AA@ DB 'GL_ARB_textur'
	DB	'e_non_power_of_two', 00H			; `string'
CONST	ENDS
;	COMDAT ??_C@_0BD@MFHDJABA@Opengl?5initialized?$AA@
CONST	SEGMENT
??_C@_0BD@MFHDJABA@Opengl?5initialized?$AA@ DB 'Opengl initialized', 00H ; `string'
CONST	ENDS
;	COMDAT ??_C@_0L@GLKJCCIE@light_type?$AA@
CONST	SEGMENT
??_C@_0L@GLKJCCIE@light_type?$AA@ DB 'light_type', 00H	; `string'
CONST	ENDS
;	COMDAT ??_C@_06IKLLLDHL@normal?$AA@
CONST	SEGMENT
??_C@_06IKLLLDHL@normal?$AA@ DB 'normal', 00H		; `string'
CONST	ENDS
;	COMDAT ??_C@_05IHIGKOEO@texu3?$AA@
CONST	SEGMENT
??_C@_05IHIGKOEO@texu3?$AA@ DB 'texu3', 00H		; `string'
CONST	ENDS
;	COMDAT ??_C@_05JOJNJPAP@texu2?$AA@
CONST	SEGMENT
??_C@_05JOJNJPAP@texu2?$AA@ DB 'texu2', 00H		; `string'
CONST	ENDS
;	COMDAT ??_C@_04DBNNPNIH@texu?$AA@
CONST	SEGMENT
??_C@_04DBNNPNIH@texu?$AA@ DB 'texu', 00H		; `string'
CONST	ENDS
;	COMDAT ??_C@_0BC@FPJNDHAI@Changing?5to?5VA?4?4?4?$AA@
CONST	SEGMENT
??_C@_0BC@FPJNDHAI@Changing?5to?5VA?4?4?4?$AA@ DB 'Changing to VA...', 00H ; `string'
CONST	ENDS
;	COMDAT ??_C@_0BD@CHEFDAHK@Changing?5to?5VBO?4?4?4?$AA@
CONST	SEGMENT
??_C@_0BD@CHEFDAHK@Changing?5to?5VBO?4?4?4?$AA@ DB 'Changing to VBO...', 00H ; `string'
CONST	ENDS
;	COMDAT ??_C@_0BK@JJHKDBGE@Counld?5not?5compile?5shader?$AA@
CONST	SEGMENT
??_C@_0BK@JJHKDBGE@Counld?5not?5compile?5shader?$AA@ DB 'Counld not compi'
	DB	'le shader', 00H				; `string'
CONST	ENDS
;	COMDAT ??_C@_0O@BNBOBIPB@Shader?5?$CFd?3?5?$CFs?$AA@
CONST	SEGMENT
??_C@_0O@BNBOBIPB@Shader?5?$CFd?3?5?$CFs?$AA@ DB 'Shader %d: %s', 00H ; `string'
CONST	ENDS
;	COMDAT ??_C@_0GA@BFFFOFBB@Framebuffer?5object?5not?5support?0?5@
CONST	SEGMENT
??_C@_0GA@BFFFOFBB@Framebuffer?5object?5not?5support?0?5@ DB 'Framebuffer'
	DB	' object not support, check your video''s card driver for upda'
	DB	'tes... Usign VA instead!', 00H		; `string'
CONST	ENDS
;	COMDAT ??_C@_0BD@HLIFEONF@GL_EXT_framebuffer?$AA@
CONST	SEGMENT
??_C@_0BD@HLIFEONF@GL_EXT_framebuffer?$AA@ DB 'GL_EXT_framebuffer', 00H ; `string'
CONST	ENDS
;	COMDAT ??_C@_0DP@GKIFJBKD@Your?5video?5card?5is?5not?5adequate?5@
CONST	SEGMENT
??_C@_0DP@GKIFJBKD@Your?5video?5card?5is?5not?5adequate?5@ DB 'Your video'
	DB	' card is not adequate to play this game... Goodbye!!', 00H ; `string'
CONST	ENDS
;	COMDAT ??_C@_0BE@PFGKPDCP@GL_EXT_vertex_array?$AA@
CONST	SEGMENT
??_C@_0BE@PFGKPDCP@GL_EXT_vertex_array?$AA@ DB 'GL_EXT_vertex_array', 00H ; `string'
CONST	ENDS
;	COMDAT ??_C@_0FF@HDHKLDIO@VBOs?5not?5supported?0?5check?5your?5v@
CONST	SEGMENT
??_C@_0FF@HDHKLDIO@VBOs?5not?5supported?0?5check?5your?5v@ DB 'VBOs not s'
	DB	'upported, check your video''s card driver for updates... Usin'
	DB	'g VA instead!!', 00H			; `string'
CONST	ENDS
;	COMDAT ??_C@_0BM@OOMEFFAE@GL_ARB_vertex_buffer_object?$AA@
CONST	SEGMENT
??_C@_0BM@OOMEFFAE@GL_ARB_vertex_buffer_object?$AA@ DB 'GL_ARB_vertex_buf'
	DB	'fer_object', 00H				; `string'
CONST	ENDS
;	COMDAT ??_C@_0FD@HGLPPOCA@VAO?5not?5supported?0?5check?5your?5vi@
CONST	SEGMENT
??_C@_0FD@HGLPPOCA@VAO?5not?5supported?0?5check?5your?5vi@ DB 'VAO not su'
	DB	'pported, check your video''s card driver for updates... Using'
	DB	' VBO instead', 00H				; `string'
CONST	ENDS
;	COMDAT ??_C@_0BL@PNJKGHIL@GL_ARB_vertex_array_object?$AA@
CONST	SEGMENT
??_C@_0BL@PNJKGHIL@GL_ARB_vertex_array_object?$AA@ DB 'GL_ARB_vertex_arra'
	DB	'y_object', 00H				; `string'
CONST	ENDS
;	COMDAT ??_C@_0BH@PJDJGOFF@Opengl?5context?5created?$AA@
CONST	SEGMENT
??_C@_0BH@PJDJGOFF@Opengl?5context?5created?$AA@ DB 'Opengl context creat'
	DB	'ed', 00H					; `string'
CONST	ENDS
;	COMDAT ??_C@_0BL@JKBAOCCM@Error?5setting?5renderer?3?5?$CFs?$AA@
CONST	SEGMENT
??_C@_0BL@JKBAOCCM@Error?5setting?5renderer?3?5?$CFs?$AA@ DB 'Error setti'
	DB	'ng renderer: %s', 00H			; `string'
CONST	ENDS
;	COMDAT ??_C@_0CB@CJINDJOG@Window?5created?0?5?$CFd?5x?5?$CFd?0?5?$CFd?5bits@
CONST	SEGMENT
??_C@_0CB@CJINDJOG@Window?5created?0?5?$CFd?5x?5?$CFd?0?5?$CFd?5bits@ DB 'W'
	DB	'indow created, %d x %d, %d bits', 00H	; `string'
CONST	ENDS
;	COMDAT ??_C@_0DG@HINKMIAE@Error?5setting?5widowed?5video?5mode@
CONST	SEGMENT
??_C@_0DG@HINKMIAE@Error?5setting?5widowed?5video?5mode@ DB 'Error settin'
	DB	'g widowed video mode %d x %d %d bits - %s', 00H ; `string'
CONST	ENDS
;	COMDAT ??_C@_0DJ@GHPNMNEC@Error?5setting?5fullscreen?5video?5m@
CONST	SEGMENT
??_C@_0DJ@GHPNMNEC@Error?5setting?5fullscreen?5video?5m@ DB 'Error settin'
	DB	'g fullscreen video mode %d x %d %d bits - %s', 00H ; `string'
CONST	ENDS
;	COMDAT ??_C@_0BE@MBBIJNFJ@SDL?5TTF?5initialized?$AA@
CONST	SEGMENT
??_C@_0BE@MBBIJNFJ@SDL?5TTF?5initialized?$AA@ DB 'SDL TTF initialized', 00H ; `string'
CONST	ENDS
;	COMDAT ??_C@_0CG@LLIBEPGC@Error?5while?5initializing?5SDL?5TTF@
CONST	SEGMENT
??_C@_0CG@LLIBEPGC@Error?5while?5initializing?5SDL?5TTF@ DB 'Error while '
	DB	'initializing SDL TTF : %s', 00H		; `string'
CONST	ENDS
;	COMDAT ??_C@_0BD@DNBPCBJE@SDL?52?40?5initialzed?$AA@
CONST	SEGMENT
??_C@_0BD@DNBPCBJE@SDL?52?40?5initialzed?$AA@ DB 'SDL 2.0 initialzed', 00H ; `string'
CONST	ENDS
;	COMDAT ??_C@_0BM@HCNBMJIE@SDL?5Initilization?5failed?5?$CFs?$AA@
CONST	SEGMENT
??_C@_0BM@HCNBMJIE@SDL?5Initilization?5failed?5?$CFs?$AA@ DB 'SDL Initili'
	DB	'zation failed %s', 00H			; `string'
CONST	ENDS
;	COMDAT ??_C@_08DGBKPNED@TexLight?$AA@
CONST	SEGMENT
??_C@_08DGBKPNED@TexLight?$AA@ DB 'TexLight', 00H	; `string'
CONST	ENDS
;	COMDAT ??_C@_08NGMLKGCO@TexCoord?$AA@
CONST	SEGMENT
??_C@_08NGMLKGCO@TexCoord?$AA@ DB 'TexCoord', 00H	; `string'
CONST	ENDS
;	COMDAT ??_C@_08GCJNLIKG@Position?$AA@
CONST	SEGMENT
??_C@_08GCJNLIKG@Position?$AA@ DB 'Position', 00H	; `string'
CONST	ENDS
;	COMDAT ??_C@_05PDOBBJNA@Color?$AA@
CONST	SEGMENT
??_C@_05PDOBBJNA@Color?$AA@ DB 'Color', 00H		; `string'
CONST	ENDS
;	COMDAT ??_C@_0N@NDCMMGFF@?$CFs?5fps?3?5?$CF?42f?$AA@
CONST	SEGMENT
??_C@_0N@NDCMMGFF@?$CFs?5fps?3?5?$CF?42f?$AA@ DB '%s fps: %.2f', 00H ; `string'
CONST	ENDS
;	COMDAT ??_C@_0N@JPOOLMEG@Log?5created?6?$AA@
CONST	SEGMENT
??_C@_0N@JPOOLMEG@Log?5created?6?$AA@ DB 'Log created', 0aH, 00H ; `string'
CONST	ENDS
;	COMDAT ??_C@_0BA@BIGBPAJK@Engine?5started?6?$AA@
CONST	SEGMENT
??_C@_0BA@BIGBPAJK@Engine?5started?6?$AA@ DB 'Engine started', 0aH, 00H ; `string'
CONST	ENDS
;	COMDAT ??_C@_08PJPFOJIA@?$CFs?5?$CF?42f?6?$AA@
CONST	SEGMENT
??_C@_08PJPFOJIA@?$CFs?5?$CF?42f?6?$AA@ DB '%s %.2f', 0aH, 00H ; `string'
CONST	ENDS
;	COMDAT ??_C@_1CE@CDPPCMAP@?$AAC?$AAr?$AAe?$AAa?$AAt?$AAe?$AA?5?$AAl?$AAo?$AAg?$AA?5?$AAf?$AAa?$AAi?$AAl?$AAe?$AAd?$AA?$AA@
CONST	SEGMENT
??_C@_1CE@CDPPCMAP@?$AAC?$AAr?$AAe?$AAa?$AAt?$AAe?$AA?5?$AAl?$AAo?$AAg?$AA?5?$AAf?$AAa?$AAi?$AAl?$AAe?$AAd?$AA?$AA@ DB 'C'
	DB	00H, 'r', 00H, 'e', 00H, 'a', 00H, 't', 00H, 'e', 00H, ' ', 00H
	DB	'l', 00H, 'o', 00H, 'g', 00H, ' ', 00H, 'f', 00H, 'a', 00H, 'i'
	DB	00H, 'l', 00H, 'e', 00H, 'd', 00H, 00H, 00H	; `string'
CONST	ENDS
;	COMDAT ??_C@_01NOFIACDB@w?$AA@
CONST	SEGMENT
??_C@_01NOFIACDB@w?$AA@ DB 'w', 00H			; `string'
CONST	ENDS
;	COMDAT ??_C@_03OFAPEBGM@?$CFs?6?$AA@
CONST	SEGMENT
??_C@_03OFAPEBGM@?$CFs?6?$AA@ DB '%s', 0aH, 00H		; `string'
CONST	ENDS
;	COMDAT ??_C@_1DA@PFAEBODD@?$AAO?$AAp?$AAe?$AAn?$AAi?$AAn?$AAg?$AA?5?$AAl?$AAo?$AAg?$AA?5?$AAf?$AAi?$AAl?$AAe?$AA?5?$AAf?$AAa?$AAi?$AAl?$AAe?$AAd?$AA?$AA@
CONST	SEGMENT
??_C@_1DA@PFAEBODD@?$AAO?$AAp?$AAe?$AAn?$AAi?$AAn?$AAg?$AA?5?$AAl?$AAo?$AAg?$AA?5?$AAf?$AAi?$AAl?$AAe?$AA?5?$AAf?$AAa?$AAi?$AAl?$AAe?$AAd?$AA?$AA@ DB 'O'
	DB	00H, 'p', 00H, 'e', 00H, 'n', 00H, 'i', 00H, 'n', 00H, 'g', 00H
	DB	' ', 00H, 'l', 00H, 'o', 00H, 'g', 00H, ' ', 00H, 'f', 00H, 'i'
	DB	00H, 'l', 00H, 'e', 00H, ' ', 00H, 'f', 00H, 'a', 00H, 'i', 00H
	DB	'l', 00H, 'e', 00H, 'd', 00H, 00H, 00H	; `string'
CONST	ENDS
;	COMDAT ??_C@_09JFHIBJMD@mgear?4log?$AA@
CONST	SEGMENT
??_C@_09JFHIBJMD@mgear?4log?$AA@ DB 'mgear.log', 00H	; `string'
CONST	ENDS
;	COMDAT ??_C@_02DPNLHKJD@a?$CL?$AA@
CONST	SEGMENT
??_C@_02DPNLHKJD@a?$CL?$AA@ DB 'a+', 00H		; `string'
CONST	ENDS
;	COMDAT ??_C@_0M@ILLOCNCO@bad?5palette?$AA@
CONST	SEGMENT
??_C@_0M@ILLOCNCO@bad?5palette?$AA@ DB 'bad palette', 00H ; `string'
CONST	ENDS
;	COMDAT ??_C@_1CK@GOOINIO@?$AAt?$AAg?$AAa?$AA_?$AAc?$AAo?$AAm?$AAp?$AA?5?$AA?$DN?$AA?$DN?$AA?5?$AAS?$AAT?$AAB?$AAI?$AA_?$AAr?$AAg?$AAb?$AA?$AA@
CONST	SEGMENT
??_C@_1CK@GOOINIO@?$AAt?$AAg?$AAa?$AA_?$AAc?$AAo?$AAm?$AAp?$AA?5?$AA?$DN?$AA?$DN?$AA?5?$AAS?$AAT?$AAB?$AAI?$AA_?$AAr?$AAg?$AAb?$AA?$AA@ DB 't'
	DB	00H, 'g', 00H, 'a', 00H, '_', 00H, 'c', 00H, 'o', 00H, 'm', 00H
	DB	'p', 00H, ' ', 00H, '=', 00H, '=', 00H, ' ', 00H, 'S', 00H, 'T'
	DB	00H, 'B', 00H, 'I', 00H, '_', 00H, 'r', 00H, 'g', 00H, 'b', 00H
	DB	00H, 00H					; `string'
CONST	ENDS
;	COMDAT ?__LINE__Var@?1??stbi__tga_load@@9@9@e7b221e1
_DATA	SEGMENT
?__LINE__Var@?1??stbi__tga_load@@9@9@e7b221e1 DD 014f9H	; `stbi__tga_load'::`2'::__LINE__Var
_DATA	ENDS
;	COMDAT ??_C@_0L@DMAPJJO@bad?5format?$AA@
CONST	SEGMENT
??_C@_0L@DMAPJJO@bad?5format?$AA@ DB 'bad format', 00H	; `string'
CONST	ENDS
;	COMDAT ??_C@_09DAEBACAB@bad?5masks?$AA@
CONST	SEGMENT
??_C@_09DAEBACAB@bad?5masks?$AA@ DB 'bad masks', 00H	; `string'
CONST	ENDS
;	COMDAT ??_C@_07JNJHIMGH@bad?5bpp?$AA@
CONST	SEGMENT
??_C@_07JNJHIMGH@bad?5bpp?$AA@ DB 'bad bpp', 00H	; `string'
CONST	ENDS
;	COMDAT ??_C@_07MALOAKCI@invalid?$AA@
CONST	SEGMENT
??_C@_07MALOAKCI@invalid?$AA@ DB 'invalid', 00H		; `string'
CONST	ENDS
;	COMDAT ??_C@_07IMHMNOIB@BMP?5RLE?$AA@
CONST	SEGMENT
??_C@_07IMHMNOIB@BMP?5RLE?$AA@ DB 'BMP RLE', 00H	; `string'
CONST	ENDS
;	COMDAT ??_C@_0L@FEJFGKNE@monochrome?$AA@
CONST	SEGMENT
??_C@_0L@FEJFGKNE@monochrome?$AA@ DB 'monochrome', 00H	; `string'
CONST	ENDS
;	COMDAT ??_C@_07IEJCHBDI@bad?5BMP?$AA@
CONST	SEGMENT
??_C@_07IEJCHBDI@bad?5BMP?$AA@ DB 'bad BMP', 00H	; `string'
CONST	ENDS
;	COMDAT ??_C@_0M@KHBIBJBG@unknown?5BMP?$AA@
CONST	SEGMENT
??_C@_0M@KHBIBJBG@unknown?5BMP?$AA@ DB 'unknown BMP', 00H ; `string'
CONST	ENDS
;	COMDAT ??_C@_07IANEBNLB@not?5BMP?$AA@
CONST	SEGMENT
??_C@_07IANEBNLB@not?5BMP?$AA@ DB 'not BMP', 00H	; `string'
CONST	ENDS
;	COMDAT ??_C@_07MLPECBNA@no?5IDAT?$AA@
CONST	SEGMENT
??_C@_07MLPECBNA@no?5IDAT?$AA@ DB 'no IDAT', 00H	; `string'
CONST	ENDS
;	COMDAT ??_C@_09MNNCNKEO@outofdata?$AA@
CONST	SEGMENT
??_C@_09MNNCNKEO@outofdata?$AA@ DB 'outofdata', 00H	; `string'
CONST	ENDS
;	COMDAT ??_C@_07CKIELOEH@no?5PLTE?$AA@
CONST	SEGMENT
??_C@_07CKIELOEH@no?5PLTE?$AA@ DB 'no PLTE', 00H	; `string'
CONST	ENDS
;	COMDAT ??_C@_0BA@ENDPGCHB@tRNS?5with?5alpha?$AA@
CONST	SEGMENT
??_C@_0BA@ENDPGCHB@tRNS?5with?5alpha?$AA@ DB 'tRNS with alpha', 00H ; `string'
CONST	ENDS
;	COMDAT ??_C@_0N@KDLCCKCH@bad?5tRNS?5len?$AA@
CONST	SEGMENT
??_C@_0N@KDLCCKCH@bad?5tRNS?5len?$AA@ DB 'bad tRNS len', 00H ; `string'
CONST	ENDS
;	COMDAT ??_C@_0BB@CEDNNLBG@tRNS?5before?5PLTE?$AA@
CONST	SEGMENT
??_C@_0BB@CEDNNLBG@tRNS?5before?5PLTE?$AA@ DB 'tRNS before PLTE', 00H ; `string'
CONST	ENDS
;	COMDAT ??_C@_0BA@PCPJHDKJ@tRNS?5after?5IDAT?$AA@
CONST	SEGMENT
??_C@_0BA@PCPJHDKJ@tRNS?5after?5IDAT?$AA@ DB 'tRNS after IDAT', 00H ; `string'
CONST	ENDS
;	COMDAT ??_C@_0N@JCPAJAKB@invalid?5PLTE?$AA@
CONST	SEGMENT
??_C@_0N@JCPAJAKB@invalid?5PLTE?$AA@ DB 'invalid PLTE', 00H ; `string'
CONST	ENDS
;	COMDAT ??_C@_0P@JEAFOMAF@first?5not?5IHDR?$AA@
CONST	SEGMENT
??_C@_0P@JEAFOMAF@first?5not?5IHDR?$AA@ DB 'first not IHDR', 00H ; `string'
CONST	ENDS
;	COMDAT ??_C@_0O@FNFBHCOO@0?9pixel?5image?$AA@
CONST	SEGMENT
??_C@_0O@FNFBHCOO@0?9pixel?5image?$AA@ DB '0-pixel image', 00H ; `string'
CONST	ENDS
;	COMDAT ??_C@_0BF@JCGDPBAA@bad?5interlace?5method?$AA@
CONST	SEGMENT
??_C@_0BF@JCGDPBAA@bad?5interlace?5method?$AA@ DB 'bad interlace method', 00H ; `string'
CONST	ENDS
;	COMDAT ??_C@_0BC@GHLIKKMD@bad?5filter?5method?$AA@
CONST	SEGMENT
??_C@_0BC@GHLIKKMD@bad?5filter?5method?$AA@ DB 'bad filter method', 00H ; `string'
CONST	ENDS
;	COMDAT ??_C@_0BA@MDMBDDFG@bad?5comp?5method?$AA@
CONST	SEGMENT
??_C@_0BA@MDMBDDFG@bad?5comp?5method?$AA@ DB 'bad comp method', 00H ; `string'
CONST	ENDS
;	COMDAT ??_C@_09MBBNGCKB@bad?5ctype?$AA@
CONST	SEGMENT
??_C@_09MBBNGCKB@bad?5ctype?$AA@ DB 'bad ctype', 00H	; `string'
CONST	ENDS
;	COMDAT ??_C@_0BE@EJHIPKNO@1?12?14?18?116?9bit?5only?$AA@
CONST	SEGMENT
??_C@_0BE@EJHIPKNO@1?12?14?18?116?9bit?5only?$AA@ DB '1/2/4/8/16-bit only'
	DB	00H						; `string'
CONST	ENDS
;	COMDAT ??_C@_0N@POJLKMKK@bad?5IHDR?5len?$AA@
CONST	SEGMENT
??_C@_0N@POJLKMKK@bad?5IHDR?5len?$AA@ DB 'bad IHDR len', 00H ; `string'
CONST	ENDS
;	COMDAT ??_C@_0O@KBHBNJOK@multiple?5IHDR?$AA@
CONST	SEGMENT
??_C@_0O@KBHBNJOK@multiple?5IHDR?$AA@ DB 'multiple IHDR', 00H ; `string'
CONST	ENDS
;	COMDAT ??_C@_1CE@GKIDJEJM@?$AAs?$AA?9?$AA?$DO?$AAi?$AAm?$AAg?$AA_?$AAo?$AAu?$AAt?$AA_?$AAn?$AA?5?$AA?$DN?$AA?$DN?$AA?5?$AA4?$AA?$AA@
CONST	SEGMENT
??_C@_1CE@GKIDJEJM@?$AAs?$AA?9?$AA?$DO?$AAi?$AAm?$AAg?$AA_?$AAo?$AAu?$AAt?$AA_?$AAn?$AA?5?$AA?$DN?$AA?$DN?$AA?5?$AA4?$AA?$AA@ DB 's'
	DB	00H, '-', 00H, '>', 00H, 'i', 00H, 'm', 00H, 'g', 00H, '_', 00H
	DB	'o', 00H, 'u', 00H, 't', 00H, '_', 00H, 'n', 00H, ' ', 00H, '='
	DB	00H, '=', 00H, ' ', 00H, '4', 00H, 00H, 00H	; `string'
CONST	ENDS
;	COMDAT ?__LINE__Var@?1??stbi__de_iphone@@9@9@e7b221e1
_DATA	SEGMENT
?__LINE__Var@?1??stbi__de_iphone@@9@9@e7b221e1 DD 0121cH ; `stbi__de_iphone'::`2'::__LINE__Var
_DATA	ENDS
;	COMDAT ?__LINE__Var@?1??stbi__compute_transparency16@@9@9@e7b221e1
_DATA	SEGMENT
?__LINE__Var@?1??stbi__compute_transparency16@@9@9@e7b221e1 DD 011d1H ; `stbi__compute_transparency16'::`2'::__LINE__Var
_DATA	ENDS
;	COMDAT ??_C@_1DC@BMIDKOPK@?$AAo?$AAu?$AAt?$AA_?$AAn?$AA?5?$AA?$DN?$AA?$DN?$AA?5?$AA2?$AA?5?$AA?$HM?$AA?$HM?$AA?5?$AAo?$AAu?$AAt?$AA_?$AAn?$AA?5?$AA?$DN?$AA?$DN?$AA?5?$AA4?$AA?$AA@
CONST	SEGMENT
??_C@_1DC@BMIDKOPK@?$AAo?$AAu?$AAt?$AA_?$AAn?$AA?5?$AA?$DN?$AA?$DN?$AA?5?$AA2?$AA?5?$AA?$HM?$AA?$HM?$AA?5?$AAo?$AAu?$AAt?$AA_?$AAn?$AA?5?$AA?$DN?$AA?$DN?$AA?5?$AA4?$AA?$AA@ DB 'o'
	DB	00H, 'u', 00H, 't', 00H, '_', 00H, 'n', 00H, ' ', 00H, '=', 00H
	DB	'=', 00H, ' ', 00H, '2', 00H, ' ', 00H, '|', 00H, '|', 00H, ' '
	DB	00H, 'o', 00H, 'u', 00H, 't', 00H, '_', 00H, 'n', 00H, ' ', 00H
	DB	'=', 00H, '=', 00H, ' ', 00H, '4', 00H, 00H, 00H ; `string'
CONST	ENDS
;	COMDAT ?__LINE__Var@?1??stbi__compute_transparency@@9@9@e7b221e1
_DATA	SEGMENT
?__LINE__Var@?1??stbi__compute_transparency@@9@9@e7b221e1 DD 011b8H ; `stbi__compute_transparency'::`2'::__LINE__Var
_DATA	ENDS
;	COMDAT ??_C@_1BG@FLOPDKAN@?$AAi?$AAm?$AAg?$AA_?$AAn?$AA?5?$AA?$DN?$AA?$DN?$AA?5?$AA3?$AA?$AA@
CONST	SEGMENT
??_C@_1BG@FLOPDKAN@?$AAi?$AAm?$AAg?$AA_?$AAn?$AA?5?$AA?$DN?$AA?$DN?$AA?5?$AA3?$AA?$AA@ DB 'i'
	DB	00H, 'm', 00H, 'g', 00H, '_', 00H, 'n', 00H, ' ', 00H, '=', 00H
	DB	'=', 00H, ' ', 00H, '3', 00H, 00H, 00H	; `string'
CONST	ENDS
;	COMDAT ??_C@_1CC@CPJBBDGC@?$AAi?$AAm?$AAg?$AA_?$AAn?$AA?$CL?$AA1?$AA?5?$AA?$DN?$AA?$DN?$AA?5?$AAo?$AAu?$AAt?$AA_?$AAn?$AA?$AA@
CONST	SEGMENT
??_C@_1CC@CPJBBDGC@?$AAi?$AAm?$AAg?$AA_?$AAn?$AA?$CL?$AA1?$AA?5?$AA?$DN?$AA?$DN?$AA?5?$AAo?$AAu?$AAt?$AA_?$AAn?$AA?$AA@ DB 'i'
	DB	00H, 'm', 00H, 'g', 00H, '_', 00H, 'n', 00H, '+', 00H, '1', 00H
	DB	' ', 00H, '=', 00H, '=', 00H, ' ', 00H, 'o', 00H, 'u', 00H, 't'
	DB	00H, '_', 00H, 'n', 00H, 00H, 00H		; `string'
CONST	ENDS
;	COMDAT ??_C@_1CK@EJKIMPDL@?$AAi?$AAm?$AAg?$AA_?$AAw?$AAi?$AAd?$AAt?$AAh?$AA_?$AAb?$AAy?$AAt?$AAe?$AAs?$AA?5?$AA?$DM?$AA?$DN?$AA?5?$AAx?$AA?$AA@
CONST	SEGMENT
??_C@_1CK@EJKIMPDL@?$AAi?$AAm?$AAg?$AA_?$AAw?$AAi?$AAd?$AAt?$AAh?$AA_?$AAb?$AAy?$AAt?$AAe?$AAs?$AA?5?$AA?$DM?$AA?$DN?$AA?5?$AAx?$AA?$AA@ DB 'i'
	DB	00H, 'm', 00H, 'g', 00H, '_', 00H, 'w', 00H, 'i', 00H, 'd', 00H
	DB	't', 00H, 'h', 00H, '_', 00H, 'b', 00H, 'y', 00H, 't', 00H, 'e'
	DB	00H, 's', 00H, ' ', 00H, '<', 00H, '=', 00H, ' ', 00H, 'x', 00H
	DB	00H, 00H					; `string'
CONST	ENDS
;	COMDAT ??_C@_0P@FBBCPGMN@invalid?5filter?$AA@
CONST	SEGMENT
??_C@_0P@FBBCPGMN@invalid?5filter?$AA@ DB 'invalid filter', 00H ; `string'
CONST	ENDS
;	COMDAT ??_C@_0BC@BHMPBBMG@not?5enough?5pixels?$AA@
CONST	SEGMENT
??_C@_0BC@BHMPBBMG@not?5enough?5pixels?$AA@ DB 'not enough pixels', 00H ; `string'
CONST	ENDS
;	COMDAT ??_C@_1FC@ICDHLHK@?$AAo?$AAu?$AAt?$AA_?$AAn?$AA?5?$AA?$DN?$AA?$DN?$AA?5?$AAs?$AA?9?$AA?$DO?$AAi?$AAm?$AAg?$AA_?$AAn?$AA?5?$AA?$HM?$AA?$HM?$AA?5?$AAo?$AAu?$AAt?$AA_?$AAn?$AA?5?$AA?$DN?$AA?$DN?$AA?5?$AAs?$AA?9@
CONST	SEGMENT
??_C@_1FC@ICDHLHK@?$AAo?$AAu?$AAt?$AA_?$AAn?$AA?5?$AA?$DN?$AA?$DN?$AA?5?$AAs?$AA?9?$AA?$DO?$AAi?$AAm?$AAg?$AA_?$AAn?$AA?5?$AA?$HM?$AA?$HM?$AA?5?$AAo?$AAu?$AAt?$AA_?$AAn?$AA?5?$AA?$DN?$AA?$DN?$AA?5?$AAs?$AA?9@ DB 'o'
	DB	00H, 'u', 00H, 't', 00H, '_', 00H, 'n', 00H, ' ', 00H, '=', 00H
	DB	'=', 00H, ' ', 00H, 's', 00H, '-', 00H, '>', 00H, 'i', 00H, 'm'
	DB	00H, 'g', 00H, '_', 00H, 'n', 00H, ' ', 00H, '|', 00H, '|', 00H
	DB	' ', 00H, 'o', 00H, 'u', 00H, 't', 00H, '_', 00H, 'n', 00H, ' '
	DB	00H, '=', 00H, '=', 00H, ' ', 00H, 's', 00H, '-', 00H, '>', 00H
	DB	'i', 00H, 'm', 00H, 'g', 00H, '_', 00H, 'n', 00H, '+', 00H, '1'
	DB	00H, 00H, 00H				; `string'
CONST	ENDS
;	COMDAT ?__LINE__Var@?1??stbi__create_png_image_raw@@9@9@e7b221e1
_DATA	SEGMENT
?__LINE__Var@?1??stbi__create_png_image_raw@@9@9@e7b221e1 DD 010baH ; `stbi__create_png_image_raw'::`2'::__LINE__Var
_DATA	ENDS
;	COMDAT ??_C@_0M@DMDNBACF@bad?5png?5sig?$AA@
CONST	SEGMENT
??_C@_0M@DMDNBACF@bad?5png?5sig?$AA@ DB 'bad png sig', 00H ; `string'
CONST	ENDS
;	COMDAT ??_C@_0BA@MCNBDLPD@bad?5compression?$AA@
CONST	SEGMENT
??_C@_0BA@MCNBDLPD@bad?5compression?$AA@ DB 'bad compression', 00H ; `string'
CONST	ENDS
;	COMDAT ??_C@_0P@DOGMHEBI@no?5preset?5dict?$AA@
CONST	SEGMENT
??_C@_0P@DOGMHEBI@no?5preset?5dict?$AA@ DB 'no preset dict', 00H ; `string'
CONST	ENDS
;	COMDAT ??_C@_0BA@OBKOPAFL@bad?5zlib?5header?$AA@
CONST	SEGMENT
??_C@_0BA@OBKOPAFL@bad?5zlib?5header?$AA@ DB 'bad zlib header', 00H ; `string'
CONST	ENDS
;	COMDAT ??_C@_0BB@PIPBCKIA@read?5past?5buffer?$AA@
CONST	SEGMENT
??_C@_0BB@PIPBCKIA@read?5past?5buffer?$AA@ DB 'read past buffer', 00H ; `string'
CONST	ENDS
;	COMDAT ??_C@_0N@IECDHMDI@zlib?5corrupt?$AA@
CONST	SEGMENT
??_C@_0N@IECDHMDI@zlib?5corrupt?$AA@ DB 'zlib corrupt', 00H ; `string'
CONST	ENDS
;	COMDAT ??_C@_1CC@BHGGCLFF@?$AAa?$AA?9?$AA?$DO?$AAn?$AAu?$AAm?$AA_?$AAb?$AAi?$AAt?$AAs?$AA?5?$AA?$DN?$AA?$DN?$AA?5?$AA0?$AA?$AA@
CONST	SEGMENT
??_C@_1CC@BHGGCLFF@?$AAa?$AA?9?$AA?$DO?$AAn?$AAu?$AAm?$AA_?$AAb?$AAi?$AAt?$AAs?$AA?5?$AA?$DN?$AA?$DN?$AA?5?$AA0?$AA?$AA@ DB 'a'
	DB	00H, '-', 00H, '>', 00H, 'n', 00H, 'u', 00H, 'm', 00H, '_', 00H
	DB	'b', 00H, 'i', 00H, 't', 00H, 's', 00H, ' ', 00H, '=', 00H, '='
	DB	00H, ' ', 00H, '0', 00H, 00H, 00H		; `string'
CONST	ENDS
;	COMDAT ?__LINE__Var@?1??stbi__parse_uncompressed_block@@9@9@e7b221e1
_DATA	SEGMENT
?__LINE__Var@?1??stbi__parse_uncompressed_block@@9@9@e7b221e1 DD 0fb5H ; `stbi__parse_uncompressed_block'::`2'::__LINE__Var
_DATA	ENDS
;	COMDAT ??_C@_1BA@NKONKNHF@?$AAc?$AA?5?$AA?$DN?$AA?$DN?$AA?5?$AA1?$AA8?$AA?$AA@
CONST	SEGMENT
??_C@_1BA@NKONKNHF@?$AAc?$AA?5?$AA?$DN?$AA?$DN?$AA?5?$AA1?$AA8?$AA?$AA@ DB 'c'
	DB	00H, ' ', 00H, '=', 00H, '=', 00H, ' ', 00H, '1', 00H, '8', 00H
	DB	00H, 00H					; `string'
CONST	ENDS
;	COMDAT ?__LINE__Var@?1??stbi__compute_huffman_codes@@9@9@e7b221e1
_DATA	SEGMENT
?__LINE__Var@?1??stbi__compute_huffman_codes@@9@9@e7b221e1 DD 0f84H ; `stbi__compute_huffman_codes'::`2'::__LINE__Var
_DATA	ENDS
;	COMDAT ??_C@_08DIAPIMGJ@bad?5dist?$AA@
CONST	SEGMENT
??_C@_08DIAPIMGJ@bad?5dist?$AA@ DB 'bad dist', 00H	; `string'
CONST	ENDS
;	COMDAT ??_C@_0BE@IBFIPFO@output?5buffer?5limit?$AA@
CONST	SEGMENT
??_C@_0BE@IBFIPFO@output?5buffer?5limit?$AA@ DB 'output buffer limit', 00H ; `string'
CONST	ENDS
;	COMDAT ??_C@_1CA@BMLMNMFI@?$AAz?$AA?9?$AA?$DO?$AAs?$AAi?$AAz?$AAe?$AA?$FL?$AAb?$AA?$FN?$AA?5?$AA?$DN?$AA?$DN?$AA?5?$AAs?$AA?$AA@
CONST	SEGMENT
??_C@_1CA@BMLMNMFI@?$AAz?$AA?9?$AA?$DO?$AAs?$AAi?$AAz?$AAe?$AA?$FL?$AAb?$AA?$FN?$AA?5?$AA?$DN?$AA?$DN?$AA?5?$AAs?$AA?$AA@ DB 'z'
	DB	00H, '-', 00H, '>', 00H, 's', 00H, 'i', 00H, 'z', 00H, 'e', 00H
	DB	'[', 00H, 'b', 00H, ']', 00H, ' ', 00H, '=', 00H, '=', 00H, ' '
	DB	00H, 's', 00H, 00H, 00H			; `string'
CONST	ENDS
;	COMDAT ?__LINE__Var@?1??stbi__zhuffman_decode_slowpath@@9@9@e7b221e1
_DATA	SEGMENT
?__LINE__Var@?1??stbi__zhuffman_decode_slowpath@@9@9@e7b221e1 DD 0f19H ; `stbi__zhuffman_decode_slowpath'::`2'::__LINE__Var
_DATA	ENDS
;	COMDAT ??_C@_1EK@GAHNONBJ@?$AAz?$AA?9?$AA?$DO?$AAc?$AAo?$AAd?$AAe?$AA_?$AAb?$AAu?$AAf?$AAf?$AAe?$AAr?$AA?5?$AA?$DM?$AA?5?$AA?$CI?$AA1?$AAU?$AA?5?$AA?$DM?$AA?$DM?$AA?5?$AAz?$AA?9?$AA?$DO?$AAn?$AAu?$AAm?$AA_?$AAb@
CONST	SEGMENT
??_C@_1EK@GAHNONBJ@?$AAz?$AA?9?$AA?$DO?$AAc?$AAo?$AAd?$AAe?$AA_?$AAb?$AAu?$AAf?$AAf?$AAe?$AAr?$AA?5?$AA?$DM?$AA?5?$AA?$CI?$AA1?$AAU?$AA?5?$AA?$DM?$AA?$DM?$AA?5?$AAz?$AA?9?$AA?$DO?$AAn?$AAu?$AAm?$AA_?$AAb@ DB 'z'
	DB	00H, '-', 00H, '>', 00H, 'c', 00H, 'o', 00H, 'd', 00H, 'e', 00H
	DB	'_', 00H, 'b', 00H, 'u', 00H, 'f', 00H, 'f', 00H, 'e', 00H, 'r'
	DB	00H, ' ', 00H, '<', 00H, ' ', 00H, '(', 00H, '1', 00H, 'U', 00H
	DB	' ', 00H, '<', 00H, '<', 00H, ' ', 00H, 'z', 00H, '-', 00H, '>'
	DB	00H, 'n', 00H, 'u', 00H, 'm', 00H, '_', 00H, 'b', 00H, 'i', 00H
	DB	't', 00H, 's', 00H, ')', 00H, 00H, 00H	; `string'
CONST	ENDS
;	COMDAT ?__LINE__Var@?1??stbi__fill_bits@@9@9@e7b221e1
_DATA	SEGMENT
?__LINE__Var@?1??stbi__fill_bits@@9@9@e7b221e1 DD 0f06H	; `stbi__fill_bits'::`2'::__LINE__Var
_DATA	ENDS
;	COMDAT ??_C@_0BA@MDNKOBMC@bad?5codelengths?$AA@
CONST	SEGMENT
??_C@_0BA@MDNKOBMC@bad?5codelengths?$AA@ DB 'bad codelengths', 00H ; `string'
CONST	ENDS
;	COMDAT ??_C@_09EOHLEIKL@bad?5sizes?$AA@
CONST	SEGMENT
??_C@_09EOHLEIKL@bad?5sizes?$AA@ DB 'bad sizes', 00H	; `string'
CONST	ENDS
;	COMDAT ??_C@_1BG@HKNLHECB@?$AAb?$AAi?$AAt?$AAs?$AA?5?$AA?$DM?$AA?$DN?$AA?5?$AA1?$AA6?$AA?$AA@
CONST	SEGMENT
??_C@_1BG@HKNLHECB@?$AAb?$AAi?$AAt?$AAs?$AA?5?$AA?$DM?$AA?$DN?$AA?5?$AA1?$AA6?$AA?$AA@ DB 'b'
	DB	00H, 'i', 00H, 't', 00H, 's', 00H, ' ', 00H, '<', 00H, '=', 00H
	DB	' ', 00H, '1', 00H, '6', 00H, 00H, 00H	; `string'
CONST	ENDS
;	COMDAT ?__LINE__Var@?1??stbi__bit_reverse@@9@9@e7b221e1
_DATA	SEGMENT
?__LINE__Var@?1??stbi__bit_reverse@@9@9@e7b221e1 DD 0eb5H ; `stbi__bit_reverse'::`2'::__LINE__Var
_DATA	ENDS
;	COMDAT ??_C@_0N@KBPNPPBJ@bad?5req_comp?$AA@
CONST	SEGMENT
??_C@_0N@KBPNPPBJ@bad?5req_comp?$AA@ DB 'bad req_comp', 00H ; `string'
CONST	ENDS
;	COMDAT ??_C@_0P@PNCLKCLJ@bad?5DNL?5height?$AA@
CONST	SEGMENT
??_C@_0P@PNCLKCLJ@bad?5DNL?5height?$AA@ DB 'bad DNL height', 00H ; `string'
CONST	ENDS
;	COMDAT ??_C@_0M@EPMOIECP@bad?5DNL?5len?$AA@
CONST	SEGMENT
??_C@_0M@EPMOIECP@bad?5DNL?5len?$AA@ DB 'bad DNL len', 00H ; `string'
CONST	ENDS
;	COMDAT ??_C@_06IFCEAHIA@no?5SOF?$AA@
CONST	SEGMENT
??_C@_06IFCEAHIA@no?5SOF?$AA@ DB 'no SOF', 00H		; `string'
CONST	ENDS
;	COMDAT ??_C@_06CLMBLEP@no?5SOI?$AA@
CONST	SEGMENT
??_C@_06CLMBLEP@no?5SOI?$AA@ DB 'no SOI', 00H		; `string'
CONST	ENDS
;	COMDAT ??_C@_09OJDLMMBJ@too?5large?$AA@
CONST	SEGMENT
??_C@_09OJDLMMBJ@too?5large?$AA@ DB 'too large', 00H	; `string'
CONST	ENDS
;	COMDAT ??_C@_06LJIHDFHI@bad?5TQ?$AA@
CONST	SEGMENT
??_C@_06LJIHDFHI@bad?5TQ?$AA@ DB 'bad TQ', 00H		; `string'
CONST	ENDS
;	COMDAT ??_C@_05MPLLHCJG@bad?5V?$AA@
CONST	SEGMENT
??_C@_05MPLLHCJG@bad?5V?$AA@ DB 'bad V', 00H		; `string'
CONST	ENDS
;	COMDAT ??_C@_05BLPKENEJ@bad?5H?$AA@
CONST	SEGMENT
??_C@_05BLPKENEJ@bad?5H?$AA@ DB 'bad H', 00H		; `string'
CONST	ENDS
;	COMDAT ??_C@_0BE@DAPHADHL@bad?5component?5count?$AA@
CONST	SEGMENT
??_C@_0BE@DAPHADHL@bad?5component?5count?$AA@ DB 'bad component count', 00H ; `string'
CONST	ENDS
;	COMDAT ??_C@_07BIDACDEF@0?5width?$AA@
CONST	SEGMENT
??_C@_07BIDACDEF@0?5width?$AA@ DB '0 width', 00H	; `string'
CONST	ENDS
;	COMDAT ??_C@_0BB@LNEGOMA@no?5header?5height?$AA@
CONST	SEGMENT
??_C@_0BB@LNEGOMA@no?5header?5height?$AA@ DB 'no header height', 00H ; `string'
CONST	ENDS
;	COMDAT ??_C@_0L@BCINMEBJ@only?58?9bit?$AA@
CONST	SEGMENT
??_C@_0L@BCINMEBJ@only?58?9bit?$AA@ DB 'only 8-bit', 00H ; `string'
CONST	ENDS
;	COMDAT ??_C@_0M@DOFMJEMP@bad?5SOF?5len?$AA@
CONST	SEGMENT
??_C@_0M@DOFMJEMP@bad?5SOF?5len?$AA@ DB 'bad SOF len', 00H ; `string'
CONST	ENDS
;	COMDAT ??_C@_07EEJOMGGP@bad?5SOS?$AA@
CONST	SEGMENT
??_C@_07EEJOMGGP@bad?5SOS?$AA@ DB 'bad SOS', 00H	; `string'
CONST	ENDS
;	COMDAT ??_C@_0M@JGMCBLGG@bad?5AC?5huff?$AA@
CONST	SEGMENT
??_C@_0M@JGMCBLGG@bad?5AC?5huff?$AA@ DB 'bad AC huff', 00H ; `string'
CONST	ENDS
;	COMDAT ??_C@_0M@NOCCBFAC@bad?5DC?5huff?$AA@
CONST	SEGMENT
??_C@_0M@NOCCBFAC@bad?5DC?5huff?$AA@ DB 'bad DC huff', 00H ; `string'
CONST	ENDS
;	COMDAT ??_C@_0M@GNEHAHOH@bad?5SOS?5len?$AA@
CONST	SEGMENT
??_C@_0M@GNEHAHOH@bad?5SOS?5len?$AA@ DB 'bad SOS len', 00H ; `string'
CONST	ENDS
;	COMDAT ??_C@_0BI@DHFJCMBA@bad?5SOS?5component?5count?$AA@
CONST	SEGMENT
??_C@_0BI@DHFJCMBA@bad?5SOS?5component?5count?$AA@ DB 'bad SOS component '
	DB	'count', 00H					; `string'
CONST	ENDS
;	COMDAT ??_C@_0P@NNGPHMMK@unknown?5marker?$AA@
CONST	SEGMENT
??_C@_0P@NNGPHMMK@unknown?5marker?$AA@ DB 'unknown marker', 00H ; `string'
CONST	ENDS
;	COMDAT ??_C@_0M@EENLKPDI@bad?5APP?5len?$AA@
CONST	SEGMENT
??_C@_0M@EENLKPDI@bad?5APP?5len?$AA@ DB 'bad APP len', 00H ; `string'
CONST	ENDS
;	COMDAT ??_C@_0M@CICAFFCH@bad?5COM?5len?$AA@
CONST	SEGMENT
??_C@_0M@CICAFFCH@bad?5COM?5len?$AA@ DB 'bad COM len', 00H ; `string'
CONST	ENDS
;	COMDAT ??_C@_0P@JLGKOCGN@bad?5DHT?5header?$AA@
CONST	SEGMENT
??_C@_0P@JLGKOCGN@bad?5DHT?5header?$AA@ DB 'bad DHT header', 00H ; `string'
CONST	ENDS
;	COMDAT ??_C@_0O@CNHKKDIM@bad?5DQT?5table?$AA@
CONST	SEGMENT
??_C@_0O@CNHKKDIM@bad?5DQT?5table?$AA@ DB 'bad DQT table', 00H ; `string'
CONST	ENDS
;	COMDAT ??_C@_0N@BOFJCHAP@bad?5DQT?5type?$AA@
CONST	SEGMENT
??_C@_0N@BOFJCHAP@bad?5DQT?5type?$AA@ DB 'bad DQT type', 00H ; `string'
CONST	ENDS
;	COMDAT ??_C@_0M@LPHNODCG@bad?5DRI?5len?$AA@
CONST	SEGMENT
??_C@_0M@LPHNODCG@bad?5DRI?5len?$AA@ DB 'bad DRI len', 00H ; `string'
CONST	ENDS
;	COMDAT ??_C@_0BA@KLNDOKJD@expected?5marker?$AA@
CONST	SEGMENT
??_C@_0BA@KLNDOKJD@expected?5marker?$AA@ DB 'expected marker', 00H ; `string'
CONST	ENDS
;	COMDAT ??_C@_0BG@PJBJDAGM@can?8t?5merge?5dc?5and?5ac?$AA@
CONST	SEGMENT
??_C@_0BG@PJBJDAGM@can?8t?5merge?5dc?5and?5ac?$AA@ DB 'can''t merge dc an'
	DB	'd ac', 00H					; `string'
CONST	ENDS
;	COMDAT ??_C@_0BB@IIMLINA@bad?5huffman?5code?$AA@
CONST	SEGMENT
??_C@_0BB@IIMLINA@bad?5huffman?5code?$AA@ DB 'bad huffman code', 00H ; `string'
CONST	ENDS
;	COMDAT ??_C@_1HO@LDGMAAKB@?$AAn?$AA?5?$AA?$DO?$AA?$DN?$AA?5?$AA0?$AA?5?$AA?$CG?$AA?$CG?$AA?5?$AAn?$AA?5?$AA?$DM?$AA?5?$AA?$CI?$AAi?$AAn?$AAt?$AA?$CJ?$AA?5?$AA?$CI?$AAs?$AAi?$AAz?$AAe?$AAo?$AAf?$AA?$CI?$AAs?$AAt?$AAb?$AAi@
CONST	SEGMENT
??_C@_1HO@LDGMAAKB@?$AAn?$AA?5?$AA?$DO?$AA?$DN?$AA?5?$AA0?$AA?5?$AA?$CG?$AA?$CG?$AA?5?$AAn?$AA?5?$AA?$DM?$AA?5?$AA?$CI?$AAi?$AAn?$AAt?$AA?$CJ?$AA?5?$AA?$CI?$AAs?$AAi?$AAz?$AAe?$AAo?$AAf?$AA?$CI?$AAs?$AAt?$AAb?$AAi@ DB 'n'
	DB	00H, ' ', 00H, '>', 00H, '=', 00H, ' ', 00H, '0', 00H, ' ', 00H
	DB	'&', 00H, '&', 00H, ' ', 00H, 'n', 00H, ' ', 00H, '<', 00H, ' '
	DB	00H, '(', 00H, 'i', 00H, 'n', 00H, 't', 00H, ')', 00H, ' ', 00H
	DB	'(', 00H, 's', 00H, 'i', 00H, 'z', 00H, 'e', 00H, 'o', 00H, 'f'
	DB	00H, '(', 00H, 's', 00H, 't', 00H, 'b', 00H, 'i', 00H, '_', 00H
	DB	'_', 00H, 'b', 00H, 'm', 00H, 'a', 00H, 's', 00H, 'k', 00H, ')'
	DB	00H, '/', 00H, 's', 00H, 'i', 00H, 'z', 00H, 'e', 00H, 'o', 00H
	DB	'f', 00H, '(', 00H, '*', 00H, 's', 00H, 't', 00H, 'b', 00H, 'i'
	DB	00H, '_', 00H, '_', 00H, 'b', 00H, 'm', 00H, 'a', 00H, 's', 00H
	DB	'k', 00H, ')', 00H, ')', 00H, 00H, 00H	; `string'
CONST	ENDS
;	COMDAT ?__LINE__Var@?1??stbi__extend_receive@@9@9@e7b221e1
_DATA	SEGMENT
?__LINE__Var@?1??stbi__extend_receive@@9@9@e7b221e1 DD 073bH ; `stbi__extend_receive'::`2'::__LINE__Var
_DATA	ENDS
;	COMDAT ??_C@_1KE@JGKPJEBO@?$AA?$CI?$AA?$CI?$AA?$CI?$AAj?$AA?9?$AA?$DO?$AAc?$AAo?$AAd?$AAe?$AA_?$AAb?$AAu?$AAf?$AAf?$AAe?$AAr?$AA?$CJ?$AA?5?$AA?$DO?$AA?$DO?$AA?5?$AA?$CI?$AA3?$AA2?$AA?5?$AA?9?$AA?5?$AAh?$AA?9?$AA?$DO?$AAs@
CONST	SEGMENT
??_C@_1KE@JGKPJEBO@?$AA?$CI?$AA?$CI?$AA?$CI?$AAj?$AA?9?$AA?$DO?$AAc?$AAo?$AAd?$AAe?$AA_?$AAb?$AAu?$AAf?$AAf?$AAe?$AAr?$AA?$CJ?$AA?5?$AA?$DO?$AA?$DO?$AA?5?$AA?$CI?$AA3?$AA2?$AA?5?$AA?9?$AA?5?$AAh?$AA?9?$AA?$DO?$AAs@ DB '('
	DB	00H, '(', 00H, '(', 00H, 'j', 00H, '-', 00H, '>', 00H, 'c', 00H
	DB	'o', 00H, 'd', 00H, 'e', 00H, '_', 00H, 'b', 00H, 'u', 00H, 'f'
	DB	00H, 'f', 00H, 'e', 00H, 'r', 00H, ')', 00H, ' ', 00H, '>', 00H
	DB	'>', 00H, ' ', 00H, '(', 00H, '3', 00H, '2', 00H, ' ', 00H, '-'
	DB	00H, ' ', 00H, 'h', 00H, '-', 00H, '>', 00H, 's', 00H, 'i', 00H
	DB	'z', 00H, 'e', 00H, '[', 00H, 'c', 00H, ']', 00H, ')', 00H, ')'
	DB	00H, ' ', 00H, '&', 00H, ' ', 00H, 's', 00H, 't', 00H, 'b', 00H
	DB	'i', 00H, '_', 00H, '_', 00H, 'b', 00H, 'm', 00H, 'a', 00H, 's'
	DB	00H, 'k', 00H, '[', 00H, 'h', 00H, '-', 00H, '>', 00H, 's', 00H
	DB	'i', 00H, 'z', 00H, 'e', 00H, '[', 00H, 'c', 00H, ']', 00H, ']'
	DB	00H, ')', 00H, ' ', 00H, '=', 00H, '=', 00H, ' ', 00H, 'h', 00H
	DB	'-', 00H, '>', 00H, 'c', 00H, 'o', 00H, 'd', 00H, 'e', 00H, '['
	DB	00H, 'c', 00H, ']', 00H, 00H, 00H		; `string'
CONST	ENDS
;	COMDAT ?__LINE__Var@?1??stbi__jpeg_huff_decode@@9@9@e7b221e1
_DATA	SEGMENT
?__LINE__Var@?1??stbi__jpeg_huff_decode@@9@9@e7b221e1 DD 0705H ; `stbi__jpeg_huff_decode'::`2'::__LINE__Var
_DATA	ENDS
;	COMDAT ??_C@_0BB@FOKGPEKG@bad?5code?5lengths?$AA@
CONST	SEGMENT
??_C@_0BB@FOKGPEKG@bad?5code?5lengths?$AA@ DB 'bad code lengths', 00H ; `string'
CONST	ENDS
;	COMDAT ?__LINE__Var@?1??stbi__convert_format16@@9@9@e7b221e1
_DATA	SEGMENT
?__LINE__Var@?1??stbi__convert_format16@@9@9@e7b221e1 DD 05f1H ; `stbi__convert_format16'::`2'::__LINE__Var
_DATA	ENDS
;	COMDAT ??_C@_13COJANIEC@?$AA0?$AA?$AA@
CONST	SEGMENT
??_C@_13COJANIEC@?$AA0?$AA?$AA@ DB '0', 00H, 00H, 00H	; `string'
CONST	ENDS
;	COMDAT ??_C@_1DO@MABJBNAJ@?$AAr?$AAe?$AAq?$AA_?$AAc?$AAo?$AAm?$AAp?$AA?5?$AA?$DO?$AA?$DN?$AA?5?$AA1?$AA?5?$AA?$CG?$AA?$CG?$AA?5?$AAr?$AAe?$AAq?$AA_?$AAc?$AAo?$AAm?$AAp?$AA?5?$AA?$DM?$AA?$DN?$AA?5?$AA4?$AA?$AA@
CONST	SEGMENT
??_C@_1DO@MABJBNAJ@?$AAr?$AAe?$AAq?$AA_?$AAc?$AAo?$AAm?$AAp?$AA?5?$AA?$DO?$AA?$DN?$AA?5?$AA1?$AA?5?$AA?$CG?$AA?$CG?$AA?5?$AAr?$AAe?$AAq?$AA_?$AAc?$AAo?$AAm?$AAp?$AA?5?$AA?$DM?$AA?$DN?$AA?5?$AA4?$AA?$AA@ DB 'r'
	DB	00H, 'e', 00H, 'q', 00H, '_', 00H, 'c', 00H, 'o', 00H, 'm', 00H
	DB	'p', 00H, ' ', 00H, '>', 00H, '=', 00H, ' ', 00H, '1', 00H, ' '
	DB	00H, '&', 00H, '&', 00H, ' ', 00H, 'r', 00H, 'e', 00H, 'q', 00H
	DB	'_', 00H, 'c', 00H, 'o', 00H, 'm', 00H, 'p', 00H, ' ', 00H, '<'
	DB	00H, '=', 00H, ' ', 00H, '4', 00H, 00H, 00H	; `string'
CONST	ENDS
;	COMDAT ?__LINE__Var@?1??stbi__convert_format@@9@9@e7b221e1
_DATA	SEGMENT
?__LINE__Var@?1??stbi__convert_format@@9@9@e7b221e1 DD 05c0H ; `stbi__convert_format'::`2'::__LINE__Var
_DATA	ENDS
;	COMDAT ??_C@_0M@JPDHFAGK@can?8t?5fopen?$AA@
CONST	SEGMENT
??_C@_0M@JPDHFAGK@can?8t?5fopen?$AA@ DB 'can''t fopen', 00H ; `string'
CONST	ENDS
;	COMDAT ??_C@_02JDPG@rb?$AA@
CONST	SEGMENT
??_C@_02JDPG@rb?$AA@ DB 'rb', 00H			; `string'
CONST	ENDS
;	COMDAT ??_C@_1DC@NDPEGMEG@?$AAr?$AAi?$AA?4?$AAb?$AAi?$AAt?$AAs?$AA_?$AAp?$AAe?$AAr?$AA_?$AAc?$AAh?$AAa?$AAn?$AAn?$AAe?$AAl?$AA?5?$AA?$DN?$AA?$DN?$AA?5?$AA8?$AA?$AA@
CONST	SEGMENT
??_C@_1DC@NDPEGMEG@?$AAr?$AAi?$AA?4?$AAb?$AAi?$AAt?$AAs?$AA_?$AAp?$AAe?$AAr?$AA_?$AAc?$AAh?$AAa?$AAn?$AAn?$AAe?$AAl?$AA?5?$AA?$DN?$AA?$DN?$AA?5?$AA8?$AA?$AA@ DB 'r'
	DB	00H, 'i', 00H, '.', 00H, 'b', 00H, 'i', 00H, 't', 00H, 's', 00H
	DB	'_', 00H, 'p', 00H, 'e', 00H, 'r', 00H, '_', 00H, 'c', 00H, 'h'
	DB	00H, 'a', 00H, 'n', 00H, 'n', 00H, 'e', 00H, 'l', 00H, ' ', 00H
	DB	'=', 00H, '=', 00H, ' ', 00H, '8', 00H, 00H, 00H ; `string'
CONST	ENDS
;	COMDAT ?__LINE__Var@?1??stbi__load_and_postprocess_16bit@@9@9@e7b221e1
_DATA	SEGMENT
?__LINE__Var@?1??stbi__load_and_postprocess_16bit@@9@9@e7b221e1 DD 043aH ; `stbi__load_and_postprocess_16bit'::`2'::__LINE__Var
_DATA	ENDS
;	COMDAT ??_C@_1DE@BAGIOALB@?$AAr?$AAi?$AA?4?$AAb?$AAi?$AAt?$AAs?$AA_?$AAp?$AAe?$AAr?$AA_?$AAc?$AAh?$AAa?$AAn?$AAn?$AAe?$AAl?$AA?5?$AA?$DN?$AA?$DN?$AA?5?$AA1?$AA6?$AA?$AA@
CONST	SEGMENT
??_C@_1DE@BAGIOALB@?$AAr?$AAi?$AA?4?$AAb?$AAi?$AAt?$AAs?$AA_?$AAp?$AAe?$AAr?$AA_?$AAc?$AAh?$AAa?$AAn?$AAn?$AAe?$AAl?$AA?5?$AA?$DN?$AA?$DN?$AA?5?$AA1?$AA6?$AA?$AA@ DB 'r'
	DB	00H, 'i', 00H, '.', 00H, 'b', 00H, 'i', 00H, 't', 00H, 's', 00H
	DB	'_', 00H, 'p', 00H, 'e', 00H, 'r', 00H, '_', 00H, 'c', 00H, 'h'
	DB	00H, 'a', 00H, 'n', 00H, 'n', 00H, 'e', 00H, 'l', 00H, ' ', 00H
	DB	'=', 00H, '=', 00H, ' ', 00H, '1', 00H, '6', 00H, 00H, 00H ; `string'
CONST	ENDS
;	COMDAT ??_C@_1HC@LCAFOEHA@?$AAc?$AA?3?$AA?2?$AAu?$AAs?$AAe?$AAr?$AAs?$AA?2?$AAm?$AAa?$AAr?$AAc?$AAo?$AAs?$AA?2?$AAd?$AAe?$AAs?$AAk?$AAt?$AAo?$AAp?$AA?2?$AAp?$AAr?$AAj?$AA?2?$AAm?$AAg?$AAe?$AAa@
CONST	SEGMENT
??_C@_1HC@LCAFOEHA@?$AAc?$AA?3?$AA?2?$AAu?$AAs?$AAe?$AAr?$AAs?$AA?2?$AAm?$AAa?$AAr?$AAc?$AAo?$AAs?$AA?2?$AAd?$AAe?$AAs?$AAk?$AAt?$AAo?$AAp?$AA?2?$AAp?$AAr?$AAj?$AA?2?$AAm?$AAg?$AAe?$AAa@ DB 'c'
	DB	00H, ':', 00H, '\', 00H, 'u', 00H, 's', 00H, 'e', 00H, 'r', 00H
	DB	's', 00H, '\', 00H, 'm', 00H, 'a', 00H, 'r', 00H, 'c', 00H, 'o'
	DB	00H, 's', 00H, '\', 00H, 'd', 00H, 'e', 00H, 's', 00H, 'k', 00H
	DB	't', 00H, 'o', 00H, 'p', 00H, '\', 00H, 'p', 00H, 'r', 00H, 'j'
	DB	00H, '\', 00H, 'm', 00H, 'g', 00H, 'e', 00H, 'a', 00H, 'r', 00H
	DB	'-', 00H, '1', 00H, '\', 00H, 'a', 00H, 'p', 00H, 'i', 00H, 's'
	DB	00H, '\', 00H, 's', 00H, 't', 00H, 'b', 00H, '\', 00H, 's', 00H
	DB	't', 00H, 'b', 00H, '_', 00H, 'i', 00H, 'm', 00H, 'a', 00H, 'g'
	DB	00H, 'e', 00H, '.', 00H, 'h', 00H, 00H, 00H	; `string'
CONST	ENDS
;	COMDAT ?__LINE__Var@?1??stbi__load_and_postprocess_8bit@@9@9@e7b221e1
_DATA	SEGMENT
?__LINE__Var@?1??stbi__load_and_postprocess_8bit@@9@9@e7b221e1 DD 0422H ; `stbi__load_and_postprocess_8bit'::`2'::__LINE__Var
_DATA	ENDS
;	COMDAT ??_C@_08NOGIMCHF@outofmem?$AA@
CONST	SEGMENT
??_C@_08NOGIMCHF@outofmem?$AA@ DB 'outofmem', 00H	; `string'
CONST	ENDS
;	COMDAT ??_C@_0BD@CBEDEJPH@unknown?5image?5type?$AA@
CONST	SEGMENT
??_C@_0BD@CBEDEJPH@unknown?5image?5type?$AA@ DB 'unknown image type', 00H ; `string'
CONST	ENDS
; Function compile flags: /Odtp /RTCsu /ZI
; File c:\users\marcos\desktop\prj\mgear-1\mgear-1\engine.c
;	COMDAT _LineData
_TEXT	SEGMENT
_i$ = -8						; size = 2
_x$ = 8							; size = 4
_y$ = 12						; size = 4
_x2$ = 16						; size = 4
_y2$ = 20						; size = 4
_r$ = 24						; size = 1
_g$ = 28						; size = 1
_b$ = 32						; size = 1
_a$ = 36						; size = 1
_linewidth$ = 40					; size = 2
_z$ = 44						; size = 4
_LineData PROC						; COMDAT

; 5849 : {

	push	ebp
	mov	ebp, esp
	sub	esp, 204				; 000000ccH
	push	ebx
	push	esi
	push	edi
	lea	edi, DWORD PTR [ebp-204]
	mov	ecx, 51					; 00000033H
	mov	eax, -858993460				; ccccccccH
	rep stosd

; 5850 : 	uint16 i=st.num_calls;

	mov	ax, WORD PTR _st+262
	mov	WORD PTR _i$[ebp], ax

; 5851 : 
; 5852 : 	st.renderer.ppline[i].pos.x=x;

	movzx	eax, WORD PTR _i$[ebp]
	imul	ecx, eax, 372
	mov	edx, DWORD PTR _x$[ebp]
	mov	DWORD PTR _st[ecx+2336880], edx

; 5853 : 	st.renderer.ppline[i].pos.y=y;

	movzx	eax, WORD PTR _i$[ebp]
	imul	ecx, eax, 372
	mov	edx, DWORD PTR _y$[ebp]
	mov	DWORD PTR _st[ecx+2336884], edx

; 5854 : 	st.renderer.ppline[i].pos.z=z;

	movzx	eax, WORD PTR _i$[ebp]
	imul	ecx, eax, 372
	mov	edx, DWORD PTR _z$[ebp]
	mov	DWORD PTR _st[ecx+2336888], edx

; 5855 : 	st.renderer.ppline[i].pos2.x=x2;

	movzx	eax, WORD PTR _i$[ebp]
	imul	ecx, eax, 372
	mov	edx, DWORD PTR _x2$[ebp]
	mov	DWORD PTR _st[ecx+2336892], edx

; 5856 : 	st.renderer.ppline[i].pos2.y=y2;

	movzx	eax, WORD PTR _i$[ebp]
	imul	ecx, eax, 372
	mov	edx, DWORD PTR _y2$[ebp]
	mov	DWORD PTR _st[ecx+2336896], edx

; 5857 : 	st.renderer.ppline[i].size.x=linewidth;

	movzx	eax, WORD PTR _i$[ebp]
	imul	ecx, eax, 372
	movsx	edx, WORD PTR _linewidth$[ebp]
	mov	DWORD PTR _st[ecx+2336904], edx

; 5858 : 	st.renderer.ppline[i].color.r=r;

	movzx	eax, WORD PTR _i$[ebp]
	imul	ecx, eax, 372
	mov	dl, BYTE PTR _r$[ebp]
	mov	BYTE PTR _st[ecx+2336928], dl

; 5859 : 	st.renderer.ppline[i].color.g=g;

	movzx	eax, WORD PTR _i$[ebp]
	imul	ecx, eax, 372
	mov	dl, BYTE PTR _g$[ebp]
	mov	BYTE PTR _st[ecx+2336929], dl

; 5860 : 	st.renderer.ppline[i].color.b=b;

	movzx	eax, WORD PTR _i$[ebp]
	imul	ecx, eax, 372
	mov	dl, BYTE PTR _b$[ebp]
	mov	BYTE PTR _st[ecx+2336930], dl

; 5861 : 	st.renderer.ppline[i].color.a=a;

	movzx	eax, WORD PTR _i$[ebp]
	imul	ecx, eax, 372
	mov	dl, BYTE PTR _a$[ebp]
	mov	BYTE PTR _st[ecx+2336931], dl

; 5862 : 
; 5863 : 	st.renderer.ppline[i].type=LINE_CALL;

	movzx	eax, WORD PTR _i$[ebp]
	imul	ecx, eax, 372
	mov	BYTE PTR _st[ecx+2336876], 2

; 5864 : 
; 5865 : 	st.num_calls++;

	mov	ax, WORD PTR _st+262
	add	ax, 1
	mov	WORD PTR _st+262, ax

; 5866 : }

	pop	edi
	pop	esi
	pop	ebx
	mov	esp, ebp
	pop	ebp
	ret	0
_LineData ENDP
_TEXT	ENDS
; Function compile flags: /Odtp /RTCsu /ZI
; File c:\users\marcos\desktop\prj\mgear-1\mgear-1\engine.c
;	COMDAT _WindowEvents
_TEXT	SEGMENT
_WindowEvents PROC					; COMDAT

; 2276 : {

	push	ebp
	mov	ebp, esp
	sub	esp, 192				; 000000c0H
	push	ebx
	push	esi
	push	edi
	lea	edi, DWORD PTR [ebp-192]
	mov	ecx, 48					; 00000030H
	mov	eax, -858993460				; ccccccccH
	rep stosd

; 2277 : 	if (events.type == SDL_QUIT) st.quit = 1;

	cmp	DWORD PTR _events, 256			; 00000100H
	jne	SHORT $LN3@WindowEven
	mov	BYTE PTR _st+66668, 1
$LN3@WindowEven:

; 2278 : 
; 2279 : 	InputProcess();

	call	_InputProcess

; 2280 : 
; 2281 : 	if (events.type == SDL_WINDOWEVENT)

	cmp	DWORD PTR _events, 512			; 00000200H
	jne	SHORT $LN4@WindowEven

; 2282 : 	{
; 2283 : 		if (events.window.event == SDL_WINDOWEVENT_SIZE_CHANGED)

	movzx	eax, BYTE PTR _events+12
	cmp	eax, 6
	jne	SHORT $LN4@WindowEven

; 2284 : 		{
; 2285 : 			LogApp("Window resized to %d x %d", events.window.data1, events.window.data2);

	mov	eax, DWORD PTR _events+20
	push	eax
	mov	ecx, DWORD PTR _events+16
	push	ecx
	push	OFFSET ??_C@_0BK@MKEONLB@Window?5resized?5to?5?$CFd?5x?5?$CFd?$AA@
	call	_SDL_Log
	add	esp, 12					; 0000000cH

; 2286 : 			st.screenx = events.window.data1;

	mov	ax, WORD PTR _events+16
	mov	WORD PTR _st+228, ax

; 2287 : 			st.screeny = events.window.data2;

	mov	ax, WORD PTR _events+20
	mov	WORD PTR _st+230, ax

; 2288 : 			RestartVideo();

	call	_RestartVideo
$LN4@WindowEven:

; 2289 : 		}
; 2290 : 	}
; 2291 : }

	pop	edi
	pop	esi
	pop	ebx
	add	esp, 192				; 000000c0H
	cmp	ebp, esp
	call	__RTC_CheckEsp
	mov	esp, ebp
	pop	ebp
	ret	0
_WindowEvents ENDP
_TEXT	ENDS
; Function compile flags: /Odtp /RTCsu /ZI
; File c:\users\marcos\desktop\prj\mgear-1\mgear-1\engine.c
;	COMDAT _CreateVBO
_TEXT	SEGMENT
_data$ = 8						; size = 4
_type$ = 12						; size = 1
_CreateVBO PROC						; COMDAT

; 1240 : {

	push	ebp
	mov	ebp, esp
	sub	esp, 192				; 000000c0H
	push	ebx
	push	esi
	push	edi
	lea	edi, DWORD PTR [ebp-192]
	mov	ecx, 48					; 00000030H
	mov	eax, -858993460				; ccccccccH
	rep stosd

; 1241 : 	glGenBuffers(1,&data->vbo_id);

	mov	eax, DWORD PTR _data$[ebp]
	add	eax, 8
	mov	esi, esp
	push	eax
	push	1
	call	DWORD PTR _GLeeFuncPtr_glGenBuffers
	cmp	esi, esp
	call	__RTC_CheckEsp

; 1242 : 	glGenBuffers(1,&data->ibo_id);

	mov	eax, DWORD PTR _data$[ebp]
	add	eax, 4
	mov	esi, esp
	push	eax
	push	1
	call	DWORD PTR _GLeeFuncPtr_glGenBuffers
	cmp	esi, esp
	call	__RTC_CheckEsp

; 1243 : 
; 1244 : 	glBindBuffer(GL_ARRAY_BUFFER,data->vbo_id);

	mov	esi, esp
	mov	eax, DWORD PTR _data$[ebp]
	mov	ecx, DWORD PTR [eax+8]
	push	ecx
	push	34962					; 00008892H
	call	DWORD PTR _GLeeFuncPtr_glBindBuffer
	cmp	esi, esp
	call	__RTC_CheckEsp

; 1245 : 	glBindBuffer(GL_ELEMENT_ARRAY_BUFFER,data->ibo_id);

	mov	esi, esp
	mov	eax, DWORD PTR _data$[ebp]
	mov	ecx, DWORD PTR [eax+4]
	push	ecx
	push	34963					; 00008893H
	call	DWORD PTR _GLeeFuncPtr_glBindBuffer
	cmp	esi, esp
	call	__RTC_CheckEsp

; 1246 : 
; 1247 : 	glBufferData(GL_ARRAY_BUFFER,(((data->num_elements*12)*sizeof(GLfloat)))+(((data->num_elements*8)*sizeof(GLfloat)))+(((data->num_elements*16)*sizeof(GLubyte))),NULL,GL_STREAM_DRAW);

	mov	esi, esp
	push	35040					; 000088e0H
	push	0
	mov	eax, DWORD PTR _data$[ebp]
	movzx	ecx, WORD PTR [eax+46]
	imul	edx, ecx, 12
	mov	eax, DWORD PTR _data$[ebp]
	movzx	ecx, WORD PTR [eax+46]
	shl	ecx, 3
	shl	ecx, 2
	lea	edx, DWORD PTR [ecx+edx*4]
	mov	eax, DWORD PTR _data$[ebp]
	movzx	ecx, WORD PTR [eax+46]
	shl	ecx, 4
	add	edx, ecx
	push	edx
	push	34962					; 00008892H
	call	DWORD PTR _GLeeFuncPtr_glBufferData
	cmp	esi, esp
	call	__RTC_CheckEsp

; 1248 : 	//glBufferSubData(GL_ARRAY_BUFFER,0,(12*data->num_elements)*sizeof(GLfloat),data->vertex);
; 1249 : 	//glBufferSubData(GL_ARRAY_BUFFER,(12*data->num_elements)*sizeof(GLfloat),(8*data->num_elements)*sizeof(GLfloat),data->texcoord);
; 1250 : 	//glBufferSubData(GL_ARRAY_BUFFER,(12*data->num_elements)*sizeof(GLfloat)+(8*data->num_elements)*sizeof(GLfloat),(((data->num_elements*16)*sizeof(GLubyte))),data->color);
; 1251 : 
; 1252 : 	if(type==1)

	movzx	eax, BYTE PTR _type$[ebp]
	cmp	eax, 1
	jne	SHORT $LN2@CreateVBO

; 1253 : 		glBufferData(GL_ELEMENT_ARRAY_BUFFER,(6*data->buffer_elements)*sizeof(GLushort),data->index,GL_STATIC_DRAW);

	mov	esi, esp
	push	35044					; 000088e4H
	mov	eax, DWORD PTR _data$[ebp]
	mov	ecx, DWORD PTR [eax+32]
	push	ecx
	mov	edx, DWORD PTR _data$[ebp]
	movzx	eax, WORD PTR [edx+48]
	imul	ecx, eax, 6
	shl	ecx, 1
	push	ecx
	push	34963					; 00008893H
	call	DWORD PTR _GLeeFuncPtr_glBufferData
	cmp	esi, esp
	call	__RTC_CheckEsp

; 1254 : 	else

	jmp	SHORT $LN1@CreateVBO
$LN2@CreateVBO:

; 1255 : 		glBufferData(GL_ELEMENT_ARRAY_BUFFER,(6*data->buffer_elements)*sizeof(GLushort),NULL,GL_DYNAMIC_DRAW);

	mov	esi, esp
	push	35048					; 000088e8H
	push	0
	mov	eax, DWORD PTR _data$[ebp]
	movzx	ecx, WORD PTR [eax+48]
	imul	edx, ecx, 6
	shl	edx, 1
	push	edx
	push	34963					; 00008893H
	call	DWORD PTR _GLeeFuncPtr_glBufferData
	cmp	esi, esp
	call	__RTC_CheckEsp
$LN1@CreateVBO:

; 1256 : 
; 1257 : 	glBindBuffer(GL_ARRAY_BUFFER,0);

	mov	esi, esp
	push	0
	push	34962					; 00008892H
	call	DWORD PTR _GLeeFuncPtr_glBindBuffer
	cmp	esi, esp
	call	__RTC_CheckEsp

; 1258 : 	glBindBuffer(GL_ELEMENT_ARRAY_BUFFER,0);

	mov	esi, esp
	push	0
	push	34963					; 00008893H
	call	DWORD PTR _GLeeFuncPtr_glBindBuffer
	cmp	esi, esp
	call	__RTC_CheckEsp

; 1259 : 	/*
; 1260 : 	free(data->texcoord);
; 1261 : 	free(data->index);
; 1262 : 	free(data->color);
; 1263 : 	free(data->vertex);
; 1264 : 	*/
; 1265 : }

	pop	edi
	pop	esi
	pop	ebx
	add	esp, 192				; 000000c0H
	cmp	ebp, esp
	call	__RTC_CheckEsp
	mov	esp, ebp
	pop	ebp
	ret	0
_CreateVBO ENDP
_TEXT	ENDS
; Function compile flags: /Odtp /RTCsu /ZI
; File c:\users\marcos\desktop\prj\mgear-1\mgear-1\engine.c
;	COMDAT _UpdateVAO
_TEXT	SEGMENT
_texl$ = -44						; size = 4
_col$ = -32						; size = 4
_texc$ = -20						; size = 4
_pos$ = -8						; size = 4
_data$ = 8						; size = 4
_upd_buff$ = 12						; size = 1
_upd_index$ = 16					; size = 1
_pr$ = 20						; size = 1
_UpdateVAO PROC						; COMDAT

; 1065 : {

	push	ebp
	mov	ebp, esp
	sub	esp, 264				; 00000108H
	push	ebx
	push	esi
	push	edi
	lea	edi, DWORD PTR [ebp-264]
	mov	ecx, 66					; 00000042H
	mov	eax, -858993460				; ccccccccH
	rep stosd

; 1066 : 	GLint pos, texc, col, texl, texr;
; 1067 : 	GLenum error;
; 1068 : 
; 1069 : 	//glUseProgram(st.renderer.Program[pr]);
; 1070 : 
; 1071 : 	if(!upd_buff)

	movzx	eax, BYTE PTR _upd_buff$[ebp]
	test	eax, eax
	jne	$LN8@UpdateVAO

; 1072 : 	{
; 1073 : 		if(data->num_elements>data->buffer_elements) return 1;

	mov	eax, DWORD PTR _data$[ebp]
	movzx	ecx, WORD PTR [eax+46]
	mov	edx, DWORD PTR _data$[ebp]
	movzx	eax, WORD PTR [edx+48]
	cmp	ecx, eax
	jle	SHORT $LN7@UpdateVAO
	mov	eax, 1
	jmp	$LN9@UpdateVAO

; 1074 : 		else

	jmp	$LN6@UpdateVAO
$LN7@UpdateVAO:

; 1075 : 		{
; 1076 : 			
; 1077 : 			glBindVertexArray(data->vao_id);

	mov	esi, esp
	mov	eax, DWORD PTR _data$[ebp]
	mov	ecx, DWORD PTR [eax]
	push	ecx
	call	DWORD PTR _GLeeFuncPtr_glBindVertexArray
	cmp	esi, esp
	call	__RTC_CheckEsp

; 1078 : 			glBindBuffer(GL_ARRAY_BUFFER,data->vbo_id);

	mov	esi, esp
	mov	eax, DWORD PTR _data$[ebp]
	mov	ecx, DWORD PTR [eax+8]
	push	ecx
	push	34962					; 00008892H
	call	DWORD PTR _GLeeFuncPtr_glBindBuffer
	cmp	esi, esp
	call	__RTC_CheckEsp

; 1079 : 
; 1080 : 			glBufferSubData(GL_ARRAY_BUFFER,0,(12*data->num_elements)*sizeof(GLfloat),data->vertex);

	mov	esi, esp
	mov	eax, DWORD PTR _data$[ebp]
	mov	ecx, DWORD PTR [eax+12]
	push	ecx
	mov	edx, DWORD PTR _data$[ebp]
	movzx	eax, WORD PTR [edx+46]
	imul	ecx, eax, 12
	shl	ecx, 2
	push	ecx
	push	0
	push	34962					; 00008892H
	call	DWORD PTR _GLeeFuncPtr_glBufferSubData
	cmp	esi, esp
	call	__RTC_CheckEsp

; 1081 : 			glBufferSubData(GL_ARRAY_BUFFER,(12*data->buffer_elements)*sizeof(GLfloat),(8*data->num_elements)*sizeof(GLfloat),data->texcoord);

	mov	esi, esp
	mov	eax, DWORD PTR _data$[ebp]
	mov	ecx, DWORD PTR [eax+16]
	push	ecx
	mov	edx, DWORD PTR _data$[ebp]
	movzx	eax, WORD PTR [edx+46]
	shl	eax, 3
	shl	eax, 2
	push	eax
	mov	ecx, DWORD PTR _data$[ebp]
	movzx	edx, WORD PTR [ecx+48]
	imul	eax, edx, 12
	shl	eax, 2
	push	eax
	push	34962					; 00008892H
	call	DWORD PTR _GLeeFuncPtr_glBufferSubData
	cmp	esi, esp
	call	__RTC_CheckEsp

; 1082 : 			glBufferSubData(GL_ARRAY_BUFFER,(((12*data->buffer_elements)*sizeof(GLfloat))+((8*data->buffer_elements)*sizeof(GLfloat))),(((data->num_elements*16)*sizeof(GLubyte))),data->color);

	mov	esi, esp
	mov	eax, DWORD PTR _data$[ebp]
	mov	ecx, DWORD PTR [eax+28]
	push	ecx
	mov	edx, DWORD PTR _data$[ebp]
	movzx	eax, WORD PTR [edx+46]
	shl	eax, 4
	push	eax
	mov	ecx, DWORD PTR _data$[ebp]
	movzx	edx, WORD PTR [ecx+48]
	imul	eax, edx, 12
	mov	ecx, DWORD PTR _data$[ebp]
	movzx	edx, WORD PTR [ecx+48]
	shl	edx, 3
	shl	edx, 2
	lea	eax, DWORD PTR [edx+eax*4]
	push	eax
	push	34962					; 00008892H
	call	DWORD PTR _GLeeFuncPtr_glBufferSubData
	cmp	esi, esp
	call	__RTC_CheckEsp

; 1083 : 			glBufferSubData(GL_ARRAY_BUFFER,(((12*data->buffer_elements)*sizeof(GLfloat))+((8*data->buffer_elements)*sizeof(GLfloat))+((data->buffer_elements*16)*sizeof(GLubyte))),(data->num_elements*8)*sizeof(float),data->texcoordlight);

	mov	esi, esp
	mov	eax, DWORD PTR _data$[ebp]
	mov	ecx, DWORD PTR [eax+20]
	push	ecx
	mov	edx, DWORD PTR _data$[ebp]
	movzx	eax, WORD PTR [edx+46]
	shl	eax, 3
	shl	eax, 2
	push	eax
	mov	ecx, DWORD PTR _data$[ebp]
	movzx	edx, WORD PTR [ecx+48]
	imul	eax, edx, 12
	mov	ecx, DWORD PTR _data$[ebp]
	movzx	edx, WORD PTR [ecx+48]
	shl	edx, 3
	shl	edx, 2
	lea	eax, DWORD PTR [edx+eax*4]
	mov	ecx, DWORD PTR _data$[ebp]
	movzx	edx, WORD PTR [ecx+48]
	shl	edx, 4
	add	eax, edx
	push	eax
	push	34962					; 00008892H
	call	DWORD PTR _GLeeFuncPtr_glBufferSubData
	cmp	esi, esp
	call	__RTC_CheckEsp

; 1084 : 		//	glBufferSubData(GL_ARRAY_BUFFER,(((12*data->buffer_elements)*sizeof(GLfloat))+((8*data->buffer_elements)*sizeof(GLfloat))+((data->buffer_elements*16)*sizeof(GLubyte))+((data->num_elements*8)*sizeof(float))),(data->num_elements*4)*sizeof(float),data->texrepeat);
; 1085 : 
; 1086 : 			if(upd_index)

	movzx	eax, BYTE PTR _upd_index$[ebp]
	test	eax, eax
	je	SHORT $LN5@UpdateVAO

; 1087 : 			{
; 1088 : 				glBindBuffer(GL_ELEMENT_ARRAY_BUFFER,data->ibo_id);

	mov	esi, esp
	mov	eax, DWORD PTR _data$[ebp]
	mov	ecx, DWORD PTR [eax+4]
	push	ecx
	push	34963					; 00008893H
	call	DWORD PTR _GLeeFuncPtr_glBindBuffer
	cmp	esi, esp
	call	__RTC_CheckEsp

; 1089 : 				glBufferSubData(GL_ELEMENT_ARRAY_BUFFER,0,(6*data->num_elements)*sizeof(GLushort),data->index);

	mov	esi, esp
	mov	eax, DWORD PTR _data$[ebp]
	mov	ecx, DWORD PTR [eax+32]
	push	ecx
	mov	edx, DWORD PTR _data$[ebp]
	movzx	eax, WORD PTR [edx+46]
	imul	ecx, eax, 6
	shl	ecx, 1
	push	ecx
	push	0
	push	34963					; 00008893H
	call	DWORD PTR _GLeeFuncPtr_glBufferSubData
	cmp	esi, esp
	call	__RTC_CheckEsp
$LN5@UpdateVAO:

; 1090 : 				//glBindBuffer(GL_ELEMENT_ARRAY_BUFFER,0);
; 1091 : 			}
; 1092 : 
; 1093 : 			glBindVertexArray(0);

	mov	esi, esp
	push	0
	call	DWORD PTR _GLeeFuncPtr_glBindVertexArray
	cmp	esi, esp
	call	__RTC_CheckEsp

; 1094 : 			
; 1095 : 			
; 1096 : 			free(data->texcoord);

	mov	eax, DWORD PTR _data$[ebp]
	mov	ecx, DWORD PTR [eax+16]
	push	ecx
	call	_free
	add	esp, 4

; 1097 : 			free(data->index);

	mov	eax, DWORD PTR _data$[ebp]
	mov	ecx, DWORD PTR [eax+32]
	push	ecx
	call	_free
	add	esp, 4

; 1098 : 			free(data->color);

	mov	eax, DWORD PTR _data$[ebp]
	mov	ecx, DWORD PTR [eax+28]
	push	ecx
	call	_free
	add	esp, 4

; 1099 : 			free(data->vertex);

	mov	eax, DWORD PTR _data$[ebp]
	mov	ecx, DWORD PTR [eax+12]
	push	ecx
	call	_free
	add	esp, 4

; 1100 : 			free(data->texcoordlight);

	mov	eax, DWORD PTR _data$[ebp]
	mov	ecx, DWORD PTR [eax+20]
	push	ecx
	call	_free
	add	esp, 4
$LN6@UpdateVAO:

; 1101 : 			//free(data->texrepeat);
; 1102 : 			
; 1103 : 		}
; 1104 : 	}
; 1105 : 	else

	jmp	$LN4@UpdateVAO
$LN8@UpdateVAO:

; 1106 : 	if(upd_buff==1)

	movzx	eax, BYTE PTR _upd_buff$[ebp]
	cmp	eax, 1
	jne	$LN3@UpdateVAO

; 1107 : 	{
; 1108 : 		
; 1109 : 		glBindVertexArray(data->vao_id);

	mov	esi, esp
	mov	eax, DWORD PTR _data$[ebp]
	mov	ecx, DWORD PTR [eax]
	push	ecx
	call	DWORD PTR _GLeeFuncPtr_glBindVertexArray
	cmp	esi, esp
	call	__RTC_CheckEsp

; 1110 : 
; 1111 : 		col=glGetAttribLocation(st.renderer.Program[pr],"Color");

	mov	esi, esp
	push	OFFSET ??_C@_05PDOBBJNA@Color?$AA@
	movzx	eax, BYTE PTR _pr$[ebp]
	mov	ecx, DWORD PTR _st[eax*4+2336648]
	push	ecx
	call	DWORD PTR _GLeeFuncPtr_glGetAttribLocation
	cmp	esi, esp
	call	__RTC_CheckEsp
	mov	DWORD PTR _col$[ebp], eax

; 1112 : 		pos=glGetAttribLocation(st.renderer.Program[pr],"Position");

	mov	esi, esp
	push	OFFSET ??_C@_08GCJNLIKG@Position?$AA@
	movzx	eax, BYTE PTR _pr$[ebp]
	mov	ecx, DWORD PTR _st[eax*4+2336648]
	push	ecx
	call	DWORD PTR _GLeeFuncPtr_glGetAttribLocation
	cmp	esi, esp
	call	__RTC_CheckEsp
	mov	DWORD PTR _pos$[ebp], eax

; 1113 : 		texc=glGetAttribLocation(st.renderer.Program[pr],"TexCoord");

	mov	esi, esp
	push	OFFSET ??_C@_08NGMLKGCO@TexCoord?$AA@
	movzx	eax, BYTE PTR _pr$[ebp]
	mov	ecx, DWORD PTR _st[eax*4+2336648]
	push	ecx
	call	DWORD PTR _GLeeFuncPtr_glGetAttribLocation
	cmp	esi, esp
	call	__RTC_CheckEsp
	mov	DWORD PTR _texc$[ebp], eax

; 1114 : 		texl=glGetAttribLocation(st.renderer.Program[pr],"TexLight");

	mov	esi, esp
	push	OFFSET ??_C@_08DGBKPNED@TexLight?$AA@
	movzx	eax, BYTE PTR _pr$[ebp]
	mov	ecx, DWORD PTR _st[eax*4+2336648]
	push	ecx
	call	DWORD PTR _GLeeFuncPtr_glGetAttribLocation
	cmp	esi, esp
	call	__RTC_CheckEsp
	mov	DWORD PTR _texl$[ebp], eax

; 1115 : 		//texr=glGetAttribLocation(st.renderer.Program[pr],"TexRepeat");
; 1116 : 
; 1117 : 
; 1118 : 		glEnableVertexAttribArray(pos);

	mov	esi, esp
	mov	eax, DWORD PTR _pos$[ebp]
	push	eax
	call	DWORD PTR _GLeeFuncPtr_glEnableVertexAttribArray
	cmp	esi, esp
	call	__RTC_CheckEsp

; 1119 : 		glEnableVertexAttribArray(texc);

	mov	esi, esp
	mov	eax, DWORD PTR _texc$[ebp]
	push	eax
	call	DWORD PTR _GLeeFuncPtr_glEnableVertexAttribArray
	cmp	esi, esp
	call	__RTC_CheckEsp

; 1120 : 		glEnableVertexAttribArray(col);

	mov	esi, esp
	mov	eax, DWORD PTR _col$[ebp]
	push	eax
	call	DWORD PTR _GLeeFuncPtr_glEnableVertexAttribArray
	cmp	esi, esp
	call	__RTC_CheckEsp

; 1121 : 		glEnableVertexAttribArray(texl);

	mov	esi, esp
	mov	eax, DWORD PTR _texl$[ebp]
	push	eax
	call	DWORD PTR _GLeeFuncPtr_glEnableVertexAttribArray
	cmp	esi, esp
	call	__RTC_CheckEsp

; 1122 : 		//glEnableVertexAttribArray(texr);
; 1123 : 
; 1124 : 		glBindBuffer(GL_ARRAY_BUFFER,data->vbo_id);

	mov	esi, esp
	mov	eax, DWORD PTR _data$[ebp]
	mov	ecx, DWORD PTR [eax+8]
	push	ecx
	push	34962					; 00008892H
	call	DWORD PTR _GLeeFuncPtr_glBindBuffer
	cmp	esi, esp
	call	__RTC_CheckEsp

; 1125 : 
; 1126 : 		glBufferData(GL_ARRAY_BUFFER,((data->buffer_elements*12)*sizeof(GLfloat))+((data->buffer_elements*8)*sizeof(GLfloat))+((data->buffer_elements*16)*sizeof(GLubyte))+((data->buffer_elements*8)*sizeof(GLfloat))+((data->buffer_elements*4)*sizeof(GLfloat)),NULL,GL_STREAM_DRAW);

	mov	esi, esp
	push	35040					; 000088e0H
	push	0
	mov	eax, DWORD PTR _data$[ebp]
	movzx	ecx, WORD PTR [eax+48]
	imul	edx, ecx, 12
	mov	eax, DWORD PTR _data$[ebp]
	movzx	ecx, WORD PTR [eax+48]
	shl	ecx, 3
	shl	ecx, 2
	lea	edx, DWORD PTR [ecx+edx*4]
	mov	eax, DWORD PTR _data$[ebp]
	movzx	ecx, WORD PTR [eax+48]
	shl	ecx, 4
	add	edx, ecx
	mov	eax, DWORD PTR _data$[ebp]
	movzx	ecx, WORD PTR [eax+48]
	shl	ecx, 3
	lea	edx, DWORD PTR [edx+ecx*4]
	mov	eax, DWORD PTR _data$[ebp]
	movzx	ecx, WORD PTR [eax+48]
	shl	ecx, 2
	lea	edx, DWORD PTR [edx+ecx*4]
	push	edx
	push	34962					; 00008892H
	call	DWORD PTR _GLeeFuncPtr_glBufferData
	cmp	esi, esp
	call	__RTC_CheckEsp

; 1127 : 
; 1128 : 		glBufferSubData(GL_ARRAY_BUFFER,0,(12*data->num_elements)*sizeof(GLfloat),data->vertex);

	mov	esi, esp
	mov	eax, DWORD PTR _data$[ebp]
	mov	ecx, DWORD PTR [eax+12]
	push	ecx
	mov	edx, DWORD PTR _data$[ebp]
	movzx	eax, WORD PTR [edx+46]
	imul	ecx, eax, 12
	shl	ecx, 2
	push	ecx
	push	0
	push	34962					; 00008892H
	call	DWORD PTR _GLeeFuncPtr_glBufferSubData
	cmp	esi, esp
	call	__RTC_CheckEsp

; 1129 : 		glBufferSubData(GL_ARRAY_BUFFER,(12*data->buffer_elements)*sizeof(GLfloat),(8*data->num_elements)*sizeof(GLfloat),data->texcoord);

	mov	esi, esp
	mov	eax, DWORD PTR _data$[ebp]
	mov	ecx, DWORD PTR [eax+16]
	push	ecx
	mov	edx, DWORD PTR _data$[ebp]
	movzx	eax, WORD PTR [edx+46]
	shl	eax, 3
	shl	eax, 2
	push	eax
	mov	ecx, DWORD PTR _data$[ebp]
	movzx	edx, WORD PTR [ecx+48]
	imul	eax, edx, 12
	shl	eax, 2
	push	eax
	push	34962					; 00008892H
	call	DWORD PTR _GLeeFuncPtr_glBufferSubData
	cmp	esi, esp
	call	__RTC_CheckEsp

; 1130 : 		glBufferSubData(GL_ARRAY_BUFFER,(((12*data->buffer_elements)*sizeof(GLfloat))+((8*data->buffer_elements)*sizeof(GLfloat))),(((data->num_elements*16)*sizeof(GLubyte))),data->color);

	mov	esi, esp
	mov	eax, DWORD PTR _data$[ebp]
	mov	ecx, DWORD PTR [eax+28]
	push	ecx
	mov	edx, DWORD PTR _data$[ebp]
	movzx	eax, WORD PTR [edx+46]
	shl	eax, 4
	push	eax
	mov	ecx, DWORD PTR _data$[ebp]
	movzx	edx, WORD PTR [ecx+48]
	imul	eax, edx, 12
	mov	ecx, DWORD PTR _data$[ebp]
	movzx	edx, WORD PTR [ecx+48]
	shl	edx, 3
	shl	edx, 2
	lea	eax, DWORD PTR [edx+eax*4]
	push	eax
	push	34962					; 00008892H
	call	DWORD PTR _GLeeFuncPtr_glBufferSubData
	cmp	esi, esp
	call	__RTC_CheckEsp

; 1131 : 		glBufferSubData(GL_ARRAY_BUFFER,(((12*data->buffer_elements)*sizeof(GLfloat))+((8*data->buffer_elements)*sizeof(GLfloat))+((data->buffer_elements*16)*sizeof(GLubyte))),(data->num_elements*8)*sizeof(float),data->texcoordlight);

	mov	esi, esp
	mov	eax, DWORD PTR _data$[ebp]
	mov	ecx, DWORD PTR [eax+20]
	push	ecx
	mov	edx, DWORD PTR _data$[ebp]
	movzx	eax, WORD PTR [edx+46]
	shl	eax, 3
	shl	eax, 2
	push	eax
	mov	ecx, DWORD PTR _data$[ebp]
	movzx	edx, WORD PTR [ecx+48]
	imul	eax, edx, 12
	mov	ecx, DWORD PTR _data$[ebp]
	movzx	edx, WORD PTR [ecx+48]
	shl	edx, 3
	shl	edx, 2
	lea	eax, DWORD PTR [edx+eax*4]
	mov	ecx, DWORD PTR _data$[ebp]
	movzx	edx, WORD PTR [ecx+48]
	shl	edx, 4
	add	eax, edx
	push	eax
	push	34962					; 00008892H
	call	DWORD PTR _GLeeFuncPtr_glBufferSubData
	cmp	esi, esp
	call	__RTC_CheckEsp

; 1132 : 		//glBufferSubData(GL_ARRAY_BUFFER,(((12*data->buffer_elements)*sizeof(GLfloat))+((8*data->buffer_elements)*sizeof(GLfloat))+((data->buffer_elements*16)*sizeof(GLubyte))+((data->num_elements*8)*sizeof(float))),(data->num_elements*4)*sizeof(float),data->texrepeat);
; 1133 : 
; 1134 : 
; 1135 : 		glVertexAttribPointer(pos,3,GL_FLOAT,GL_FALSE,0,0);

	mov	esi, esp
	push	0
	push	0
	push	0
	push	5126					; 00001406H
	push	3
	mov	eax, DWORD PTR _pos$[ebp]
	push	eax
	call	DWORD PTR _GLeeFuncPtr_glVertexAttribPointer
	cmp	esi, esp
	call	__RTC_CheckEsp

; 1136 : 		glVertexAttribPointer(texc,2,GL_FLOAT,GL_FALSE,0,(GLvoid*) ((12*data->buffer_elements)*sizeof(GLfloat)));

	mov	eax, DWORD PTR _data$[ebp]
	movzx	ecx, WORD PTR [eax+48]
	imul	edx, ecx, 12
	shl	edx, 2
	mov	esi, esp
	push	edx
	push	0
	push	0
	push	5126					; 00001406H
	push	2
	mov	eax, DWORD PTR _texc$[ebp]
	push	eax
	call	DWORD PTR _GLeeFuncPtr_glVertexAttribPointer
	cmp	esi, esp
	call	__RTC_CheckEsp

; 1137 : 		glVertexAttribPointer(col,4,GL_UNSIGNED_BYTE,GL_TRUE,0,(GLvoid*) (((12*data->buffer_elements)*sizeof(GLfloat))+((8*data->buffer_elements)*sizeof(GLfloat))));

	mov	eax, DWORD PTR _data$[ebp]
	movzx	ecx, WORD PTR [eax+48]
	imul	edx, ecx, 12
	mov	eax, DWORD PTR _data$[ebp]
	movzx	ecx, WORD PTR [eax+48]
	shl	ecx, 3
	shl	ecx, 2
	lea	edx, DWORD PTR [ecx+edx*4]
	mov	esi, esp
	push	edx
	push	0
	push	1
	push	5121					; 00001401H
	push	4
	mov	eax, DWORD PTR _col$[ebp]
	push	eax
	call	DWORD PTR _GLeeFuncPtr_glVertexAttribPointer
	cmp	esi, esp
	call	__RTC_CheckEsp

; 1138 : 		glVertexAttribPointer(texl,2,GL_FLOAT,GL_FALSE,0,(GLvoid*) (((12*data->buffer_elements)*sizeof(GLfloat))+((8*data->buffer_elements)*sizeof(GLfloat))+((16*data->buffer_elements)*sizeof(GLubyte))));

	mov	eax, DWORD PTR _data$[ebp]
	movzx	ecx, WORD PTR [eax+48]
	imul	edx, ecx, 12
	mov	eax, DWORD PTR _data$[ebp]
	movzx	ecx, WORD PTR [eax+48]
	shl	ecx, 3
	shl	ecx, 2
	lea	edx, DWORD PTR [ecx+edx*4]
	mov	eax, DWORD PTR _data$[ebp]
	movzx	ecx, WORD PTR [eax+48]
	shl	ecx, 4
	add	edx, ecx
	mov	esi, esp
	push	edx
	push	0
	push	0
	push	5126					; 00001406H
	push	2
	mov	edx, DWORD PTR _texl$[ebp]
	push	edx
	call	DWORD PTR _GLeeFuncPtr_glVertexAttribPointer
	cmp	esi, esp
	call	__RTC_CheckEsp

; 1139 : 		//glVertexAttribPointer(texr,4,GL_FLOAT,GL_FALSE,0,(GLvoid*) (((12*data->buffer_elements)*sizeof(GLfloat))+((8*data->buffer_elements)*sizeof(GLfloat))+((16*data->buffer_elements)*sizeof(GLubyte))+((data->buffer_elements*8)*sizeof(GLfloat))));
; 1140 : 
; 1141 : 
; 1142 : 		glBindBuffer(GL_ELEMENT_ARRAY_BUFFER,data->ibo_id);

	mov	esi, esp
	mov	eax, DWORD PTR _data$[ebp]
	mov	ecx, DWORD PTR [eax+4]
	push	ecx
	push	34963					; 00008893H
	call	DWORD PTR _GLeeFuncPtr_glBindBuffer
	cmp	esi, esp
	call	__RTC_CheckEsp

; 1143 : 
; 1144 : 		glBufferData(GL_ELEMENT_ARRAY_BUFFER,(6*data->buffer_elements)*sizeof(GLushort),NULL,GL_DYNAMIC_DRAW);

	mov	esi, esp
	push	35048					; 000088e8H
	push	0
	mov	eax, DWORD PTR _data$[ebp]
	movzx	ecx, WORD PTR [eax+48]
	imul	edx, ecx, 6
	shl	edx, 1
	push	edx
	push	34963					; 00008893H
	call	DWORD PTR _GLeeFuncPtr_glBufferData
	cmp	esi, esp
	call	__RTC_CheckEsp

; 1145 : 		glBufferSubData(GL_ELEMENT_ARRAY_BUFFER,0,(6*data->num_elements)*sizeof(GLushort),data->index);

	mov	esi, esp
	mov	eax, DWORD PTR _data$[ebp]
	mov	ecx, DWORD PTR [eax+32]
	push	ecx
	mov	edx, DWORD PTR _data$[ebp]
	movzx	eax, WORD PTR [edx+46]
	imul	ecx, eax, 6
	shl	ecx, 1
	push	ecx
	push	0
	push	34963					; 00008893H
	call	DWORD PTR _GLeeFuncPtr_glBufferSubData
	cmp	esi, esp
	call	__RTC_CheckEsp

; 1146 : 
; 1147 : 		glBindVertexArray(0);

	mov	esi, esp
	push	0
	call	DWORD PTR _GLeeFuncPtr_glBindVertexArray
	cmp	esi, esp
	call	__RTC_CheckEsp

; 1148 : 
; 1149 : 		glDisableVertexAttribArray(pos);

	mov	esi, esp
	mov	eax, DWORD PTR _pos$[ebp]
	push	eax
	call	DWORD PTR _GLeeFuncPtr_glDisableVertexAttribArray
	cmp	esi, esp
	call	__RTC_CheckEsp

; 1150 : 		glDisableVertexAttribArray(texc);

	mov	esi, esp
	mov	eax, DWORD PTR _texc$[ebp]
	push	eax
	call	DWORD PTR _GLeeFuncPtr_glDisableVertexAttribArray
	cmp	esi, esp
	call	__RTC_CheckEsp

; 1151 : 		glDisableVertexAttribArray(col);

	mov	esi, esp
	mov	eax, DWORD PTR _col$[ebp]
	push	eax
	call	DWORD PTR _GLeeFuncPtr_glDisableVertexAttribArray
	cmp	esi, esp
	call	__RTC_CheckEsp

; 1152 : 		glDisableVertexAttribArray(texl);

	mov	esi, esp
	mov	eax, DWORD PTR _texl$[ebp]
	push	eax
	call	DWORD PTR _GLeeFuncPtr_glDisableVertexAttribArray
	cmp	esi, esp
	call	__RTC_CheckEsp

; 1153 : 		//glDisableVertexAttribArray(texr);
; 1154 : 
; 1155 : 		//glBindBuffer(GL_ELEMENT_ARRAY_BUFFER,0);
; 1156 : 		//glBindBuffer(GL_ARRAY_BUFFER,0);
; 1157 : 
; 1158 : 		free(data->texcoord);

	mov	eax, DWORD PTR _data$[ebp]
	mov	ecx, DWORD PTR [eax+16]
	push	ecx
	call	_free
	add	esp, 4

; 1159 : 		free(data->index);

	mov	eax, DWORD PTR _data$[ebp]
	mov	ecx, DWORD PTR [eax+32]
	push	ecx
	call	_free
	add	esp, 4

; 1160 : 		free(data->color);

	mov	eax, DWORD PTR _data$[ebp]
	mov	ecx, DWORD PTR [eax+28]
	push	ecx
	call	_free
	add	esp, 4

; 1161 : 		free(data->vertex);

	mov	eax, DWORD PTR _data$[ebp]
	mov	ecx, DWORD PTR [eax+12]
	push	ecx
	call	_free
	add	esp, 4

; 1162 : 		free(data->texcoordlight);

	mov	eax, DWORD PTR _data$[ebp]
	mov	ecx, DWORD PTR [eax+20]
	push	ecx
	call	_free
	add	esp, 4

; 1163 : 		//free(data->texrepeat);
; 1164 : 	}
; 1165 : 	else

	jmp	$LN4@UpdateVAO
$LN3@UpdateVAO:

; 1166 : 	if(upd_buff==2)

	movzx	eax, BYTE PTR _upd_buff$[ebp]
	cmp	eax, 2
	jne	$LN4@UpdateVAO

; 1167 : 	{
; 1168 : 		glBindVertexArray(data->vao_id);

	mov	esi, esp
	mov	eax, DWORD PTR _data$[ebp]
	mov	ecx, DWORD PTR [eax]
	push	ecx
	call	DWORD PTR _GLeeFuncPtr_glBindVertexArray
	cmp	esi, esp
	call	__RTC_CheckEsp

; 1169 : 		glBindBuffer(GL_ARRAY_BUFFER,data->vbo_id);

	mov	esi, esp
	mov	eax, DWORD PTR _data$[ebp]
	mov	ecx, DWORD PTR [eax+8]
	push	ecx
	push	34962					; 00008892H
	call	DWORD PTR _GLeeFuncPtr_glBindBuffer
	cmp	esi, esp
	call	__RTC_CheckEsp

; 1170 : 		//glBindBuffer(GL_ELEMENT_ARRAY_BUFFER,data->ibo_id);
; 1171 : 
; 1172 : 		col=glGetAttribLocation(st.renderer.Program[pr],"Color");

	mov	esi, esp
	push	OFFSET ??_C@_05PDOBBJNA@Color?$AA@
	movzx	eax, BYTE PTR _pr$[ebp]
	mov	ecx, DWORD PTR _st[eax*4+2336648]
	push	ecx
	call	DWORD PTR _GLeeFuncPtr_glGetAttribLocation
	cmp	esi, esp
	call	__RTC_CheckEsp
	mov	DWORD PTR _col$[ebp], eax

; 1173 : 		pos=glGetAttribLocation(st.renderer.Program[pr],"Position");

	mov	esi, esp
	push	OFFSET ??_C@_08GCJNLIKG@Position?$AA@
	movzx	eax, BYTE PTR _pr$[ebp]
	mov	ecx, DWORD PTR _st[eax*4+2336648]
	push	ecx
	call	DWORD PTR _GLeeFuncPtr_glGetAttribLocation
	cmp	esi, esp
	call	__RTC_CheckEsp
	mov	DWORD PTR _pos$[ebp], eax

; 1174 : 		texc=glGetAttribLocation(st.renderer.Program[pr],"TexCoord");

	mov	esi, esp
	push	OFFSET ??_C@_08NGMLKGCO@TexCoord?$AA@
	movzx	eax, BYTE PTR _pr$[ebp]
	mov	ecx, DWORD PTR _st[eax*4+2336648]
	push	ecx
	call	DWORD PTR _GLeeFuncPtr_glGetAttribLocation
	cmp	esi, esp
	call	__RTC_CheckEsp
	mov	DWORD PTR _texc$[ebp], eax

; 1175 : 		texl=glGetAttribLocation(st.renderer.Program[pr],"TexLight");

	mov	esi, esp
	push	OFFSET ??_C@_08DGBKPNED@TexLight?$AA@
	movzx	eax, BYTE PTR _pr$[ebp]
	mov	ecx, DWORD PTR _st[eax*4+2336648]
	push	ecx
	call	DWORD PTR _GLeeFuncPtr_glGetAttribLocation
	cmp	esi, esp
	call	__RTC_CheckEsp
	mov	DWORD PTR _texl$[ebp], eax

; 1176 : 		//texr=glGetAttribLocation(st.renderer.Program[pr],"TexRepeat");
; 1177 : 
; 1178 : 		glEnableVertexAttribArray(pos);

	mov	esi, esp
	mov	eax, DWORD PTR _pos$[ebp]
	push	eax
	call	DWORD PTR _GLeeFuncPtr_glEnableVertexAttribArray
	cmp	esi, esp
	call	__RTC_CheckEsp

; 1179 : 		glEnableVertexAttribArray(texc);

	mov	esi, esp
	mov	eax, DWORD PTR _texc$[ebp]
	push	eax
	call	DWORD PTR _GLeeFuncPtr_glEnableVertexAttribArray
	cmp	esi, esp
	call	__RTC_CheckEsp

; 1180 : 		glEnableVertexAttribArray(col);

	mov	esi, esp
	mov	eax, DWORD PTR _col$[ebp]
	push	eax
	call	DWORD PTR _GLeeFuncPtr_glEnableVertexAttribArray
	cmp	esi, esp
	call	__RTC_CheckEsp

; 1181 : 		glEnableVertexAttribArray(texl);

	mov	esi, esp
	mov	eax, DWORD PTR _texl$[ebp]
	push	eax
	call	DWORD PTR _GLeeFuncPtr_glEnableVertexAttribArray
	cmp	esi, esp
	call	__RTC_CheckEsp

; 1182 : 		//glEnableVertexAttribArray(texr);
; 1183 : 
; 1184 : 		glBufferData(GL_ARRAY_BUFFER,((data->buffer_elements*12)*sizeof(GLfloat))+((data->buffer_elements*8)*sizeof(GLfloat))+((data->buffer_elements*16)*sizeof(GLubyte))+((data->buffer_elements*8)*sizeof(GLfloat))+((data->buffer_elements*4)*sizeof(GLfloat)),NULL,GL_STREAM_DRAW);

	mov	esi, esp
	push	35040					; 000088e0H
	push	0
	mov	eax, DWORD PTR _data$[ebp]
	movzx	ecx, WORD PTR [eax+48]
	imul	edx, ecx, 12
	mov	eax, DWORD PTR _data$[ebp]
	movzx	ecx, WORD PTR [eax+48]
	shl	ecx, 3
	shl	ecx, 2
	lea	edx, DWORD PTR [ecx+edx*4]
	mov	eax, DWORD PTR _data$[ebp]
	movzx	ecx, WORD PTR [eax+48]
	shl	ecx, 4
	add	edx, ecx
	mov	eax, DWORD PTR _data$[ebp]
	movzx	ecx, WORD PTR [eax+48]
	shl	ecx, 3
	lea	edx, DWORD PTR [edx+ecx*4]
	mov	eax, DWORD PTR _data$[ebp]
	movzx	ecx, WORD PTR [eax+48]
	shl	ecx, 2
	lea	edx, DWORD PTR [edx+ecx*4]
	push	edx
	push	34962					; 00008892H
	call	DWORD PTR _GLeeFuncPtr_glBufferData
	cmp	esi, esp
	call	__RTC_CheckEsp

; 1185 : 
; 1186 : 		glVertexAttribPointer(pos,3,GL_FLOAT,GL_FALSE,0,0);

	mov	esi, esp
	push	0
	push	0
	push	0
	push	5126					; 00001406H
	push	3
	mov	eax, DWORD PTR _pos$[ebp]
	push	eax
	call	DWORD PTR _GLeeFuncPtr_glVertexAttribPointer
	cmp	esi, esp
	call	__RTC_CheckEsp

; 1187 : 		glVertexAttribPointer(texc,2,GL_FLOAT,GL_FALSE,0,(GLvoid*) ((12*data->buffer_elements)*sizeof(GLfloat)));

	mov	eax, DWORD PTR _data$[ebp]
	movzx	ecx, WORD PTR [eax+48]
	imul	edx, ecx, 12
	shl	edx, 2
	mov	esi, esp
	push	edx
	push	0
	push	0
	push	5126					; 00001406H
	push	2
	mov	eax, DWORD PTR _texc$[ebp]
	push	eax
	call	DWORD PTR _GLeeFuncPtr_glVertexAttribPointer
	cmp	esi, esp
	call	__RTC_CheckEsp

; 1188 : 		glVertexAttribPointer(col,4,GL_UNSIGNED_BYTE,GL_TRUE,0,(GLvoid*) (((12*data->buffer_elements)*sizeof(GLfloat))+((8*data->buffer_elements)*sizeof(GLfloat))));

	mov	eax, DWORD PTR _data$[ebp]
	movzx	ecx, WORD PTR [eax+48]
	imul	edx, ecx, 12
	mov	eax, DWORD PTR _data$[ebp]
	movzx	ecx, WORD PTR [eax+48]
	shl	ecx, 3
	shl	ecx, 2
	lea	edx, DWORD PTR [ecx+edx*4]
	mov	esi, esp
	push	edx
	push	0
	push	1
	push	5121					; 00001401H
	push	4
	mov	eax, DWORD PTR _col$[ebp]
	push	eax
	call	DWORD PTR _GLeeFuncPtr_glVertexAttribPointer
	cmp	esi, esp
	call	__RTC_CheckEsp

; 1189 : 		glVertexAttribPointer(texl,2,GL_FLOAT,GL_FALSE,0,(GLvoid*) (((12*data->buffer_elements)*sizeof(GLfloat))+((8*data->buffer_elements)*sizeof(GLfloat))+((16*data->buffer_elements)*sizeof(GLubyte))));

	mov	eax, DWORD PTR _data$[ebp]
	movzx	ecx, WORD PTR [eax+48]
	imul	edx, ecx, 12
	mov	eax, DWORD PTR _data$[ebp]
	movzx	ecx, WORD PTR [eax+48]
	shl	ecx, 3
	shl	ecx, 2
	lea	edx, DWORD PTR [ecx+edx*4]
	mov	eax, DWORD PTR _data$[ebp]
	movzx	ecx, WORD PTR [eax+48]
	shl	ecx, 4
	add	edx, ecx
	mov	esi, esp
	push	edx
	push	0
	push	0
	push	5126					; 00001406H
	push	2
	mov	edx, DWORD PTR _texl$[ebp]
	push	edx
	call	DWORD PTR _GLeeFuncPtr_glVertexAttribPointer
	cmp	esi, esp
	call	__RTC_CheckEsp

; 1190 : 		//glVertexAttribPointer(texr,4,GL_FLOAT,GL_FALSE,0,(GLvoid*) (((12*data->buffer_elements)*sizeof(GLfloat))+((8*data->buffer_elements)*sizeof(GLfloat))+((16*data->buffer_elements)*sizeof(GLubyte))+((data->buffer_elements*8)*sizeof(GLfloat))));
; 1191 : 
; 1192 : 		glBindBuffer(GL_ELEMENT_ARRAY_BUFFER,data->ibo_id);

	mov	esi, esp
	mov	eax, DWORD PTR _data$[ebp]
	mov	ecx, DWORD PTR [eax+4]
	push	ecx
	push	34963					; 00008893H
	call	DWORD PTR _GLeeFuncPtr_glBindBuffer
	cmp	esi, esp
	call	__RTC_CheckEsp

; 1193 : 
; 1194 : 		glBufferData(GL_ELEMENT_ARRAY_BUFFER,(6*data->buffer_elements)*sizeof(GLushort),NULL,GL_DYNAMIC_DRAW);

	mov	esi, esp
	push	35048					; 000088e8H
	push	0
	mov	eax, DWORD PTR _data$[ebp]
	movzx	ecx, WORD PTR [eax+48]
	imul	edx, ecx, 6
	shl	edx, 1
	push	edx
	push	34963					; 00008893H
	call	DWORD PTR _GLeeFuncPtr_glBufferData
	cmp	esi, esp
	call	__RTC_CheckEsp

; 1195 : 
; 1196 : 		glDisableVertexAttribArray(pos);

	mov	esi, esp
	mov	eax, DWORD PTR _pos$[ebp]
	push	eax
	call	DWORD PTR _GLeeFuncPtr_glDisableVertexAttribArray
	cmp	esi, esp
	call	__RTC_CheckEsp

; 1197 : 		glDisableVertexAttribArray(texc);

	mov	esi, esp
	mov	eax, DWORD PTR _texc$[ebp]
	push	eax
	call	DWORD PTR _GLeeFuncPtr_glDisableVertexAttribArray
	cmp	esi, esp
	call	__RTC_CheckEsp

; 1198 : 		glDisableVertexAttribArray(col);

	mov	esi, esp
	mov	eax, DWORD PTR _col$[ebp]
	push	eax
	call	DWORD PTR _GLeeFuncPtr_glDisableVertexAttribArray
	cmp	esi, esp
	call	__RTC_CheckEsp

; 1199 : 		glDisableVertexAttribArray(texl);

	mov	esi, esp
	mov	eax, DWORD PTR _texl$[ebp]
	push	eax
	call	DWORD PTR _GLeeFuncPtr_glDisableVertexAttribArray
	cmp	esi, esp
	call	__RTC_CheckEsp

; 1200 : 		//glDisableVertexAttribArray(texr);
; 1201 : 
; 1202 : 		//glBindBuffer(GL_ELEMENT_ARRAY_BUFFER,0);
; 1203 : 		//glBindBuffer(GL_ARRAY_BUFFER,0);
; 1204 : 		glBindVertexArray(0);

	mov	esi, esp
	push	0
	call	DWORD PTR _GLeeFuncPtr_glBindVertexArray
	cmp	esi, esp
	call	__RTC_CheckEsp
$LN4@UpdateVAO:

; 1205 : 	}
; 1206 : 
; 1207 : 	//glUseProgram(0);
; 1208 : 
; 1209 : 	return 0;

	xor	eax, eax
$LN9@UpdateVAO:

; 1210 : }

	pop	edi
	pop	esi
	pop	ebx
	add	esp, 264				; 00000108H
	cmp	ebp, esp
	call	__RTC_CheckEsp
	mov	esp, ebp
	pop	ebp
	ret	0
_UpdateVAO ENDP
_TEXT	ENDS
; Function compile flags: /Odtp /RTCsu /ZI
; File c:\users\marcos\desktop\prj\mgear-1\mgear-1\engine.c
;	COMDAT _CreateVAO
_TEXT	SEGMENT
_texl$ = -44						; size = 4
_col$ = -32						; size = 4
_texc$ = -20						; size = 4
_pos$ = -8						; size = 4
_data$ = 8						; size = 4
_type$ = 12						; size = 1
_pr$ = 16						; size = 1
_CreateVAO PROC						; COMDAT

; 995  : {

	push	ebp
	mov	ebp, esp
	sub	esp, 252				; 000000fcH
	push	ebx
	push	esi
	push	edi
	lea	edi, DWORD PTR [ebp-252]
	mov	ecx, 63					; 0000003fH
	mov	eax, -858993460				; ccccccccH
	rep stosd

; 996  : 	GLint pos, texc, col, texl, texr;
; 997  : 
; 998  : 	if(type==1)

	movzx	eax, BYTE PTR _type$[ebp]
	cmp	eax, 1
	jne	SHORT $LN3@CreateVAO

; 999  : 	{
; 1000 : 		data->buffer_elements=1;

	mov	eax, 1
	mov	ecx, DWORD PTR _data$[ebp]
	mov	WORD PTR [ecx+48], ax

; 1001 : 		data->num_elements=1;

	mov	eax, 1
	mov	ecx, DWORD PTR _data$[ebp]
	mov	WORD PTR [ecx+46], ax
$LN3@CreateVAO:

; 1002 : 	}
; 1003 : 
; 1004 : 	glGenVertexArrays(1,&data->vao_id);

	mov	eax, DWORD PTR _data$[ebp]
	mov	esi, esp
	push	eax
	push	1
	call	DWORD PTR _GLeeFuncPtr_glGenVertexArrays
	cmp	esi, esp
	call	__RTC_CheckEsp

; 1005 : 	glBindVertexArray(data->vao_id);

	mov	esi, esp
	mov	eax, DWORD PTR _data$[ebp]
	mov	ecx, DWORD PTR [eax]
	push	ecx
	call	DWORD PTR _GLeeFuncPtr_glBindVertexArray
	cmp	esi, esp
	call	__RTC_CheckEsp

; 1006 : 
; 1007 : 	col=glGetAttribLocation(st.renderer.Program[pr],"Color");

	mov	esi, esp
	push	OFFSET ??_C@_05PDOBBJNA@Color?$AA@
	movzx	eax, BYTE PTR _pr$[ebp]
	mov	ecx, DWORD PTR _st[eax*4+2336648]
	push	ecx
	call	DWORD PTR _GLeeFuncPtr_glGetAttribLocation
	cmp	esi, esp
	call	__RTC_CheckEsp
	mov	DWORD PTR _col$[ebp], eax

; 1008 : 	pos=glGetAttribLocation(st.renderer.Program[pr],"Position");

	mov	esi, esp
	push	OFFSET ??_C@_08GCJNLIKG@Position?$AA@
	movzx	eax, BYTE PTR _pr$[ebp]
	mov	ecx, DWORD PTR _st[eax*4+2336648]
	push	ecx
	call	DWORD PTR _GLeeFuncPtr_glGetAttribLocation
	cmp	esi, esp
	call	__RTC_CheckEsp
	mov	DWORD PTR _pos$[ebp], eax

; 1009 : 	texc=glGetAttribLocation(st.renderer.Program[pr],"TexCoord");

	mov	esi, esp
	push	OFFSET ??_C@_08NGMLKGCO@TexCoord?$AA@
	movzx	eax, BYTE PTR _pr$[ebp]
	mov	ecx, DWORD PTR _st[eax*4+2336648]
	push	ecx
	call	DWORD PTR _GLeeFuncPtr_glGetAttribLocation
	cmp	esi, esp
	call	__RTC_CheckEsp
	mov	DWORD PTR _texc$[ebp], eax

; 1010 : 	texl=glGetAttribLocation(st.renderer.Program[pr],"TexLight");

	mov	esi, esp
	push	OFFSET ??_C@_08DGBKPNED@TexLight?$AA@
	movzx	eax, BYTE PTR _pr$[ebp]
	mov	ecx, DWORD PTR _st[eax*4+2336648]
	push	ecx
	call	DWORD PTR _GLeeFuncPtr_glGetAttribLocation
	cmp	esi, esp
	call	__RTC_CheckEsp
	mov	DWORD PTR _texl$[ebp], eax

; 1011 : 	//texr=glGetAttribLocation(st.renderer.Program[pr],"TexRepeat");
; 1012 : 
; 1013 : 
; 1014 : 	glEnableVertexAttribArray(pos);

	mov	esi, esp
	mov	eax, DWORD PTR _pos$[ebp]
	push	eax
	call	DWORD PTR _GLeeFuncPtr_glEnableVertexAttribArray
	cmp	esi, esp
	call	__RTC_CheckEsp

; 1015 : 	glEnableVertexAttribArray(texc);

	mov	esi, esp
	mov	eax, DWORD PTR _texc$[ebp]
	push	eax
	call	DWORD PTR _GLeeFuncPtr_glEnableVertexAttribArray
	cmp	esi, esp
	call	__RTC_CheckEsp

; 1016 : 	glEnableVertexAttribArray(col);

	mov	esi, esp
	mov	eax, DWORD PTR _col$[ebp]
	push	eax
	call	DWORD PTR _GLeeFuncPtr_glEnableVertexAttribArray
	cmp	esi, esp
	call	__RTC_CheckEsp

; 1017 : 	glEnableVertexAttribArray(texl);

	mov	esi, esp
	mov	eax, DWORD PTR _texl$[ebp]
	push	eax
	call	DWORD PTR _GLeeFuncPtr_glEnableVertexAttribArray
	cmp	esi, esp
	call	__RTC_CheckEsp

; 1018 : 	//glEnableVertexAttribArray(texr);
; 1019 : 
; 1020 : 	glGenBuffers(1,&data->vbo_id);

	mov	eax, DWORD PTR _data$[ebp]
	add	eax, 8
	mov	esi, esp
	push	eax
	push	1
	call	DWORD PTR _GLeeFuncPtr_glGenBuffers
	cmp	esi, esp
	call	__RTC_CheckEsp

; 1021 : 	glBindBuffer(GL_ARRAY_BUFFER,data->vbo_id);

	mov	esi, esp
	mov	eax, DWORD PTR _data$[ebp]
	mov	ecx, DWORD PTR [eax+8]
	push	ecx
	push	34962					; 00008892H
	call	DWORD PTR _GLeeFuncPtr_glBindBuffer
	cmp	esi, esp
	call	__RTC_CheckEsp

; 1022 : 
; 1023 : 	glBufferData(GL_ARRAY_BUFFER,((data->buffer_elements*12)*sizeof(GLfloat))+((data->buffer_elements*8)*sizeof(GLfloat))+((data->buffer_elements*16)*sizeof(GLubyte))+((data->buffer_elements*8)*sizeof(GLfloat))+((data->buffer_elements*4)*sizeof(GLfloat)),NULL,GL_STREAM_DRAW);

	mov	esi, esp
	push	35040					; 000088e0H
	push	0
	mov	eax, DWORD PTR _data$[ebp]
	movzx	ecx, WORD PTR [eax+48]
	imul	edx, ecx, 12
	mov	eax, DWORD PTR _data$[ebp]
	movzx	ecx, WORD PTR [eax+48]
	shl	ecx, 3
	shl	ecx, 2
	lea	edx, DWORD PTR [ecx+edx*4]
	mov	eax, DWORD PTR _data$[ebp]
	movzx	ecx, WORD PTR [eax+48]
	shl	ecx, 4
	add	edx, ecx
	mov	eax, DWORD PTR _data$[ebp]
	movzx	ecx, WORD PTR [eax+48]
	shl	ecx, 3
	lea	edx, DWORD PTR [edx+ecx*4]
	mov	eax, DWORD PTR _data$[ebp]
	movzx	ecx, WORD PTR [eax+48]
	shl	ecx, 2
	lea	edx, DWORD PTR [edx+ecx*4]
	push	edx
	push	34962					; 00008892H
	call	DWORD PTR _GLeeFuncPtr_glBufferData
	cmp	esi, esp
	call	__RTC_CheckEsp

; 1024 : 	/*
; 1025 : 	glBufferSubData(GL_ARRAY_BUFFER,0,(12*data->num_elements)*sizeof(GLfloat),data->vertex);
; 1026 : 	glBufferSubData(GL_ARRAY_BUFFER,(12*data->num_elements)*sizeof(GLfloat),(8*data->num_elements)*sizeof(GLfloat),data->texcoord);
; 1027 : 	glBufferSubData(GL_ARRAY_BUFFER,(12*data->num_elements)*sizeof(GLfloat)+(8*data->num_elements)*sizeof(GLfloat),(((data->num_elements*16)*sizeof(GLubyte))),data->color);
; 1028 : 	*/
; 1029 : 
; 1030 : 	glVertexAttribPointer(pos,3,GL_FLOAT,GL_FALSE,0,0);

	mov	esi, esp
	push	0
	push	0
	push	0
	push	5126					; 00001406H
	push	3
	mov	eax, DWORD PTR _pos$[ebp]
	push	eax
	call	DWORD PTR _GLeeFuncPtr_glVertexAttribPointer
	cmp	esi, esp
	call	__RTC_CheckEsp

; 1031 : 	glVertexAttribPointer(texc,2,GL_FLOAT,GL_FALSE,0,(GLvoid*) ((12*data->buffer_elements)*sizeof(GLfloat)));

	mov	eax, DWORD PTR _data$[ebp]
	movzx	ecx, WORD PTR [eax+48]
	imul	edx, ecx, 12
	shl	edx, 2
	mov	esi, esp
	push	edx
	push	0
	push	0
	push	5126					; 00001406H
	push	2
	mov	eax, DWORD PTR _texc$[ebp]
	push	eax
	call	DWORD PTR _GLeeFuncPtr_glVertexAttribPointer
	cmp	esi, esp
	call	__RTC_CheckEsp

; 1032 : 	glVertexAttribPointer(col,4,GL_UNSIGNED_BYTE,GL_TRUE,0,(GLvoid*) ((12*data->buffer_elements)*sizeof(GLfloat)+(8*data->buffer_elements)*sizeof(GLfloat)));

	mov	eax, DWORD PTR _data$[ebp]
	movzx	ecx, WORD PTR [eax+48]
	imul	edx, ecx, 12
	mov	eax, DWORD PTR _data$[ebp]
	movzx	ecx, WORD PTR [eax+48]
	shl	ecx, 3
	shl	ecx, 2
	lea	edx, DWORD PTR [ecx+edx*4]
	mov	esi, esp
	push	edx
	push	0
	push	1
	push	5121					; 00001401H
	push	4
	mov	eax, DWORD PTR _col$[ebp]
	push	eax
	call	DWORD PTR _GLeeFuncPtr_glVertexAttribPointer
	cmp	esi, esp
	call	__RTC_CheckEsp

; 1033 : 	glVertexAttribPointer(texl,2,GL_FLOAT,GL_FALSE,0,(GLvoid*) (((12*data->buffer_elements)*sizeof(GLfloat))+((8*data->buffer_elements)*sizeof(GLfloat))+((16*data->buffer_elements)*sizeof(GLubyte))));

	mov	eax, DWORD PTR _data$[ebp]
	movzx	ecx, WORD PTR [eax+48]
	imul	edx, ecx, 12
	mov	eax, DWORD PTR _data$[ebp]
	movzx	ecx, WORD PTR [eax+48]
	shl	ecx, 3
	shl	ecx, 2
	lea	edx, DWORD PTR [ecx+edx*4]
	mov	eax, DWORD PTR _data$[ebp]
	movzx	ecx, WORD PTR [eax+48]
	shl	ecx, 4
	add	edx, ecx
	mov	esi, esp
	push	edx
	push	0
	push	0
	push	5126					; 00001406H
	push	2
	mov	edx, DWORD PTR _texl$[ebp]
	push	edx
	call	DWORD PTR _GLeeFuncPtr_glVertexAttribPointer
	cmp	esi, esp
	call	__RTC_CheckEsp

; 1034 : 	//glVertexAttribPointer(texr,4,GL_FLOAT,GL_FALSE,0,(GLvoid*) (((12*data->buffer_elements)*sizeof(GLfloat))+((8*data->buffer_elements)*sizeof(GLfloat))+((16*data->buffer_elements)*sizeof(GLubyte))+((data->buffer_elements*8)*sizeof(GLfloat))));
; 1035 : 
; 1036 : 
; 1037 : 	glGenBuffers(1,&data->ibo_id);

	mov	eax, DWORD PTR _data$[ebp]
	add	eax, 4
	mov	esi, esp
	push	eax
	push	1
	call	DWORD PTR _GLeeFuncPtr_glGenBuffers
	cmp	esi, esp
	call	__RTC_CheckEsp

; 1038 : 	glBindBuffer(GL_ELEMENT_ARRAY_BUFFER,data->ibo_id);

	mov	esi, esp
	mov	eax, DWORD PTR _data$[ebp]
	mov	ecx, DWORD PTR [eax+4]
	push	ecx
	push	34963					; 00008893H
	call	DWORD PTR _GLeeFuncPtr_glBindBuffer
	cmp	esi, esp
	call	__RTC_CheckEsp

; 1039 : 
; 1040 : 	if(type==1)

	movzx	eax, BYTE PTR _type$[ebp]
	cmp	eax, 1
	jne	SHORT $LN2@CreateVAO

; 1041 : 		glBufferData(GL_ELEMENT_ARRAY_BUFFER,(6*data->buffer_elements)*sizeof(GLushort),data->index,GL_STATIC_DRAW);

	mov	esi, esp
	push	35044					; 000088e4H
	mov	eax, DWORD PTR _data$[ebp]
	mov	ecx, DWORD PTR [eax+32]
	push	ecx
	mov	edx, DWORD PTR _data$[ebp]
	movzx	eax, WORD PTR [edx+48]
	imul	ecx, eax, 6
	shl	ecx, 1
	push	ecx
	push	34963					; 00008893H
	call	DWORD PTR _GLeeFuncPtr_glBufferData
	cmp	esi, esp
	call	__RTC_CheckEsp

; 1042 : 	else

	jmp	SHORT $LN1@CreateVAO
$LN2@CreateVAO:

; 1043 : 		glBufferData(GL_ELEMENT_ARRAY_BUFFER,(6*data->buffer_elements)*sizeof(GLushort),NULL,GL_DYNAMIC_DRAW);

	mov	esi, esp
	push	35048					; 000088e8H
	push	0
	mov	eax, DWORD PTR _data$[ebp]
	movzx	ecx, WORD PTR [eax+48]
	imul	edx, ecx, 6
	shl	edx, 1
	push	edx
	push	34963					; 00008893H
	call	DWORD PTR _GLeeFuncPtr_glBufferData
	cmp	esi, esp
	call	__RTC_CheckEsp
$LN1@CreateVAO:

; 1044 : 	
; 1045 : 	glBindVertexArray(0);

	mov	esi, esp
	push	0
	call	DWORD PTR _GLeeFuncPtr_glBindVertexArray
	cmp	esi, esp
	call	__RTC_CheckEsp

; 1046 : 
; 1047 : 	glDisableVertexAttribArray(pos);

	mov	esi, esp
	mov	eax, DWORD PTR _pos$[ebp]
	push	eax
	call	DWORD PTR _GLeeFuncPtr_glDisableVertexAttribArray
	cmp	esi, esp
	call	__RTC_CheckEsp

; 1048 : 	glDisableVertexAttribArray(texc);

	mov	esi, esp
	mov	eax, DWORD PTR _texc$[ebp]
	push	eax
	call	DWORD PTR _GLeeFuncPtr_glDisableVertexAttribArray
	cmp	esi, esp
	call	__RTC_CheckEsp

; 1049 : 	glDisableVertexAttribArray(col);

	mov	esi, esp
	mov	eax, DWORD PTR _col$[ebp]
	push	eax
	call	DWORD PTR _GLeeFuncPtr_glDisableVertexAttribArray
	cmp	esi, esp
	call	__RTC_CheckEsp

; 1050 : 	glDisableVertexAttribArray(texl);

	mov	esi, esp
	mov	eax, DWORD PTR _texl$[ebp]
	push	eax
	call	DWORD PTR _GLeeFuncPtr_glDisableVertexAttribArray
	cmp	esi, esp
	call	__RTC_CheckEsp

; 1051 : 	//glDisableVertexAttribArray(texr);
; 1052 : 
; 1053 : 	data->num_elements2=0;

	xor	eax, eax
	mov	ecx, DWORD PTR _data$[ebp]
	mov	WORD PTR [ecx+50], ax

; 1054 : 	
; 1055 : 	/*
; 1056 : 	free(data->texcoord);
; 1057 : 	free(data->index);
; 1058 : 	free(data->color);
; 1059 : 	free(data->vertex);
; 1060 : 	*/
; 1061 : 
; 1062 : }

	pop	edi
	pop	esi
	pop	ebx
	add	esp, 252				; 000000fcH
	cmp	ebp, esp
	call	__RTC_CheckEsp
	mov	esp, ebp
	pop	ebp
	ret	0
_CreateVAO ENDP
_TEXT	ENDS
; Function compile flags: /Odtp /RTCsu /ZI
; File c:\users\marcos\desktop\prj\mgear-1\apis\stb\stb_image.h
;	COMDAT _stbi__info_main
_TEXT	SEGMENT
_s$ = 8							; size = 4
_x$ = 12						; size = 4
_y$ = 16						; size = 4
_comp$ = 20						; size = 4
_stbi__info_main PROC					; COMDAT

; 6890 : {

	push	ebp
	mov	ebp, esp
	sub	esp, 192				; 000000c0H
	push	ebx
	push	esi
	push	edi
	lea	edi, DWORD PTR [ebp-192]
	mov	ecx, 48					; 00000030H
	mov	eax, -858993460				; ccccccccH
	rep stosd

; 6891 :    #ifndef STBI_NO_JPEG
; 6892 :    if (stbi__jpeg_info(s, x, y, comp)) return 1;

	mov	eax, DWORD PTR _comp$[ebp]
	push	eax
	mov	ecx, DWORD PTR _y$[ebp]
	push	ecx
	mov	edx, DWORD PTR _x$[ebp]
	push	edx
	mov	eax, DWORD PTR _s$[ebp]
	push	eax
	call	_stbi__jpeg_info
	add	esp, 16					; 00000010H
	test	eax, eax
	je	SHORT $LN4@stbi__info
	mov	eax, 1
	jmp	SHORT $LN5@stbi__info
$LN4@stbi__info:

; 6893 :    #endif
; 6894 : 
; 6895 :    #ifndef STBI_NO_PNG
; 6896 :    if (stbi__png_info(s, x, y, comp))  return 1;

	mov	eax, DWORD PTR _comp$[ebp]
	push	eax
	mov	ecx, DWORD PTR _y$[ebp]
	push	ecx
	mov	edx, DWORD PTR _x$[ebp]
	push	edx
	mov	eax, DWORD PTR _s$[ebp]
	push	eax
	call	_stbi__png_info
	add	esp, 16					; 00000010H
	test	eax, eax
	je	SHORT $LN3@stbi__info
	mov	eax, 1
	jmp	SHORT $LN5@stbi__info
$LN3@stbi__info:

; 6897 :    #endif
; 6898 : 
; 6899 :    #ifndef STBI_NO_GIF
; 6900 :    if (stbi__gif_info(s, x, y, comp))  return 1;
; 6901 :    #endif
; 6902 : 
; 6903 :    #ifndef STBI_NO_BMP
; 6904 :    if (stbi__bmp_info(s, x, y, comp))  return 1;

	mov	eax, DWORD PTR _comp$[ebp]
	push	eax
	mov	ecx, DWORD PTR _y$[ebp]
	push	ecx
	mov	edx, DWORD PTR _x$[ebp]
	push	edx
	mov	eax, DWORD PTR _s$[ebp]
	push	eax
	call	_stbi__bmp_info
	add	esp, 16					; 00000010H
	test	eax, eax
	je	SHORT $LN2@stbi__info
	mov	eax, 1
	jmp	SHORT $LN5@stbi__info
$LN2@stbi__info:

; 6905 :    #endif
; 6906 : 
; 6907 :    #ifndef STBI_NO_PSD
; 6908 :    if (stbi__psd_info(s, x, y, comp))  return 1;
; 6909 :    #endif
; 6910 : 
; 6911 :    #ifndef STBI_NO_PIC
; 6912 :    if (stbi__pic_info(s, x, y, comp))  return 1;
; 6913 :    #endif
; 6914 : 
; 6915 :    #ifndef STBI_NO_PNM
; 6916 :    if (stbi__pnm_info(s, x, y, comp))  return 1;
; 6917 :    #endif
; 6918 : 
; 6919 :    #ifndef STBI_NO_HDR
; 6920 :    if (stbi__hdr_info(s, x, y, comp))  return 1;
; 6921 :    #endif
; 6922 : 
; 6923 :    // test tga last because it's a crappy test!
; 6924 :    #ifndef STBI_NO_TGA
; 6925 :    if (stbi__tga_info(s, x, y, comp))

	mov	eax, DWORD PTR _comp$[ebp]
	push	eax
	mov	ecx, DWORD PTR _y$[ebp]
	push	ecx
	mov	edx, DWORD PTR _x$[ebp]
	push	edx
	mov	eax, DWORD PTR _s$[ebp]
	push	eax
	call	_stbi__tga_info
	add	esp, 16					; 00000010H
	test	eax, eax
	je	SHORT $LN1@stbi__info

; 6926 :        return 1;

	mov	eax, 1
	jmp	SHORT $LN5@stbi__info
$LN1@stbi__info:

; 6927 :    #endif
; 6928 :    return stbi__err("unknown image type", "Image not of any known type, or corrupt");

	push	OFFSET ??_C@_0BD@CBEDEJPH@unknown?5image?5type?$AA@
	call	_stbi__err
	add	esp, 4
$LN5@stbi__info:

; 6929 : }

	pop	edi
	pop	esi
	pop	ebx
	add	esp, 192				; 000000c0H
	cmp	ebp, esp
	call	__RTC_CheckEsp
	mov	esp, ebp
	pop	ebp
	ret	0
_stbi__info_main ENDP
_TEXT	ENDS
; Function compile flags: /Odtp /RTCsu /ZI
; File c:\users\marcos\desktop\prj\mgear-1\apis\stb\stb_image.h
;	COMDAT _stbi__tga_read_rgb16
_TEXT	SEGMENT
_b$ = -56						; size = 4
_g$ = -44						; size = 4
_r$ = -32						; size = 4
_fiveBitMask$ = -20					; size = 2
_px$ = -8						; size = 2
_s$ = 8							; size = 4
_out$ = 12						; size = 4
_stbi__tga_read_rgb16 PROC				; COMDAT

; 5350 : {

	push	ebp
	mov	ebp, esp
	sub	esp, 252				; 000000fcH
	push	ebx
	push	esi
	push	edi
	lea	edi, DWORD PTR [ebp-252]
	mov	ecx, 63					; 0000003fH
	mov	eax, -858993460				; ccccccccH
	rep stosd

; 5351 :    stbi__uint16 px = (stbi__uint16)stbi__get16le(s);

	mov	eax, DWORD PTR _s$[ebp]
	push	eax
	call	_stbi__get16le
	add	esp, 4
	mov	WORD PTR _px$[ebp], ax

; 5352 :    stbi__uint16 fiveBitMask = 31;

	mov	eax, 31					; 0000001fH
	mov	WORD PTR _fiveBitMask$[ebp], ax

; 5353 :    // we have 3 channels with 5bits each
; 5354 :    int r = (px >> 10) & fiveBitMask;

	movzx	eax, WORD PTR _px$[ebp]
	sar	eax, 10					; 0000000aH
	movzx	ecx, WORD PTR _fiveBitMask$[ebp]
	and	eax, ecx
	mov	DWORD PTR _r$[ebp], eax

; 5355 :    int g = (px >> 5) & fiveBitMask;

	movzx	eax, WORD PTR _px$[ebp]
	sar	eax, 5
	movzx	ecx, WORD PTR _fiveBitMask$[ebp]
	and	eax, ecx
	mov	DWORD PTR _g$[ebp], eax

; 5356 :    int b = px & fiveBitMask;

	movzx	eax, WORD PTR _px$[ebp]
	movzx	ecx, WORD PTR _fiveBitMask$[ebp]
	and	eax, ecx
	mov	DWORD PTR _b$[ebp], eax

; 5357 :    // Note that this saves the data in RGB(A) order, so it doesn't need to be swapped later
; 5358 :    out[0] = (stbi_uc)((r * 255)/31);

	imul	eax, DWORD PTR _r$[ebp], 255
	cdq
	mov	ecx, 31					; 0000001fH
	idiv	ecx
	mov	edx, 1
	imul	ecx, edx, 0
	mov	edx, DWORD PTR _out$[ebp]
	mov	BYTE PTR [edx+ecx], al

; 5359 :    out[1] = (stbi_uc)((g * 255)/31);

	imul	eax, DWORD PTR _g$[ebp], 255
	cdq
	mov	ecx, 31					; 0000001fH
	idiv	ecx
	mov	edx, 1
	shl	edx, 0
	mov	ecx, DWORD PTR _out$[ebp]
	mov	BYTE PTR [ecx+edx], al

; 5360 :    out[2] = (stbi_uc)((b * 255)/31);

	imul	eax, DWORD PTR _b$[ebp], 255
	cdq
	mov	ecx, 31					; 0000001fH
	idiv	ecx
	mov	edx, 1
	shl	edx, 1
	mov	ecx, DWORD PTR _out$[ebp]
	mov	BYTE PTR [ecx+edx], al

; 5361 : 
; 5362 :    // some people claim that the most significant bit might be used for alpha
; 5363 :    // (possibly if an alpha-bit is set in the "image descriptor byte")
; 5364 :    // but that only made 16bit test images completely translucent..
; 5365 :    // so let's treat all 15 and 16bit TGAs as RGB with no alpha.
; 5366 : }

	pop	edi
	pop	esi
	pop	ebx
	add	esp, 252				; 000000fcH
	cmp	ebp, esp
	call	__RTC_CheckEsp
	mov	esp, ebp
	pop	ebp
	ret	0
_stbi__tga_read_rgb16 ENDP
_TEXT	ENDS
; Function compile flags: /Odtp /RTCsu /ZI
; File c:\users\marcos\desktop\prj\mgear-1\apis\stb\stb_image.h
;	COMDAT _stbi__tga_get_comp
_TEXT	SEGMENT
tv65 = -196						; size = 4
_bits_per_pixel$ = 8					; size = 4
_is_grey$ = 12						; size = 4
_is_rgb16$ = 16						; size = 4
_stbi__tga_get_comp PROC				; COMDAT

; 5237 : {

	push	ebp
	mov	ebp, esp
	sub	esp, 196				; 000000c4H
	push	ebx
	push	esi
	push	edi
	lea	edi, DWORD PTR [ebp-196]
	mov	ecx, 49					; 00000031H
	mov	eax, -858993460				; ccccccccH
	rep stosd

; 5238 :    // only RGB or RGBA (incl. 16bit) or grey allowed
; 5239 :    if(is_rgb16) *is_rgb16 = 0;

	cmp	DWORD PTR _is_rgb16$[ebp], 0
	je	SHORT $LN10@stbi__tga_
	mov	eax, DWORD PTR _is_rgb16$[ebp]
	mov	DWORD PTR [eax], 0
$LN10@stbi__tga_:

; 5240 :    switch(bits_per_pixel) {

	mov	eax, DWORD PTR _bits_per_pixel$[ebp]
	mov	DWORD PTR tv65[ebp], eax
	mov	ecx, DWORD PTR tv65[ebp]
	sub	ecx, 8
	mov	DWORD PTR tv65[ebp], ecx
	cmp	DWORD PTR tv65[ebp], 24			; 00000018H
	ja	SHORT $LN1@stbi__tga_
	mov	edx, DWORD PTR tv65[ebp]
	movzx	eax, BYTE PTR $LN13@stbi__tga_[edx]
	jmp	DWORD PTR $LN14@stbi__tga_[eax*4]
$LN7@stbi__tga_:

; 5241 :       case 8:  return STBI_grey;

	mov	eax, 1
	jmp	SHORT $LN11@stbi__tga_
$LN6@stbi__tga_:

; 5242 :       case 16: if(is_grey) return STBI_grey_alpha;

	cmp	DWORD PTR _is_grey$[ebp], 0
	je	SHORT $LN4@stbi__tga_
	mov	eax, 2
	jmp	SHORT $LN11@stbi__tga_
$LN4@stbi__tga_:

; 5243 :             // else: fall-through
; 5244 :       case 15: if(is_rgb16) *is_rgb16 = 1;

	cmp	DWORD PTR _is_rgb16$[ebp], 0
	je	SHORT $LN3@stbi__tga_
	mov	eax, DWORD PTR _is_rgb16$[ebp]
	mov	DWORD PTR [eax], 1
$LN3@stbi__tga_:

; 5245 :             return STBI_rgb;

	mov	eax, 3
	jmp	SHORT $LN11@stbi__tga_
$LN2@stbi__tga_:

; 5246 :       case 24: // fall-through
; 5247 :       case 32: return bits_per_pixel/8;

	mov	eax, DWORD PTR _bits_per_pixel$[ebp]
	cdq
	and	edx, 7
	add	eax, edx
	sar	eax, 3
	jmp	SHORT $LN11@stbi__tga_
$LN1@stbi__tga_:

; 5248 :       default: return 0;

	xor	eax, eax
$LN11@stbi__tga_:

; 5249 :    }
; 5250 : }

	pop	edi
	pop	esi
	pop	ebx
	mov	esp, ebp
	pop	ebp
	ret	0
	npad	1
$LN14@stbi__tga_:
	DD	$LN7@stbi__tga_
	DD	$LN4@stbi__tga_
	DD	$LN6@stbi__tga_
	DD	$LN2@stbi__tga_
	DD	$LN1@stbi__tga_
$LN13@stbi__tga_:
	DB	0
	DB	4
	DB	4
	DB	4
	DB	4
	DB	4
	DB	4
	DB	1
	DB	2
	DB	4
	DB	4
	DB	4
	DB	4
	DB	4
	DB	4
	DB	4
	DB	3
	DB	4
	DB	4
	DB	4
	DB	4
	DB	4
	DB	4
	DB	4
	DB	3
_stbi__tga_get_comp ENDP
_TEXT	ENDS
; Function compile flags: /Odtp /RTCsu /ZI
; File c:\users\marcos\desktop\prj\mgear-1\apis\stb\stb_image.h
;	COMDAT _stbi__bmp_parse_header
_TEXT	SEGMENT
tv224 = -232						; size = 4
tv218 = -232						; size = 4
tv214 = -232						; size = 4
tv167 = -232						; size = 4
tv158 = -232						; size = 4
tv149 = -232						; size = 4
tv129 = -232						; size = 4
tv75 = -232						; size = 4
_i$1 = -32						; size = 4
_compress$2 = -20					; size = 4
_hsz$ = -8						; size = 4
_s$ = 8							; size = 4
_info$ = 12						; size = 4
_stbi__bmp_parse_header PROC				; COMDAT

; 4990 : {

	push	ebp
	mov	ebp, esp
	sub	esp, 232				; 000000e8H
	push	ebx
	push	esi
	push	edi
	lea	edi, DWORD PTR [ebp-232]
	mov	ecx, 58					; 0000003aH
	mov	eax, -858993460				; ccccccccH
	rep stosd

; 4991 :    int hsz;
; 4992 :    if (stbi__get8(s) != 'B' || stbi__get8(s) != 'M') return stbi__errpuc("not BMP", "Corrupt BMP");

	mov	eax, DWORD PTR _s$[ebp]
	push	eax
	call	_stbi__get8
	add	esp, 4
	movzx	ecx, al
	cmp	ecx, 66					; 00000042H
	jne	SHORT $LN27@stbi__bmp_
	mov	eax, DWORD PTR _s$[ebp]
	push	eax
	call	_stbi__get8
	add	esp, 4
	movzx	ecx, al
	cmp	ecx, 77					; 0000004dH
	je	SHORT $LN28@stbi__bmp_
$LN27@stbi__bmp_:
	push	OFFSET ??_C@_07IANEBNLB@not?5BMP?$AA@
	call	_stbi__err
	add	esp, 4
	test	eax, eax
	je	SHORT $LN31@stbi__bmp_
	mov	DWORD PTR tv75[ebp], 0
	jmp	SHORT $LN32@stbi__bmp_
$LN31@stbi__bmp_:
	mov	DWORD PTR tv75[ebp], 0
$LN32@stbi__bmp_:
	mov	eax, DWORD PTR tv75[ebp]
	jmp	$LN29@stbi__bmp_
$LN28@stbi__bmp_:

; 4993 :    stbi__get32le(s); // discard filesize

	mov	eax, DWORD PTR _s$[ebp]
	push	eax
	call	_stbi__get32le
	add	esp, 4

; 4994 :    stbi__get16le(s); // discard reserved

	mov	eax, DWORD PTR _s$[ebp]
	push	eax
	call	_stbi__get16le
	add	esp, 4

; 4995 :    stbi__get16le(s); // discard reserved

	mov	eax, DWORD PTR _s$[ebp]
	push	eax
	call	_stbi__get16le
	add	esp, 4

; 4996 :    info->offset = stbi__get32le(s);

	mov	eax, DWORD PTR _s$[ebp]
	push	eax
	call	_stbi__get32le
	add	esp, 4
	mov	ecx, DWORD PTR _info$[ebp]
	mov	DWORD PTR [ecx+4], eax

; 4997 :    info->hsz = hsz = stbi__get32le(s);

	mov	eax, DWORD PTR _s$[ebp]
	push	eax
	call	_stbi__get32le
	add	esp, 4
	mov	DWORD PTR _hsz$[ebp], eax
	mov	ecx, DWORD PTR _info$[ebp]
	mov	edx, DWORD PTR _hsz$[ebp]
	mov	DWORD PTR [ecx+8], edx

; 4998 :    info->mr = info->mg = info->mb = info->ma = 0;

	mov	eax, DWORD PTR _info$[ebp]
	mov	DWORD PTR [eax+24], 0
	mov	ecx, DWORD PTR _info$[ebp]
	mov	DWORD PTR [ecx+20], 0
	mov	edx, DWORD PTR _info$[ebp]
	mov	DWORD PTR [edx+16], 0
	mov	eax, DWORD PTR _info$[ebp]
	mov	DWORD PTR [eax+12], 0

; 4999 : 
; 5000 :    if (hsz != 12 && hsz != 40 && hsz != 56 && hsz != 108 && hsz != 124) return stbi__errpuc("unknown BMP", "BMP type not supported: unknown");

	cmp	DWORD PTR _hsz$[ebp], 12		; 0000000cH
	je	SHORT $LN26@stbi__bmp_
	cmp	DWORD PTR _hsz$[ebp], 40		; 00000028H
	je	SHORT $LN26@stbi__bmp_
	cmp	DWORD PTR _hsz$[ebp], 56		; 00000038H
	je	SHORT $LN26@stbi__bmp_
	cmp	DWORD PTR _hsz$[ebp], 108		; 0000006cH
	je	SHORT $LN26@stbi__bmp_
	cmp	DWORD PTR _hsz$[ebp], 124		; 0000007cH
	je	SHORT $LN26@stbi__bmp_
	push	OFFSET ??_C@_0M@KHBIBJBG@unknown?5BMP?$AA@
	call	_stbi__err
	add	esp, 4
	test	eax, eax
	je	SHORT $LN33@stbi__bmp_
	mov	DWORD PTR tv129[ebp], 0
	jmp	SHORT $LN34@stbi__bmp_
$LN33@stbi__bmp_:
	mov	DWORD PTR tv129[ebp], 0
$LN34@stbi__bmp_:
	mov	eax, DWORD PTR tv129[ebp]
	jmp	$LN29@stbi__bmp_
$LN26@stbi__bmp_:

; 5001 :    if (hsz == 12) {

	cmp	DWORD PTR _hsz$[ebp], 12		; 0000000cH
	jne	SHORT $LN25@stbi__bmp_

; 5002 :       s->img_x = stbi__get16le(s);

	mov	eax, DWORD PTR _s$[ebp]
	push	eax
	call	_stbi__get16le
	add	esp, 4
	mov	ecx, DWORD PTR _s$[ebp]
	mov	DWORD PTR [ecx], eax

; 5003 :       s->img_y = stbi__get16le(s);

	mov	eax, DWORD PTR _s$[ebp]
	push	eax
	call	_stbi__get16le
	add	esp, 4
	mov	ecx, DWORD PTR _s$[ebp]
	mov	DWORD PTR [ecx+4], eax

; 5004 :    } else {

	jmp	SHORT $LN24@stbi__bmp_
$LN25@stbi__bmp_:

; 5005 :       s->img_x = stbi__get32le(s);

	mov	eax, DWORD PTR _s$[ebp]
	push	eax
	call	_stbi__get32le
	add	esp, 4
	mov	ecx, DWORD PTR _s$[ebp]
	mov	DWORD PTR [ecx], eax

; 5006 :       s->img_y = stbi__get32le(s);

	mov	eax, DWORD PTR _s$[ebp]
	push	eax
	call	_stbi__get32le
	add	esp, 4
	mov	ecx, DWORD PTR _s$[ebp]
	mov	DWORD PTR [ecx+4], eax
$LN24@stbi__bmp_:

; 5007 :    }
; 5008 :    if (stbi__get16le(s) != 1) return stbi__errpuc("bad BMP", "bad BMP");

	mov	eax, DWORD PTR _s$[ebp]
	push	eax
	call	_stbi__get16le
	add	esp, 4
	cmp	eax, 1
	je	SHORT $LN23@stbi__bmp_
	push	OFFSET ??_C@_07IEJCHBDI@bad?5BMP?$AA@
	call	_stbi__err
	add	esp, 4
	test	eax, eax
	je	SHORT $LN35@stbi__bmp_
	mov	DWORD PTR tv149[ebp], 0
	jmp	SHORT $LN36@stbi__bmp_
$LN35@stbi__bmp_:
	mov	DWORD PTR tv149[ebp], 0
$LN36@stbi__bmp_:
	mov	eax, DWORD PTR tv149[ebp]
	jmp	$LN29@stbi__bmp_
$LN23@stbi__bmp_:

; 5009 :    info->bpp = stbi__get16le(s);

	mov	eax, DWORD PTR _s$[ebp]
	push	eax
	call	_stbi__get16le
	add	esp, 4
	mov	ecx, DWORD PTR _info$[ebp]
	mov	DWORD PTR [ecx], eax

; 5010 :    if (info->bpp == 1) return stbi__errpuc("monochrome", "BMP type not supported: 1-bit");

	mov	eax, DWORD PTR _info$[ebp]
	cmp	DWORD PTR [eax], 1
	jne	SHORT $LN22@stbi__bmp_
	push	OFFSET ??_C@_0L@FEJFGKNE@monochrome?$AA@
	call	_stbi__err
	add	esp, 4
	test	eax, eax
	je	SHORT $LN37@stbi__bmp_
	mov	DWORD PTR tv158[ebp], 0
	jmp	SHORT $LN38@stbi__bmp_
$LN37@stbi__bmp_:
	mov	DWORD PTR tv158[ebp], 0
$LN38@stbi__bmp_:
	mov	eax, DWORD PTR tv158[ebp]
	jmp	$LN29@stbi__bmp_
$LN22@stbi__bmp_:

; 5011 :    if (hsz != 12) {

	cmp	DWORD PTR _hsz$[ebp], 12		; 0000000cH
	je	$LN21@stbi__bmp_

; 5012 :       int compress = stbi__get32le(s);

	mov	eax, DWORD PTR _s$[ebp]
	push	eax
	call	_stbi__get32le
	add	esp, 4
	mov	DWORD PTR _compress$2[ebp], eax

; 5013 :       if (compress == 1 || compress == 2) return stbi__errpuc("BMP RLE", "BMP type not supported: RLE");

	cmp	DWORD PTR _compress$2[ebp], 1
	je	SHORT $LN19@stbi__bmp_
	cmp	DWORD PTR _compress$2[ebp], 2
	jne	SHORT $LN20@stbi__bmp_
$LN19@stbi__bmp_:
	push	OFFSET ??_C@_07IMHMNOIB@BMP?5RLE?$AA@
	call	_stbi__err
	add	esp, 4
	test	eax, eax
	je	SHORT $LN39@stbi__bmp_
	mov	DWORD PTR tv167[ebp], 0
	jmp	SHORT $LN40@stbi__bmp_
$LN39@stbi__bmp_:
	mov	DWORD PTR tv167[ebp], 0
$LN40@stbi__bmp_:
	mov	eax, DWORD PTR tv167[ebp]
	jmp	$LN29@stbi__bmp_
$LN20@stbi__bmp_:

; 5014 :       stbi__get32le(s); // discard sizeof

	mov	eax, DWORD PTR _s$[ebp]
	push	eax
	call	_stbi__get32le
	add	esp, 4

; 5015 :       stbi__get32le(s); // discard hres

	mov	eax, DWORD PTR _s$[ebp]
	push	eax
	call	_stbi__get32le
	add	esp, 4

; 5016 :       stbi__get32le(s); // discard vres

	mov	eax, DWORD PTR _s$[ebp]
	push	eax
	call	_stbi__get32le
	add	esp, 4

; 5017 :       stbi__get32le(s); // discard colorsused

	mov	eax, DWORD PTR _s$[ebp]
	push	eax
	call	_stbi__get32le
	add	esp, 4

; 5018 :       stbi__get32le(s); // discard max important

	mov	eax, DWORD PTR _s$[ebp]
	push	eax
	call	_stbi__get32le
	add	esp, 4

; 5019 :       if (hsz == 40 || hsz == 56) {

	cmp	DWORD PTR _hsz$[ebp], 40		; 00000028H
	je	SHORT $LN17@stbi__bmp_
	cmp	DWORD PTR _hsz$[ebp], 56		; 00000038H
	jne	$LN18@stbi__bmp_
$LN17@stbi__bmp_:

; 5020 :          if (hsz == 56) {

	cmp	DWORD PTR _hsz$[ebp], 56		; 00000038H
	jne	SHORT $LN16@stbi__bmp_

; 5021 :             stbi__get32le(s);

	mov	eax, DWORD PTR _s$[ebp]
	push	eax
	call	_stbi__get32le
	add	esp, 4

; 5022 :             stbi__get32le(s);

	mov	eax, DWORD PTR _s$[ebp]
	push	eax
	call	_stbi__get32le
	add	esp, 4

; 5023 :             stbi__get32le(s);

	mov	eax, DWORD PTR _s$[ebp]
	push	eax
	call	_stbi__get32le
	add	esp, 4

; 5024 :             stbi__get32le(s);

	mov	eax, DWORD PTR _s$[ebp]
	push	eax
	call	_stbi__get32le
	add	esp, 4
$LN16@stbi__bmp_:

; 5025 :          }
; 5026 :          if (info->bpp == 16 || info->bpp == 32) {

	mov	eax, DWORD PTR _info$[ebp]
	cmp	DWORD PTR [eax], 16			; 00000010H
	je	SHORT $LN14@stbi__bmp_
	mov	eax, DWORD PTR _info$[ebp]
	cmp	DWORD PTR [eax], 32			; 00000020H
	jne	$LN15@stbi__bmp_
$LN14@stbi__bmp_:

; 5027 :             if (compress == 0) {

	cmp	DWORD PTR _compress$2[ebp], 0
	jne	SHORT $LN13@stbi__bmp_

; 5028 :                if (info->bpp == 32) {

	mov	eax, DWORD PTR _info$[ebp]
	cmp	DWORD PTR [eax], 32			; 00000020H
	jne	SHORT $LN12@stbi__bmp_

; 5029 :                   info->mr = 0xffu << 16;

	mov	eax, DWORD PTR _info$[ebp]
	mov	DWORD PTR [eax+12], 16711680		; 00ff0000H

; 5030 :                   info->mg = 0xffu <<  8;

	mov	eax, DWORD PTR _info$[ebp]
	mov	DWORD PTR [eax+16], 65280		; 0000ff00H

; 5031 :                   info->mb = 0xffu <<  0;

	mov	eax, DWORD PTR _info$[ebp]
	mov	DWORD PTR [eax+20], 255			; 000000ffH

; 5032 :                   info->ma = 0xffu << 24;

	mov	eax, DWORD PTR _info$[ebp]
	mov	DWORD PTR [eax+24], -16777216		; ff000000H

; 5033 :                   info->all_a = 0; // if all_a is 0 at end, then we loaded alpha channel but it was all 0

	mov	eax, DWORD PTR _info$[ebp]
	mov	DWORD PTR [eax+28], 0

; 5034 :                } else {

	jmp	SHORT $LN11@stbi__bmp_
$LN12@stbi__bmp_:

; 5035 :                   info->mr = 31u << 10;

	mov	eax, DWORD PTR _info$[ebp]
	mov	DWORD PTR [eax+12], 31744		; 00007c00H

; 5036 :                   info->mg = 31u <<  5;

	mov	eax, DWORD PTR _info$[ebp]
	mov	DWORD PTR [eax+16], 992			; 000003e0H

; 5037 :                   info->mb = 31u <<  0;

	mov	eax, DWORD PTR _info$[ebp]
	mov	DWORD PTR [eax+20], 31			; 0000001fH
$LN11@stbi__bmp_:

; 5038 :                }

	jmp	$LN15@stbi__bmp_
$LN13@stbi__bmp_:

; 5039 :             } else if (compress == 3) {

	cmp	DWORD PTR _compress$2[ebp], 3
	jne	$LN9@stbi__bmp_

; 5040 :                info->mr = stbi__get32le(s);

	mov	eax, DWORD PTR _s$[ebp]
	push	eax
	call	_stbi__get32le
	add	esp, 4
	mov	ecx, DWORD PTR _info$[ebp]
	mov	DWORD PTR [ecx+12], eax

; 5041 :                info->mg = stbi__get32le(s);

	mov	eax, DWORD PTR _s$[ebp]
	push	eax
	call	_stbi__get32le
	add	esp, 4
	mov	ecx, DWORD PTR _info$[ebp]
	mov	DWORD PTR [ecx+16], eax

; 5042 :                info->mb = stbi__get32le(s);

	mov	eax, DWORD PTR _s$[ebp]
	push	eax
	call	_stbi__get32le
	add	esp, 4
	mov	ecx, DWORD PTR _info$[ebp]
	mov	DWORD PTR [ecx+20], eax

; 5043 :                // not documented, but generated by photoshop and handled by mspaint
; 5044 :                if (info->mr == info->mg && info->mg == info->mb) {

	mov	eax, DWORD PTR _info$[ebp]
	mov	ecx, DWORD PTR _info$[ebp]
	mov	edx, DWORD PTR [eax+12]
	cmp	edx, DWORD PTR [ecx+16]
	jne	SHORT $LN8@stbi__bmp_
	mov	eax, DWORD PTR _info$[ebp]
	mov	ecx, DWORD PTR _info$[ebp]
	mov	edx, DWORD PTR [eax+16]
	cmp	edx, DWORD PTR [ecx+20]
	jne	SHORT $LN8@stbi__bmp_

; 5045 :                   // ?!?!?
; 5046 :                   return stbi__errpuc("bad BMP", "bad BMP");

	push	OFFSET ??_C@_07IEJCHBDI@bad?5BMP?$AA@
	call	_stbi__err
	add	esp, 4
	test	eax, eax
	je	SHORT $LN41@stbi__bmp_
	mov	DWORD PTR tv214[ebp], 0
	jmp	SHORT $LN42@stbi__bmp_
$LN41@stbi__bmp_:
	mov	DWORD PTR tv214[ebp], 0
$LN42@stbi__bmp_:
	mov	eax, DWORD PTR tv214[ebp]
	jmp	$LN29@stbi__bmp_
$LN8@stbi__bmp_:

; 5047 :                }
; 5048 :             } else

	jmp	SHORT $LN15@stbi__bmp_
$LN9@stbi__bmp_:

; 5049 :                return stbi__errpuc("bad BMP", "bad BMP");

	push	OFFSET ??_C@_07IEJCHBDI@bad?5BMP?$AA@
	call	_stbi__err
	add	esp, 4
	test	eax, eax
	je	SHORT $LN43@stbi__bmp_
	mov	DWORD PTR tv218[ebp], 0
	jmp	SHORT $LN44@stbi__bmp_
$LN43@stbi__bmp_:
	mov	DWORD PTR tv218[ebp], 0
$LN44@stbi__bmp_:
	mov	eax, DWORD PTR tv218[ebp]
	jmp	$LN29@stbi__bmp_
$LN15@stbi__bmp_:

; 5050 :          }
; 5051 :       } else {

	jmp	$LN21@stbi__bmp_
$LN18@stbi__bmp_:

; 5052 :          int i;
; 5053 :          if (hsz != 108 && hsz != 124)

	cmp	DWORD PTR _hsz$[ebp], 108		; 0000006cH
	je	SHORT $LN5@stbi__bmp_
	cmp	DWORD PTR _hsz$[ebp], 124		; 0000007cH
	je	SHORT $LN5@stbi__bmp_

; 5054 :             return stbi__errpuc("bad BMP", "bad BMP");

	push	OFFSET ??_C@_07IEJCHBDI@bad?5BMP?$AA@
	call	_stbi__err
	add	esp, 4
	test	eax, eax
	je	SHORT $LN45@stbi__bmp_
	mov	DWORD PTR tv224[ebp], 0
	jmp	SHORT $LN46@stbi__bmp_
$LN45@stbi__bmp_:
	mov	DWORD PTR tv224[ebp], 0
$LN46@stbi__bmp_:
	mov	eax, DWORD PTR tv224[ebp]
	jmp	$LN29@stbi__bmp_
$LN5@stbi__bmp_:

; 5055 :          info->mr = stbi__get32le(s);

	mov	eax, DWORD PTR _s$[ebp]
	push	eax
	call	_stbi__get32le
	add	esp, 4
	mov	ecx, DWORD PTR _info$[ebp]
	mov	DWORD PTR [ecx+12], eax

; 5056 :          info->mg = stbi__get32le(s);

	mov	eax, DWORD PTR _s$[ebp]
	push	eax
	call	_stbi__get32le
	add	esp, 4
	mov	ecx, DWORD PTR _info$[ebp]
	mov	DWORD PTR [ecx+16], eax

; 5057 :          info->mb = stbi__get32le(s);

	mov	eax, DWORD PTR _s$[ebp]
	push	eax
	call	_stbi__get32le
	add	esp, 4
	mov	ecx, DWORD PTR _info$[ebp]
	mov	DWORD PTR [ecx+20], eax

; 5058 :          info->ma = stbi__get32le(s);

	mov	eax, DWORD PTR _s$[ebp]
	push	eax
	call	_stbi__get32le
	add	esp, 4
	mov	ecx, DWORD PTR _info$[ebp]
	mov	DWORD PTR [ecx+24], eax

; 5059 :          stbi__get32le(s); // discard color space

	mov	eax, DWORD PTR _s$[ebp]
	push	eax
	call	_stbi__get32le
	add	esp, 4

; 5060 :          for (i=0; i < 12; ++i)

	mov	DWORD PTR _i$1[ebp], 0
	jmp	SHORT $LN4@stbi__bmp_
$LN3@stbi__bmp_:
	mov	eax, DWORD PTR _i$1[ebp]
	add	eax, 1
	mov	DWORD PTR _i$1[ebp], eax
$LN4@stbi__bmp_:
	cmp	DWORD PTR _i$1[ebp], 12			; 0000000cH
	jge	SHORT $LN2@stbi__bmp_

; 5061 :             stbi__get32le(s); // discard color space parameters

	mov	eax, DWORD PTR _s$[ebp]
	push	eax
	call	_stbi__get32le
	add	esp, 4
	jmp	SHORT $LN3@stbi__bmp_
$LN2@stbi__bmp_:

; 5062 :          if (hsz == 124) {

	cmp	DWORD PTR _hsz$[ebp], 124		; 0000007cH
	jne	SHORT $LN21@stbi__bmp_

; 5063 :             stbi__get32le(s); // discard rendering intent

	mov	eax, DWORD PTR _s$[ebp]
	push	eax
	call	_stbi__get32le
	add	esp, 4

; 5064 :             stbi__get32le(s); // discard offset of profile data

	mov	eax, DWORD PTR _s$[ebp]
	push	eax
	call	_stbi__get32le
	add	esp, 4

; 5065 :             stbi__get32le(s); // discard size of profile data

	mov	eax, DWORD PTR _s$[ebp]
	push	eax
	call	_stbi__get32le
	add	esp, 4

; 5066 :             stbi__get32le(s); // discard reserved

	mov	eax, DWORD PTR _s$[ebp]
	push	eax
	call	_stbi__get32le
	add	esp, 4
$LN21@stbi__bmp_:

; 5067 :          }
; 5068 :       }
; 5069 :    }
; 5070 :    return (void *) 1;

	mov	eax, 1
$LN29@stbi__bmp_:

; 5071 : }

	pop	edi
	pop	esi
	pop	ebx
	add	esp, 232				; 000000e8H
	cmp	ebp, esp
	call	__RTC_CheckEsp
	mov	esp, ebp
	pop	ebp
	ret	0
_stbi__bmp_parse_header ENDP
_TEXT	ENDS
; Function compile flags: /Odtp /RTCsu /ZI
; File c:\users\marcos\desktop\prj\mgear-1\apis\stb\stb_image.h
;	COMDAT _stbi__shiftsigned
_TEXT	SEGMENT
_z$ = -20						; size = 4
_result$ = -8						; size = 4
_v$ = 8							; size = 4
_shift$ = 12						; size = 4
_bits$ = 16						; size = 4
_stbi__shiftsigned PROC					; COMDAT

; 4967 : {

	push	ebp
	mov	ebp, esp
	sub	esp, 216				; 000000d8H
	push	ebx
	push	esi
	push	edi
	lea	edi, DWORD PTR [ebp-216]
	mov	ecx, 54					; 00000036H
	mov	eax, -858993460				; ccccccccH
	rep stosd

; 4968 :    int result;
; 4969 :    int z=0;

	mov	DWORD PTR _z$[ebp], 0

; 4970 : 
; 4971 :    if (shift < 0) v <<= -shift;

	cmp	DWORD PTR _shift$[ebp], 0
	jge	SHORT $LN4@stbi__shif
	mov	ecx, DWORD PTR _shift$[ebp]
	neg	ecx
	mov	eax, DWORD PTR _v$[ebp]
	shl	eax, cl
	mov	DWORD PTR _v$[ebp], eax
	jmp	SHORT $LN3@stbi__shif
$LN4@stbi__shif:

; 4972 :    else v >>= shift;

	mov	eax, DWORD PTR _v$[ebp]
	mov	ecx, DWORD PTR _shift$[ebp]
	sar	eax, cl
	mov	DWORD PTR _v$[ebp], eax
$LN3@stbi__shif:

; 4973 :    result = v;

	mov	eax, DWORD PTR _v$[ebp]
	mov	DWORD PTR _result$[ebp], eax

; 4974 : 
; 4975 :    z = bits;

	mov	eax, DWORD PTR _bits$[ebp]
	mov	DWORD PTR _z$[ebp], eax
$LN2@stbi__shif:

; 4976 :    while (z < 8) {

	cmp	DWORD PTR _z$[ebp], 8
	jge	SHORT $LN1@stbi__shif

; 4977 :       result += v >> z;

	mov	eax, DWORD PTR _v$[ebp]
	mov	ecx, DWORD PTR _z$[ebp]
	sar	eax, cl
	add	eax, DWORD PTR _result$[ebp]
	mov	DWORD PTR _result$[ebp], eax

; 4978 :       z += bits;

	mov	eax, DWORD PTR _z$[ebp]
	add	eax, DWORD PTR _bits$[ebp]
	mov	DWORD PTR _z$[ebp], eax

; 4979 :    }

	jmp	SHORT $LN2@stbi__shif
$LN1@stbi__shif:

; 4980 :    return result;

	mov	eax, DWORD PTR _result$[ebp]

; 4981 : }

	pop	edi
	pop	esi
	pop	ebx
	mov	esp, ebp
	pop	ebp
	ret	0
_stbi__shiftsigned ENDP
_TEXT	ENDS
; Function compile flags: /Odtp /RTCsu /ZI
; File c:\users\marcos\desktop\prj\mgear-1\apis\stb\stb_image.h
;	COMDAT _stbi__bitcount
_TEXT	SEGMENT
_a$ = 8							; size = 4
_stbi__bitcount PROC					; COMDAT

; 4957 : {

	push	ebp
	mov	ebp, esp
	sub	esp, 192				; 000000c0H
	push	ebx
	push	esi
	push	edi
	lea	edi, DWORD PTR [ebp-192]
	mov	ecx, 48					; 00000030H
	mov	eax, -858993460				; ccccccccH
	rep stosd

; 4958 :    a = (a & 0x55555555) + ((a >>  1) & 0x55555555); // max 2

	mov	eax, DWORD PTR _a$[ebp]
	and	eax, 1431655765				; 55555555H
	mov	ecx, DWORD PTR _a$[ebp]
	shr	ecx, 1
	and	ecx, 1431655765				; 55555555H
	add	eax, ecx
	mov	DWORD PTR _a$[ebp], eax

; 4959 :    a = (a & 0x33333333) + ((a >>  2) & 0x33333333); // max 4

	mov	eax, DWORD PTR _a$[ebp]
	and	eax, 858993459				; 33333333H
	mov	ecx, DWORD PTR _a$[ebp]
	shr	ecx, 2
	and	ecx, 858993459				; 33333333H
	add	eax, ecx
	mov	DWORD PTR _a$[ebp], eax

; 4960 :    a = (a + (a >> 4)) & 0x0f0f0f0f; // max 8 per 4, now 8 bits

	mov	eax, DWORD PTR _a$[ebp]
	shr	eax, 4
	add	eax, DWORD PTR _a$[ebp]
	and	eax, 252645135				; 0f0f0f0fH
	mov	DWORD PTR _a$[ebp], eax

; 4961 :    a = (a + (a >> 8)); // max 16 per 8 bits

	mov	eax, DWORD PTR _a$[ebp]
	shr	eax, 8
	add	eax, DWORD PTR _a$[ebp]
	mov	DWORD PTR _a$[ebp], eax

; 4962 :    a = (a + (a >> 16)); // max 32 per 8 bits

	mov	eax, DWORD PTR _a$[ebp]
	shr	eax, 16					; 00000010H
	add	eax, DWORD PTR _a$[ebp]
	mov	DWORD PTR _a$[ebp], eax

; 4963 :    return a & 0xff;

	mov	eax, DWORD PTR _a$[ebp]
	and	eax, 255				; 000000ffH

; 4964 : }

	pop	edi
	pop	esi
	pop	ebx
	mov	esp, ebp
	pop	ebp
	ret	0
_stbi__bitcount ENDP
_TEXT	ENDS
; Function compile flags: /Odtp /RTCsu /ZI
; File c:\users\marcos\desktop\prj\mgear-1\apis\stb\stb_image.h
;	COMDAT _stbi__high_bit
_TEXT	SEGMENT
_n$ = -8						; size = 4
_z$ = 8							; size = 4
_stbi__high_bit PROC					; COMDAT

; 4945 : {

	push	ebp
	mov	ebp, esp
	sub	esp, 204				; 000000ccH
	push	ebx
	push	esi
	push	edi
	lea	edi, DWORD PTR [ebp-204]
	mov	ecx, 51					; 00000033H
	mov	eax, -858993460				; ccccccccH
	rep stosd

; 4946 :    int n=0;

	mov	DWORD PTR _n$[ebp], 0

; 4947 :    if (z == 0) return -1;

	cmp	DWORD PTR _z$[ebp], 0
	jne	SHORT $LN6@stbi__high
	or	eax, -1
	jmp	$LN7@stbi__high
$LN6@stbi__high:

; 4948 :    if (z >= 0x10000) n += 16, z >>= 16;

	cmp	DWORD PTR _z$[ebp], 65536		; 00010000H
	jb	SHORT $LN5@stbi__high
	mov	eax, DWORD PTR _n$[ebp]
	add	eax, 16					; 00000010H
	mov	DWORD PTR _n$[ebp], eax
	mov	ecx, DWORD PTR _z$[ebp]
	shr	ecx, 16					; 00000010H
	mov	DWORD PTR _z$[ebp], ecx
$LN5@stbi__high:

; 4949 :    if (z >= 0x00100) n +=  8, z >>=  8;

	cmp	DWORD PTR _z$[ebp], 256			; 00000100H
	jb	SHORT $LN4@stbi__high
	mov	eax, DWORD PTR _n$[ebp]
	add	eax, 8
	mov	DWORD PTR _n$[ebp], eax
	mov	ecx, DWORD PTR _z$[ebp]
	shr	ecx, 8
	mov	DWORD PTR _z$[ebp], ecx
$LN4@stbi__high:

; 4950 :    if (z >= 0x00010) n +=  4, z >>=  4;

	cmp	DWORD PTR _z$[ebp], 16			; 00000010H
	jb	SHORT $LN3@stbi__high
	mov	eax, DWORD PTR _n$[ebp]
	add	eax, 4
	mov	DWORD PTR _n$[ebp], eax
	mov	ecx, DWORD PTR _z$[ebp]
	shr	ecx, 4
	mov	DWORD PTR _z$[ebp], ecx
$LN3@stbi__high:

; 4951 :    if (z >= 0x00004) n +=  2, z >>=  2;

	cmp	DWORD PTR _z$[ebp], 4
	jb	SHORT $LN2@stbi__high
	mov	eax, DWORD PTR _n$[ebp]
	add	eax, 2
	mov	DWORD PTR _n$[ebp], eax
	mov	ecx, DWORD PTR _z$[ebp]
	shr	ecx, 2
	mov	DWORD PTR _z$[ebp], ecx
$LN2@stbi__high:

; 4952 :    if (z >= 0x00002) n +=  1, z >>=  1;

	cmp	DWORD PTR _z$[ebp], 2
	jb	SHORT $LN1@stbi__high
	mov	eax, DWORD PTR _n$[ebp]
	add	eax, 1
	mov	DWORD PTR _n$[ebp], eax
	mov	ecx, DWORD PTR _z$[ebp]
	shr	ecx, 1
	mov	DWORD PTR _z$[ebp], ecx
$LN1@stbi__high:

; 4953 :    return n;

	mov	eax, DWORD PTR _n$[ebp]
$LN7@stbi__high:

; 4954 : }

	pop	edi
	pop	esi
	pop	ebx
	mov	esp, ebp
	pop	ebp
	ret	0
_stbi__high_bit ENDP
_TEXT	ENDS
; Function compile flags: /Odtp /RTCsu /ZI
; File c:\users\marcos\desktop\prj\mgear-1\apis\stb\stb_image.h
;	COMDAT _stbi__bmp_test_raw
_TEXT	SEGMENT
tv83 = -220						; size = 4
_sz$ = -20						; size = 4
_r$ = -8						; size = 4
_s$ = 8							; size = 4
_stbi__bmp_test_raw PROC				; COMDAT

; 4921 : {

	push	ebp
	mov	ebp, esp
	sub	esp, 220				; 000000dcH
	push	ebx
	push	esi
	push	edi
	lea	edi, DWORD PTR [ebp-220]
	mov	ecx, 55					; 00000037H
	mov	eax, -858993460				; ccccccccH
	rep stosd

; 4922 :    int r;
; 4923 :    int sz;
; 4924 :    if (stbi__get8(s) != 'B') return 0;

	mov	eax, DWORD PTR _s$[ebp]
	push	eax
	call	_stbi__get8
	add	esp, 4
	movzx	ecx, al
	cmp	ecx, 66					; 00000042H
	je	SHORT $LN2@stbi__bmp_
	xor	eax, eax
	jmp	$LN3@stbi__bmp_
$LN2@stbi__bmp_:

; 4925 :    if (stbi__get8(s) != 'M') return 0;

	mov	eax, DWORD PTR _s$[ebp]
	push	eax
	call	_stbi__get8
	add	esp, 4
	movzx	ecx, al
	cmp	ecx, 77					; 0000004dH
	je	SHORT $LN1@stbi__bmp_
	xor	eax, eax
	jmp	SHORT $LN3@stbi__bmp_
$LN1@stbi__bmp_:

; 4926 :    stbi__get32le(s); // discard filesize

	mov	eax, DWORD PTR _s$[ebp]
	push	eax
	call	_stbi__get32le
	add	esp, 4

; 4927 :    stbi__get16le(s); // discard reserved

	mov	eax, DWORD PTR _s$[ebp]
	push	eax
	call	_stbi__get16le
	add	esp, 4

; 4928 :    stbi__get16le(s); // discard reserved

	mov	eax, DWORD PTR _s$[ebp]
	push	eax
	call	_stbi__get16le
	add	esp, 4

; 4929 :    stbi__get32le(s); // discard data offset

	mov	eax, DWORD PTR _s$[ebp]
	push	eax
	call	_stbi__get32le
	add	esp, 4

; 4930 :    sz = stbi__get32le(s);

	mov	eax, DWORD PTR _s$[ebp]
	push	eax
	call	_stbi__get32le
	add	esp, 4
	mov	DWORD PTR _sz$[ebp], eax

; 4931 :    r = (sz == 12 || sz == 40 || sz == 56 || sz == 108 || sz == 124);

	cmp	DWORD PTR _sz$[ebp], 12			; 0000000cH
	je	SHORT $LN5@stbi__bmp_
	cmp	DWORD PTR _sz$[ebp], 40			; 00000028H
	je	SHORT $LN5@stbi__bmp_
	cmp	DWORD PTR _sz$[ebp], 56			; 00000038H
	je	SHORT $LN5@stbi__bmp_
	cmp	DWORD PTR _sz$[ebp], 108		; 0000006cH
	je	SHORT $LN5@stbi__bmp_
	cmp	DWORD PTR _sz$[ebp], 124		; 0000007cH
	je	SHORT $LN5@stbi__bmp_
	mov	DWORD PTR tv83[ebp], 0
	jmp	SHORT $LN6@stbi__bmp_
$LN5@stbi__bmp_:
	mov	DWORD PTR tv83[ebp], 1
$LN6@stbi__bmp_:
	mov	eax, DWORD PTR tv83[ebp]
	mov	DWORD PTR _r$[ebp], eax

; 4932 :    return r;

	mov	eax, DWORD PTR _r$[ebp]
$LN3@stbi__bmp_:

; 4933 : }

	pop	edi
	pop	esi
	pop	ebx
	add	esp, 220				; 000000dcH
	cmp	ebp, esp
	call	__RTC_CheckEsp
	mov	esp, ebp
	pop	ebp
	ret	0
_stbi__bmp_test_raw ENDP
_TEXT	ENDS
; Function compile flags: /Odtp /RTCsu /ZI
; File c:\users\marcos\desktop\prj\mgear-1\apis\stb\stb_image.h
;	COMDAT _stbi__png_info_raw
_TEXT	SEGMENT
_p$ = 8							; size = 4
_x$ = 12						; size = 4
_y$ = 16						; size = 4
_comp$ = 20						; size = 4
_stbi__png_info_raw PROC				; COMDAT

; 4898 : {

	push	ebp
	mov	ebp, esp
	sub	esp, 192				; 000000c0H
	push	ebx
	push	esi
	push	edi
	lea	edi, DWORD PTR [ebp-192]
	mov	ecx, 48					; 00000030H
	mov	eax, -858993460				; ccccccccH
	rep stosd

; 4899 :    if (!stbi__parse_png_file(p, STBI__SCAN_header, 0)) {

	push	0
	push	2
	mov	eax, DWORD PTR _p$[ebp]
	push	eax
	call	_stbi__parse_png_file
	add	esp, 12					; 0000000cH
	test	eax, eax
	jne	SHORT $LN4@stbi__png_

; 4900 :       stbi__rewind( p->s );

	mov	eax, DWORD PTR _p$[ebp]
	mov	ecx, DWORD PTR [eax]
	push	ecx
	call	_stbi__rewind
	add	esp, 4

; 4901 :       return 0;

	xor	eax, eax
	jmp	SHORT $LN5@stbi__png_
$LN4@stbi__png_:

; 4902 :    }
; 4903 :    if (x) *x = p->s->img_x;

	cmp	DWORD PTR _x$[ebp], 0
	je	SHORT $LN3@stbi__png_
	mov	eax, DWORD PTR _p$[ebp]
	mov	ecx, DWORD PTR [eax]
	mov	edx, DWORD PTR _x$[ebp]
	mov	eax, DWORD PTR [ecx]
	mov	DWORD PTR [edx], eax
$LN3@stbi__png_:

; 4904 :    if (y) *y = p->s->img_y;

	cmp	DWORD PTR _y$[ebp], 0
	je	SHORT $LN2@stbi__png_
	mov	eax, DWORD PTR _p$[ebp]
	mov	ecx, DWORD PTR [eax]
	mov	edx, DWORD PTR _y$[ebp]
	mov	eax, DWORD PTR [ecx+4]
	mov	DWORD PTR [edx], eax
$LN2@stbi__png_:

; 4905 :    if (comp) *comp = p->s->img_n;

	cmp	DWORD PTR _comp$[ebp], 0
	je	SHORT $LN1@stbi__png_
	mov	eax, DWORD PTR _p$[ebp]
	mov	ecx, DWORD PTR [eax]
	mov	edx, DWORD PTR _comp$[ebp]
	mov	eax, DWORD PTR [ecx+8]
	mov	DWORD PTR [edx], eax
$LN1@stbi__png_:

; 4906 :    return 1;

	mov	eax, 1
$LN5@stbi__png_:

; 4907 : }

	pop	edi
	pop	esi
	pop	ebx
	add	esp, 192				; 000000c0H
	cmp	ebp, esp
	call	__RTC_CheckEsp
	mov	esp, ebp
	pop	ebp
	ret	0
_stbi__png_info_raw ENDP
_TEXT	ENDS
; Function compile flags: /Odtp /RTCsu /ZI
; File c:\users\marcos\desktop\prj\mgear-1\apis\stb\stb_image.h
;	COMDAT _stbi__do_png
_TEXT	SEGMENT
tv69 = -208						; size = 4
_result$ = -8						; size = 4
_p$ = 8							; size = 4
_x$ = 12						; size = 4
_y$ = 16						; size = 4
_n$ = 20						; size = 4
_req_comp$ = 24						; size = 4
_ri$ = 28						; size = 4
_stbi__do_png PROC					; COMDAT

; 4853 : {

	push	ebp
	mov	ebp, esp
	sub	esp, 208				; 000000d0H
	push	ebx
	push	esi
	push	edi
	lea	edi, DWORD PTR [ebp-208]
	mov	ecx, 52					; 00000034H
	mov	eax, -858993460				; ccccccccH
	rep stosd

; 4854 :    void *result=NULL;

	mov	DWORD PTR _result$[ebp], 0

; 4855 :    if (req_comp < 0 || req_comp > 4) return stbi__errpuc("bad req_comp", "Internal error");

	cmp	DWORD PTR _req_comp$[ebp], 0
	jl	SHORT $LN9@stbi__do_p
	cmp	DWORD PTR _req_comp$[ebp], 4
	jle	SHORT $LN10@stbi__do_p
$LN9@stbi__do_p:
	push	OFFSET ??_C@_0N@KBPNPPBJ@bad?5req_comp?$AA@
	call	_stbi__err
	add	esp, 4
	test	eax, eax
	je	SHORT $LN13@stbi__do_p
	mov	DWORD PTR tv69[ebp], 0
	jmp	SHORT $LN14@stbi__do_p
$LN13@stbi__do_p:
	mov	DWORD PTR tv69[ebp], 0
$LN14@stbi__do_p:
	mov	eax, DWORD PTR tv69[ebp]
	jmp	$LN11@stbi__do_p
$LN10@stbi__do_p:

; 4856 :    if (stbi__parse_png_file(p, STBI__SCAN_load, req_comp)) {

	mov	eax, DWORD PTR _req_comp$[ebp]
	push	eax
	push	0
	mov	ecx, DWORD PTR _p$[ebp]
	push	ecx
	call	_stbi__parse_png_file
	add	esp, 12					; 0000000cH
	test	eax, eax
	je	$LN8@stbi__do_p

; 4857 :       if (p->depth < 8)

	mov	eax, DWORD PTR _p$[ebp]
	cmp	DWORD PTR [eax+16], 8
	jge	SHORT $LN7@stbi__do_p

; 4858 :          ri->bits_per_channel = 8;

	mov	eax, DWORD PTR _ri$[ebp]
	mov	DWORD PTR [eax], 8

; 4859 :       else

	jmp	SHORT $LN6@stbi__do_p
$LN7@stbi__do_p:

; 4860 :          ri->bits_per_channel = p->depth;

	mov	eax, DWORD PTR _ri$[ebp]
	mov	ecx, DWORD PTR _p$[ebp]
	mov	edx, DWORD PTR [ecx+16]
	mov	DWORD PTR [eax], edx
$LN6@stbi__do_p:

; 4861 :       result = p->out;

	mov	eax, DWORD PTR _p$[ebp]
	mov	ecx, DWORD PTR [eax+12]
	mov	DWORD PTR _result$[ebp], ecx

; 4862 :       p->out = NULL;

	mov	eax, DWORD PTR _p$[ebp]
	mov	DWORD PTR [eax+12], 0

; 4863 :       if (req_comp && req_comp != p->s->img_out_n) {

	cmp	DWORD PTR _req_comp$[ebp], 0
	je	$LN5@stbi__do_p
	mov	eax, DWORD PTR _p$[ebp]
	mov	ecx, DWORD PTR [eax]
	mov	edx, DWORD PTR _req_comp$[ebp]
	cmp	edx, DWORD PTR [ecx+12]
	je	SHORT $LN5@stbi__do_p

; 4864 :          if (ri->bits_per_channel == 8)

	mov	eax, DWORD PTR _ri$[ebp]
	cmp	DWORD PTR [eax], 8
	jne	SHORT $LN4@stbi__do_p

; 4865 :             result = stbi__convert_format((unsigned char *) result, p->s->img_out_n, req_comp, p->s->img_x, p->s->img_y);

	mov	eax, DWORD PTR _p$[ebp]
	mov	ecx, DWORD PTR [eax]
	mov	edx, DWORD PTR [ecx+4]
	push	edx
	mov	eax, DWORD PTR _p$[ebp]
	mov	ecx, DWORD PTR [eax]
	mov	edx, DWORD PTR [ecx]
	push	edx
	mov	eax, DWORD PTR _req_comp$[ebp]
	push	eax
	mov	ecx, DWORD PTR _p$[ebp]
	mov	edx, DWORD PTR [ecx]
	mov	eax, DWORD PTR [edx+12]
	push	eax
	mov	ecx, DWORD PTR _result$[ebp]
	push	ecx
	call	_stbi__convert_format
	add	esp, 20					; 00000014H
	mov	DWORD PTR _result$[ebp], eax

; 4866 :          else

	jmp	SHORT $LN3@stbi__do_p
$LN4@stbi__do_p:

; 4867 :             result = stbi__convert_format16((stbi__uint16 *) result, p->s->img_out_n, req_comp, p->s->img_x, p->s->img_y);

	mov	eax, DWORD PTR _p$[ebp]
	mov	ecx, DWORD PTR [eax]
	mov	edx, DWORD PTR [ecx+4]
	push	edx
	mov	eax, DWORD PTR _p$[ebp]
	mov	ecx, DWORD PTR [eax]
	mov	edx, DWORD PTR [ecx]
	push	edx
	mov	eax, DWORD PTR _req_comp$[ebp]
	push	eax
	mov	ecx, DWORD PTR _p$[ebp]
	mov	edx, DWORD PTR [ecx]
	mov	eax, DWORD PTR [edx+12]
	push	eax
	mov	ecx, DWORD PTR _result$[ebp]
	push	ecx
	call	_stbi__convert_format16
	add	esp, 20					; 00000014H
	mov	DWORD PTR _result$[ebp], eax
$LN3@stbi__do_p:

; 4868 :          p->s->img_out_n = req_comp;

	mov	eax, DWORD PTR _p$[ebp]
	mov	ecx, DWORD PTR [eax]
	mov	edx, DWORD PTR _req_comp$[ebp]
	mov	DWORD PTR [ecx+12], edx

; 4869 :          if (result == NULL) return result;

	cmp	DWORD PTR _result$[ebp], 0
	jne	SHORT $LN5@stbi__do_p
	mov	eax, DWORD PTR _result$[ebp]
	jmp	SHORT $LN11@stbi__do_p
$LN5@stbi__do_p:

; 4870 :       }
; 4871 :       *x = p->s->img_x;

	mov	eax, DWORD PTR _p$[ebp]
	mov	ecx, DWORD PTR [eax]
	mov	edx, DWORD PTR _x$[ebp]
	mov	eax, DWORD PTR [ecx]
	mov	DWORD PTR [edx], eax

; 4872 :       *y = p->s->img_y;

	mov	eax, DWORD PTR _p$[ebp]
	mov	ecx, DWORD PTR [eax]
	mov	edx, DWORD PTR _y$[ebp]
	mov	eax, DWORD PTR [ecx+4]
	mov	DWORD PTR [edx], eax

; 4873 :       if (n) *n = p->s->img_n;

	cmp	DWORD PTR _n$[ebp], 0
	je	SHORT $LN8@stbi__do_p
	mov	eax, DWORD PTR _p$[ebp]
	mov	ecx, DWORD PTR [eax]
	mov	edx, DWORD PTR _n$[ebp]
	mov	eax, DWORD PTR [ecx+8]
	mov	DWORD PTR [edx], eax
$LN8@stbi__do_p:

; 4874 :    }
; 4875 :    STBI_FREE(p->out);      p->out      = NULL;

	mov	eax, DWORD PTR _p$[ebp]
	mov	ecx, DWORD PTR [eax+12]
	push	ecx
	call	_free
	add	esp, 4
	mov	eax, DWORD PTR _p$[ebp]
	mov	DWORD PTR [eax+12], 0

; 4876 :    STBI_FREE(p->expanded); p->expanded = NULL;

	mov	eax, DWORD PTR _p$[ebp]
	mov	ecx, DWORD PTR [eax+8]
	push	ecx
	call	_free
	add	esp, 4
	mov	eax, DWORD PTR _p$[ebp]
	mov	DWORD PTR [eax+8], 0

; 4877 :    STBI_FREE(p->idata);    p->idata    = NULL;

	mov	eax, DWORD PTR _p$[ebp]
	mov	ecx, DWORD PTR [eax+4]
	push	ecx
	call	_free
	add	esp, 4
	mov	eax, DWORD PTR _p$[ebp]
	mov	DWORD PTR [eax+4], 0

; 4878 : 
; 4879 :    return result;

	mov	eax, DWORD PTR _result$[ebp]
$LN11@stbi__do_p:

; 4880 : }

	pop	edi
	pop	esi
	pop	ebx
	add	esp, 208				; 000000d0H
	cmp	ebp, esp
	call	__RTC_CheckEsp
	mov	esp, ebp
	pop	ebp
	ret	0
_stbi__do_png ENDP
_TEXT	ENDS
; Function compile flags: /Odtp /RTCsu /ZI
; File c:\users\marcos\desktop\prj\mgear-1\apis\stb\stb_image.h
;	COMDAT _stbi__parse_png_file
_TEXT	SEGMENT
tv193 = -1496						; size = 4
tv369 = -1492						; size = 4
tv325 = -1492						; size = 4
tv190 = -1492						; size = 4
tv74 = -1492						; size = 4
_bpl$1 = -1292						; size = 4
_raw_len$2 = -1280					; size = 4
_p$3 = -1268						; size = 4
_idata_limit_old$4 = -1256				; size = 4
_filter$5 = -1244					; size = 4
_comp$6 = -1232						; size = 4
_c$7 = -1220						; size = 8
_s$ = -1204						; size = 4
_is_iphone$ = -1192					; size = 4
_color$ = -1180						; size = 4
_interlace$ = -1168					; size = 4
_k$ = -1156						; size = 4
_first$ = -1144						; size = 4
_pal_len$ = -1132					; size = 4
_i$ = -1120						; size = 4
_idata_limit$ = -1108					; size = 4
_ioff$ = -1096						; size = 4
_tc16$ = -1084						; size = 6
_tc$ = -1068						; size = 3
_has_trans$ = -1053					; size = 1
_pal_img_n$ = -1041					; size = 1
_palette$ = -1032					; size = 1024
__$ArrayPad$ = -4					; size = 4
_z$ = 8							; size = 4
_scan$ = 12						; size = 4
_req_comp$ = 16						; size = 4
_stbi__parse_png_file PROC				; COMDAT

; 4681 : {

	push	ebp
	mov	ebp, esp
	sub	esp, 1496				; 000005d8H
	push	ebx
	push	esi
	push	edi
	lea	edi, DWORD PTR [ebp-1496]
	mov	ecx, 374				; 00000176H
	mov	eax, -858993460				; ccccccccH
	rep stosd
	mov	eax, DWORD PTR ___security_cookie
	xor	eax, ebp
	mov	DWORD PTR __$ArrayPad$[ebp], eax

; 4682 :    stbi_uc palette[1024], pal_img_n=0;

	mov	BYTE PTR _pal_img_n$[ebp], 0

; 4683 :    stbi_uc has_trans=0, tc[3];

	mov	BYTE PTR _has_trans$[ebp], 0

; 4684 :    stbi__uint16 tc16[3];
; 4685 :    stbi__uint32 ioff=0, idata_limit=0, i, pal_len=0;

	mov	DWORD PTR _ioff$[ebp], 0
	mov	DWORD PTR _idata_limit$[ebp], 0
	mov	DWORD PTR _pal_len$[ebp], 0

; 4686 :    int first=1,k,interlace=0, color=0, is_iphone=0;

	mov	DWORD PTR _first$[ebp], 1
	mov	DWORD PTR _interlace$[ebp], 0
	mov	DWORD PTR _color$[ebp], 0
	mov	DWORD PTR _is_iphone$[ebp], 0

; 4687 :    stbi__context *s = z->s;

	mov	eax, DWORD PTR _z$[ebp]
	mov	ecx, DWORD PTR [eax]
	mov	DWORD PTR _s$[ebp], ecx

; 4688 : 
; 4689 :    z->expanded = NULL;

	mov	eax, DWORD PTR _z$[ebp]
	mov	DWORD PTR [eax+8], 0

; 4690 :    z->idata = NULL;

	mov	eax, DWORD PTR _z$[ebp]
	mov	DWORD PTR [eax+4], 0

; 4691 :    z->out = NULL;

	mov	eax, DWORD PTR _z$[ebp]
	mov	DWORD PTR [eax+12], 0

; 4692 : 
; 4693 :    if (!stbi__check_png_header(s)) return 0;

	mov	eax, DWORD PTR _s$[ebp]
	push	eax
	call	_stbi__check_png_header
	add	esp, 4
	test	eax, eax
	jne	SHORT $LN91@stbi__pars
	xor	eax, eax
	jmp	$LN92@stbi__pars
$LN91@stbi__pars:

; 4694 : 
; 4695 :    if (scan == STBI__SCAN_type) return 1;

	cmp	DWORD PTR _scan$[ebp], 1
	jne	SHORT $LN89@stbi__pars
	mov	eax, 1
	jmp	$LN92@stbi__pars
$LN89@stbi__pars:

; 4696 : 
; 4697 :    for (;;) {
; 4698 :       stbi__pngchunk c = stbi__get_chunk_header(s);

	mov	eax, DWORD PTR _s$[ebp]
	push	eax
	call	_stbi__get_chunk_header
	add	esp, 4
	mov	DWORD PTR _c$7[ebp], eax
	mov	DWORD PTR _c$7[ebp+4], edx

; 4699 :       switch (c.type) {

	mov	eax, DWORD PTR _c$7[ebp+4]
	mov	DWORD PTR tv74[ebp], eax
	cmp	DWORD PTR tv74[ebp], 1229472850		; 49484452H
	ja	SHORT $LN102@stbi__pars
	cmp	DWORD PTR tv74[ebp], 1229472850		; 49484452H
	je	SHORT $LN84@stbi__pars
	cmp	DWORD PTR tv74[ebp], 1130840649		; 43674249H
	je	SHORT $LN85@stbi__pars
	cmp	DWORD PTR tv74[ebp], 1229209940		; 49444154H
	je	$LN35@stbi__pars
	cmp	DWORD PTR tv74[ebp], 1229278788		; 49454e44H
	je	$LN24@stbi__pars
	jmp	$LN3@stbi__pars
$LN102@stbi__pars:
	cmp	DWORD PTR tv74[ebp], 1347179589		; 504c5445H
	je	$LN63@stbi__pars
	cmp	DWORD PTR tv74[ebp], 1951551059		; 74524e53H
	je	$LN56@stbi__pars
	jmp	$LN3@stbi__pars
$LN85@stbi__pars:

; 4700 :          case STBI__PNG_TYPE('C','g','B','I'):
; 4701 :             is_iphone = 1;

	mov	DWORD PTR _is_iphone$[ebp], 1

; 4702 :             stbi__skip(s, c.length);

	mov	eax, DWORD PTR _c$7[ebp]
	push	eax
	mov	ecx, DWORD PTR _s$[ebp]
	push	ecx
	call	_stbi__skip
	add	esp, 8

; 4703 :             break;

	jmp	$LN86@stbi__pars
$LN84@stbi__pars:

; 4704 :          case STBI__PNG_TYPE('I','H','D','R'): {
; 4705 :             int comp,filter;
; 4706 :             if (!first) return stbi__err("multiple IHDR","Corrupt PNG");

	cmp	DWORD PTR _first$[ebp], 0
	jne	SHORT $LN83@stbi__pars
	push	OFFSET ??_C@_0O@KBHBNJOK@multiple?5IHDR?$AA@
	call	_stbi__err
	add	esp, 4
	jmp	$LN92@stbi__pars
$LN83@stbi__pars:

; 4707 :             first = 0;

	mov	DWORD PTR _first$[ebp], 0

; 4708 :             if (c.length != 13) return stbi__err("bad IHDR len","Corrupt PNG");

	cmp	DWORD PTR _c$7[ebp], 13			; 0000000dH
	je	SHORT $LN82@stbi__pars
	push	OFFSET ??_C@_0N@POJLKMKK@bad?5IHDR?5len?$AA@
	call	_stbi__err
	add	esp, 4
	jmp	$LN92@stbi__pars
$LN82@stbi__pars:

; 4709 :             s->img_x = stbi__get32be(s); if (s->img_x > (1 << 24)) return stbi__err("too large","Very large image (corrupt?)");

	mov	eax, DWORD PTR _s$[ebp]
	push	eax
	call	_stbi__get32be
	add	esp, 4
	mov	ecx, DWORD PTR _s$[ebp]
	mov	DWORD PTR [ecx], eax
	mov	eax, DWORD PTR _s$[ebp]
	cmp	DWORD PTR [eax], 16777216		; 01000000H
	jbe	SHORT $LN81@stbi__pars
	push	OFFSET ??_C@_09OJDLMMBJ@too?5large?$AA@
	call	_stbi__err
	add	esp, 4
	jmp	$LN92@stbi__pars
$LN81@stbi__pars:

; 4710 :             s->img_y = stbi__get32be(s); if (s->img_y > (1 << 24)) return stbi__err("too large","Very large image (corrupt?)");

	mov	eax, DWORD PTR _s$[ebp]
	push	eax
	call	_stbi__get32be
	add	esp, 4
	mov	ecx, DWORD PTR _s$[ebp]
	mov	DWORD PTR [ecx+4], eax
	mov	eax, DWORD PTR _s$[ebp]
	cmp	DWORD PTR [eax+4], 16777216		; 01000000H
	jbe	SHORT $LN80@stbi__pars
	push	OFFSET ??_C@_09OJDLMMBJ@too?5large?$AA@
	call	_stbi__err
	add	esp, 4
	jmp	$LN92@stbi__pars
$LN80@stbi__pars:

; 4711 :             z->depth = stbi__get8(s);  if (z->depth != 1 && z->depth != 2 && z->depth != 4 && z->depth != 8 && z->depth != 16)  return stbi__err("1/2/4/8/16-bit only","PNG not supported: 1/2/4/8/16-bit only");

	mov	eax, DWORD PTR _s$[ebp]
	push	eax
	call	_stbi__get8
	add	esp, 4
	movzx	ecx, al
	mov	edx, DWORD PTR _z$[ebp]
	mov	DWORD PTR [edx+16], ecx
	mov	eax, DWORD PTR _z$[ebp]
	cmp	DWORD PTR [eax+16], 1
	je	SHORT $LN79@stbi__pars
	mov	eax, DWORD PTR _z$[ebp]
	cmp	DWORD PTR [eax+16], 2
	je	SHORT $LN79@stbi__pars
	mov	eax, DWORD PTR _z$[ebp]
	cmp	DWORD PTR [eax+16], 4
	je	SHORT $LN79@stbi__pars
	mov	eax, DWORD PTR _z$[ebp]
	cmp	DWORD PTR [eax+16], 8
	je	SHORT $LN79@stbi__pars
	mov	eax, DWORD PTR _z$[ebp]
	cmp	DWORD PTR [eax+16], 16			; 00000010H
	je	SHORT $LN79@stbi__pars
	push	OFFSET ??_C@_0BE@EJHIPKNO@1?12?14?18?116?9bit?5only?$AA@
	call	_stbi__err
	add	esp, 4
	jmp	$LN92@stbi__pars
$LN79@stbi__pars:

; 4712 :             color = stbi__get8(s);  if (color > 6)         return stbi__err("bad ctype","Corrupt PNG");

	mov	eax, DWORD PTR _s$[ebp]
	push	eax
	call	_stbi__get8
	add	esp, 4
	movzx	ecx, al
	mov	DWORD PTR _color$[ebp], ecx
	cmp	DWORD PTR _color$[ebp], 6
	jle	SHORT $LN78@stbi__pars
	push	OFFSET ??_C@_09MBBNGCKB@bad?5ctype?$AA@
	call	_stbi__err
	add	esp, 4
	jmp	$LN92@stbi__pars
$LN78@stbi__pars:

; 4713 :             if (color == 3 && z->depth == 16)                  return stbi__err("bad ctype","Corrupt PNG");

	cmp	DWORD PTR _color$[ebp], 3
	jne	SHORT $LN77@stbi__pars
	mov	eax, DWORD PTR _z$[ebp]
	cmp	DWORD PTR [eax+16], 16			; 00000010H
	jne	SHORT $LN77@stbi__pars
	push	OFFSET ??_C@_09MBBNGCKB@bad?5ctype?$AA@
	call	_stbi__err
	add	esp, 4
	jmp	$LN92@stbi__pars
$LN77@stbi__pars:

; 4714 :             if (color == 3) pal_img_n = 3; else if (color & 1) return stbi__err("bad ctype","Corrupt PNG");

	cmp	DWORD PTR _color$[ebp], 3
	jne	SHORT $LN76@stbi__pars
	mov	BYTE PTR _pal_img_n$[ebp], 3
	jmp	SHORT $LN75@stbi__pars
$LN76@stbi__pars:
	mov	eax, DWORD PTR _color$[ebp]
	and	eax, 1
	je	SHORT $LN75@stbi__pars
	push	OFFSET ??_C@_09MBBNGCKB@bad?5ctype?$AA@
	call	_stbi__err
	add	esp, 4
	jmp	$LN92@stbi__pars
$LN75@stbi__pars:

; 4715 :             comp  = stbi__get8(s);  if (comp) return stbi__err("bad comp method","Corrupt PNG");

	mov	eax, DWORD PTR _s$[ebp]
	push	eax
	call	_stbi__get8
	add	esp, 4
	movzx	ecx, al
	mov	DWORD PTR _comp$6[ebp], ecx
	cmp	DWORD PTR _comp$6[ebp], 0
	je	SHORT $LN73@stbi__pars
	push	OFFSET ??_C@_0BA@MDMBDDFG@bad?5comp?5method?$AA@
	call	_stbi__err
	add	esp, 4
	jmp	$LN92@stbi__pars
$LN73@stbi__pars:

; 4716 :             filter= stbi__get8(s);  if (filter) return stbi__err("bad filter method","Corrupt PNG");

	mov	eax, DWORD PTR _s$[ebp]
	push	eax
	call	_stbi__get8
	add	esp, 4
	movzx	ecx, al
	mov	DWORD PTR _filter$5[ebp], ecx
	cmp	DWORD PTR _filter$5[ebp], 0
	je	SHORT $LN72@stbi__pars
	push	OFFSET ??_C@_0BC@GHLIKKMD@bad?5filter?5method?$AA@
	call	_stbi__err
	add	esp, 4
	jmp	$LN92@stbi__pars
$LN72@stbi__pars:

; 4717 :             interlace = stbi__get8(s); if (interlace>1) return stbi__err("bad interlace method","Corrupt PNG");

	mov	eax, DWORD PTR _s$[ebp]
	push	eax
	call	_stbi__get8
	add	esp, 4
	movzx	ecx, al
	mov	DWORD PTR _interlace$[ebp], ecx
	cmp	DWORD PTR _interlace$[ebp], 1
	jle	SHORT $LN71@stbi__pars
	push	OFFSET ??_C@_0BF@JCGDPBAA@bad?5interlace?5method?$AA@
	call	_stbi__err
	add	esp, 4
	jmp	$LN92@stbi__pars
$LN71@stbi__pars:

; 4718 :             if (!s->img_x || !s->img_y) return stbi__err("0-pixel image","Corrupt PNG");

	mov	eax, DWORD PTR _s$[ebp]
	cmp	DWORD PTR [eax], 0
	je	SHORT $LN69@stbi__pars
	mov	eax, DWORD PTR _s$[ebp]
	cmp	DWORD PTR [eax+4], 0
	jne	SHORT $LN70@stbi__pars
$LN69@stbi__pars:
	push	OFFSET ??_C@_0O@FNFBHCOO@0?9pixel?5image?$AA@
	call	_stbi__err
	add	esp, 4
	jmp	$LN92@stbi__pars
$LN70@stbi__pars:

; 4719 :             if (!pal_img_n) {

	movzx	eax, BYTE PTR _pal_img_n$[ebp]
	test	eax, eax
	jne	$LN68@stbi__pars

; 4720 :                s->img_n = (color & 2 ? 3 : 1) + (color & 4 ? 1 : 0);

	mov	eax, DWORD PTR _color$[ebp]
	and	eax, 2
	je	SHORT $LN94@stbi__pars
	mov	DWORD PTR tv190[ebp], 3
	jmp	SHORT $LN95@stbi__pars
$LN94@stbi__pars:
	mov	DWORD PTR tv190[ebp], 1
$LN95@stbi__pars:
	mov	ecx, DWORD PTR _color$[ebp]
	and	ecx, 4
	je	SHORT $LN96@stbi__pars
	mov	DWORD PTR tv193[ebp], 1
	jmp	SHORT $LN97@stbi__pars
$LN96@stbi__pars:
	mov	DWORD PTR tv193[ebp], 0
$LN97@stbi__pars:
	mov	edx, DWORD PTR tv190[ebp]
	add	edx, DWORD PTR tv193[ebp]
	mov	eax, DWORD PTR _s$[ebp]
	mov	DWORD PTR [eax+8], edx

; 4721 :                if ((1 << 30) / s->img_x / s->img_n < s->img_y) return stbi__err("too large", "Image too large to decode");

	mov	ecx, DWORD PTR _s$[ebp]
	mov	eax, 1073741824				; 40000000H
	xor	edx, edx
	div	DWORD PTR [ecx]
	mov	ecx, DWORD PTR _s$[ebp]
	xor	edx, edx
	div	DWORD PTR [ecx+8]
	mov	edx, DWORD PTR _s$[ebp]
	cmp	eax, DWORD PTR [edx+4]
	jae	SHORT $LN67@stbi__pars
	push	OFFSET ??_C@_09OJDLMMBJ@too?5large?$AA@
	call	_stbi__err
	add	esp, 4
	jmp	$LN92@stbi__pars
$LN67@stbi__pars:

; 4722 :                if (scan == STBI__SCAN_header) return 1;

	cmp	DWORD PTR _scan$[ebp], 2
	jne	SHORT $LN66@stbi__pars
	mov	eax, 1
	jmp	$LN92@stbi__pars
$LN66@stbi__pars:

; 4723 :             } else {

	jmp	SHORT $LN65@stbi__pars
$LN68@stbi__pars:

; 4724 :                // if paletted, then pal_n is our final components, and
; 4725 :                // img_n is # components to decompress/filter.
; 4726 :                s->img_n = 1;

	mov	eax, DWORD PTR _s$[ebp]
	mov	DWORD PTR [eax+8], 1

; 4727 :                if ((1 << 30) / s->img_x / 4 < s->img_y) return stbi__err("too large","Corrupt PNG");

	mov	ecx, DWORD PTR _s$[ebp]
	mov	eax, 1073741824				; 40000000H
	xor	edx, edx
	div	DWORD PTR [ecx]
	shr	eax, 2
	mov	edx, DWORD PTR _s$[ebp]
	cmp	eax, DWORD PTR [edx+4]
	jae	SHORT $LN65@stbi__pars
	push	OFFSET ??_C@_09OJDLMMBJ@too?5large?$AA@
	call	_stbi__err
	add	esp, 4
	jmp	$LN92@stbi__pars
$LN65@stbi__pars:

; 4728 :                // if SCAN_header, have to scan to see if we have a tRNS
; 4729 :             }
; 4730 :             break;

	jmp	$LN86@stbi__pars
$LN63@stbi__pars:

; 4731 :          }
; 4732 : 
; 4733 :          case STBI__PNG_TYPE('P','L','T','E'):  {
; 4734 :             if (first) return stbi__err("first not IHDR", "Corrupt PNG");

	cmp	DWORD PTR _first$[ebp], 0
	je	SHORT $LN62@stbi__pars
	push	OFFSET ??_C@_0P@JEAFOMAF@first?5not?5IHDR?$AA@
	call	_stbi__err
	add	esp, 4
	jmp	$LN92@stbi__pars
$LN62@stbi__pars:

; 4735 :             if (c.length > 256*3) return stbi__err("invalid PLTE","Corrupt PNG");

	cmp	DWORD PTR _c$7[ebp], 768		; 00000300H
	jbe	SHORT $LN61@stbi__pars
	push	OFFSET ??_C@_0N@JCPAJAKB@invalid?5PLTE?$AA@
	call	_stbi__err
	add	esp, 4
	jmp	$LN92@stbi__pars
$LN61@stbi__pars:

; 4736 :             pal_len = c.length / 3;

	mov	eax, DWORD PTR _c$7[ebp]
	xor	edx, edx
	mov	ecx, 3
	div	ecx
	mov	DWORD PTR _pal_len$[ebp], eax

; 4737 :             if (pal_len * 3 != c.length) return stbi__err("invalid PLTE","Corrupt PNG");

	imul	eax, DWORD PTR _pal_len$[ebp], 3
	cmp	eax, DWORD PTR _c$7[ebp]
	je	SHORT $LN60@stbi__pars
	push	OFFSET ??_C@_0N@JCPAJAKB@invalid?5PLTE?$AA@
	call	_stbi__err
	add	esp, 4
	jmp	$LN92@stbi__pars
$LN60@stbi__pars:

; 4738 :             for (i=0; i < pal_len; ++i) {

	mov	DWORD PTR _i$[ebp], 0
	jmp	SHORT $LN59@stbi__pars
$LN58@stbi__pars:
	mov	eax, DWORD PTR _i$[ebp]
	add	eax, 1
	mov	DWORD PTR _i$[ebp], eax
$LN59@stbi__pars:
	mov	eax, DWORD PTR _i$[ebp]
	cmp	eax, DWORD PTR _pal_len$[ebp]
	jae	SHORT $LN57@stbi__pars

; 4739 :                palette[i*4+0] = stbi__get8(s);

	mov	eax, DWORD PTR _s$[ebp]
	push	eax
	call	_stbi__get8
	add	esp, 4
	mov	ecx, DWORD PTR _i$[ebp]
	mov	BYTE PTR _palette$[ebp+ecx*4], al

; 4740 :                palette[i*4+1] = stbi__get8(s);

	mov	eax, DWORD PTR _s$[ebp]
	push	eax
	call	_stbi__get8
	add	esp, 4
	mov	ecx, DWORD PTR _i$[ebp]
	mov	BYTE PTR _palette$[ebp+ecx*4+1], al

; 4741 :                palette[i*4+2] = stbi__get8(s);

	mov	eax, DWORD PTR _s$[ebp]
	push	eax
	call	_stbi__get8
	add	esp, 4
	mov	ecx, DWORD PTR _i$[ebp]
	mov	BYTE PTR _palette$[ebp+ecx*4+2], al

; 4742 :                palette[i*4+3] = 255;

	mov	eax, DWORD PTR _i$[ebp]
	mov	BYTE PTR _palette$[ebp+eax*4+3], 255	; 000000ffH

; 4743 :             }

	jmp	$LN58@stbi__pars
$LN57@stbi__pars:

; 4744 :             break;

	jmp	$LN86@stbi__pars
$LN56@stbi__pars:

; 4745 :          }
; 4746 : 
; 4747 :          case STBI__PNG_TYPE('t','R','N','S'): {
; 4748 :             if (first) return stbi__err("first not IHDR", "Corrupt PNG");

	cmp	DWORD PTR _first$[ebp], 0
	je	SHORT $LN55@stbi__pars
	push	OFFSET ??_C@_0P@JEAFOMAF@first?5not?5IHDR?$AA@
	call	_stbi__err
	add	esp, 4
	jmp	$LN92@stbi__pars
$LN55@stbi__pars:

; 4749 :             if (z->idata) return stbi__err("tRNS after IDAT","Corrupt PNG");

	mov	eax, DWORD PTR _z$[ebp]
	cmp	DWORD PTR [eax+4], 0
	je	SHORT $LN54@stbi__pars
	push	OFFSET ??_C@_0BA@PCPJHDKJ@tRNS?5after?5IDAT?$AA@
	call	_stbi__err
	add	esp, 4
	jmp	$LN92@stbi__pars
$LN54@stbi__pars:

; 4750 :             if (pal_img_n) {

	movzx	eax, BYTE PTR _pal_img_n$[ebp]
	test	eax, eax
	je	$LN53@stbi__pars

; 4751 :                if (scan == STBI__SCAN_header) { s->img_n = 4; return 1; }

	cmp	DWORD PTR _scan$[ebp], 2
	jne	SHORT $LN52@stbi__pars
	mov	eax, DWORD PTR _s$[ebp]
	mov	DWORD PTR [eax+8], 4
	mov	eax, 1
	jmp	$LN92@stbi__pars
$LN52@stbi__pars:

; 4752 :                if (pal_len == 0) return stbi__err("tRNS before PLTE","Corrupt PNG");

	cmp	DWORD PTR _pal_len$[ebp], 0
	jne	SHORT $LN51@stbi__pars
	push	OFFSET ??_C@_0BB@CEDNNLBG@tRNS?5before?5PLTE?$AA@
	call	_stbi__err
	add	esp, 4
	jmp	$LN92@stbi__pars
$LN51@stbi__pars:

; 4753 :                if (c.length > pal_len) return stbi__err("bad tRNS len","Corrupt PNG");

	mov	eax, DWORD PTR _c$7[ebp]
	cmp	eax, DWORD PTR _pal_len$[ebp]
	jbe	SHORT $LN50@stbi__pars
	push	OFFSET ??_C@_0N@KDLCCKCH@bad?5tRNS?5len?$AA@
	call	_stbi__err
	add	esp, 4
	jmp	$LN92@stbi__pars
$LN50@stbi__pars:

; 4754 :                pal_img_n = 4;

	mov	BYTE PTR _pal_img_n$[ebp], 4

; 4755 :                for (i=0; i < c.length; ++i)

	mov	DWORD PTR _i$[ebp], 0
	jmp	SHORT $LN49@stbi__pars
$LN48@stbi__pars:
	mov	eax, DWORD PTR _i$[ebp]
	add	eax, 1
	mov	DWORD PTR _i$[ebp], eax
$LN49@stbi__pars:
	mov	eax, DWORD PTR _i$[ebp]
	cmp	eax, DWORD PTR _c$7[ebp]
	jae	SHORT $LN47@stbi__pars

; 4756 :                   palette[i*4+3] = stbi__get8(s);

	mov	eax, DWORD PTR _s$[ebp]
	push	eax
	call	_stbi__get8
	add	esp, 4
	mov	ecx, DWORD PTR _i$[ebp]
	mov	BYTE PTR _palette$[ebp+ecx*4+3], al
	jmp	SHORT $LN48@stbi__pars
$LN47@stbi__pars:

; 4757 :             } else {

	jmp	$LN46@stbi__pars
$LN53@stbi__pars:

; 4758 :                if (!(s->img_n & 1)) return stbi__err("tRNS with alpha","Corrupt PNG");

	mov	eax, DWORD PTR _s$[ebp]
	mov	ecx, DWORD PTR [eax+8]
	and	ecx, 1
	jne	SHORT $LN45@stbi__pars
	push	OFFSET ??_C@_0BA@ENDPGCHB@tRNS?5with?5alpha?$AA@
	call	_stbi__err
	add	esp, 4
	jmp	$LN92@stbi__pars
$LN45@stbi__pars:

; 4759 :                if (c.length != (stbi__uint32) s->img_n*2) return stbi__err("bad tRNS len","Corrupt PNG");

	mov	eax, DWORD PTR _s$[ebp]
	mov	ecx, DWORD PTR [eax+8]
	shl	ecx, 1
	cmp	DWORD PTR _c$7[ebp], ecx
	je	SHORT $LN44@stbi__pars
	push	OFFSET ??_C@_0N@KDLCCKCH@bad?5tRNS?5len?$AA@
	call	_stbi__err
	add	esp, 4
	jmp	$LN92@stbi__pars
$LN44@stbi__pars:

; 4760 :                has_trans = 1;

	mov	BYTE PTR _has_trans$[ebp], 1

; 4761 :                if (z->depth == 16) {

	mov	eax, DWORD PTR _z$[ebp]
	cmp	DWORD PTR [eax+16], 16			; 00000010H
	jne	SHORT $LN43@stbi__pars

; 4762 :                   for (k = 0; k < s->img_n; ++k) tc16[k] = (stbi__uint16)stbi__get16be(s); // copy the values as-is

	mov	DWORD PTR _k$[ebp], 0
	jmp	SHORT $LN42@stbi__pars
$LN41@stbi__pars:
	mov	eax, DWORD PTR _k$[ebp]
	add	eax, 1
	mov	DWORD PTR _k$[ebp], eax
$LN42@stbi__pars:
	mov	eax, DWORD PTR _s$[ebp]
	mov	ecx, DWORD PTR _k$[ebp]
	cmp	ecx, DWORD PTR [eax+8]
	jge	SHORT $LN40@stbi__pars
	mov	eax, DWORD PTR _s$[ebp]
	push	eax
	call	_stbi__get16be
	add	esp, 4
	mov	ecx, DWORD PTR _k$[ebp]
	mov	WORD PTR _tc16$[ebp+ecx*2], ax
	jmp	SHORT $LN41@stbi__pars
$LN40@stbi__pars:

; 4763 :                } else {

	jmp	SHORT $LN46@stbi__pars
$LN43@stbi__pars:

; 4764 :                   for (k = 0; k < s->img_n; ++k) tc[k] = (stbi_uc)(stbi__get16be(s) & 255) * stbi__depth_scale_table[z->depth]; // non 8-bit images will be larger

	mov	DWORD PTR _k$[ebp], 0
	jmp	SHORT $LN38@stbi__pars
$LN37@stbi__pars:
	mov	eax, DWORD PTR _k$[ebp]
	add	eax, 1
	mov	DWORD PTR _k$[ebp], eax
$LN38@stbi__pars:
	mov	eax, DWORD PTR _s$[ebp]
	mov	ecx, DWORD PTR _k$[ebp]
	cmp	ecx, DWORD PTR [eax+8]
	jge	SHORT $LN46@stbi__pars
	mov	eax, DWORD PTR _s$[ebp]
	push	eax
	call	_stbi__get16be
	add	esp, 4
	and	eax, 255				; 000000ffH
	movzx	ecx, al
	mov	edx, DWORD PTR _z$[ebp]
	mov	eax, DWORD PTR [edx+16]
	movzx	edx, BYTE PTR _stbi__depth_scale_table[eax]
	imul	ecx, edx
	mov	eax, DWORD PTR _k$[ebp]
	mov	BYTE PTR _tc$[ebp+eax], cl
	jmp	SHORT $LN37@stbi__pars
$LN46@stbi__pars:

; 4765 :                }
; 4766 :             }
; 4767 :             break;

	jmp	$LN86@stbi__pars
$LN35@stbi__pars:

; 4768 :          }
; 4769 : 
; 4770 :          case STBI__PNG_TYPE('I','D','A','T'): {
; 4771 :             if (first) return stbi__err("first not IHDR", "Corrupt PNG");

	cmp	DWORD PTR _first$[ebp], 0
	je	SHORT $LN34@stbi__pars
	push	OFFSET ??_C@_0P@JEAFOMAF@first?5not?5IHDR?$AA@
	call	_stbi__err
	add	esp, 4
	jmp	$LN92@stbi__pars
$LN34@stbi__pars:

; 4772 :             if (pal_img_n && !pal_len) return stbi__err("no PLTE","Corrupt PNG");

	movzx	eax, BYTE PTR _pal_img_n$[ebp]
	test	eax, eax
	je	SHORT $LN33@stbi__pars
	cmp	DWORD PTR _pal_len$[ebp], 0
	jne	SHORT $LN33@stbi__pars
	push	OFFSET ??_C@_07CKIELOEH@no?5PLTE?$AA@
	call	_stbi__err
	add	esp, 4
	jmp	$LN92@stbi__pars
$LN33@stbi__pars:

; 4773 :             if (scan == STBI__SCAN_header) { s->img_n = pal_img_n; return 1; }

	cmp	DWORD PTR _scan$[ebp], 2
	jne	SHORT $LN32@stbi__pars
	movzx	eax, BYTE PTR _pal_img_n$[ebp]
	mov	ecx, DWORD PTR _s$[ebp]
	mov	DWORD PTR [ecx+8], eax
	mov	eax, 1
	jmp	$LN92@stbi__pars
$LN32@stbi__pars:

; 4774 :             if ((int)(ioff + c.length) < (int)ioff) return 0;

	mov	eax, DWORD PTR _ioff$[ebp]
	add	eax, DWORD PTR _c$7[ebp]
	cmp	eax, DWORD PTR _ioff$[ebp]
	jge	SHORT $LN31@stbi__pars
	xor	eax, eax
	jmp	$LN92@stbi__pars
$LN31@stbi__pars:

; 4775 :             if (ioff + c.length > idata_limit) {

	mov	eax, DWORD PTR _ioff$[ebp]
	add	eax, DWORD PTR _c$7[ebp]
	cmp	eax, DWORD PTR _idata_limit$[ebp]
	jbe	$LN30@stbi__pars

; 4776 :                stbi__uint32 idata_limit_old = idata_limit;

	mov	eax, DWORD PTR _idata_limit$[ebp]
	mov	DWORD PTR _idata_limit_old$4[ebp], eax

; 4777 :                stbi_uc *p;
; 4778 :                if (idata_limit == 0) idata_limit = c.length > 4096 ? c.length : 4096;

	cmp	DWORD PTR _idata_limit$[ebp], 0
	jne	SHORT $LN28@stbi__pars
	cmp	DWORD PTR _c$7[ebp], 4096		; 00001000H
	jbe	SHORT $LN98@stbi__pars
	mov	eax, DWORD PTR _c$7[ebp]
	mov	DWORD PTR tv325[ebp], eax
	jmp	SHORT $LN99@stbi__pars
$LN98@stbi__pars:
	mov	DWORD PTR tv325[ebp], 4096		; 00001000H
$LN99@stbi__pars:
	mov	ecx, DWORD PTR tv325[ebp]
	mov	DWORD PTR _idata_limit$[ebp], ecx
$LN28@stbi__pars:

; 4779 :                while (ioff + c.length > idata_limit)

	mov	eax, DWORD PTR _ioff$[ebp]
	add	eax, DWORD PTR _c$7[ebp]
	cmp	eax, DWORD PTR _idata_limit$[ebp]
	jbe	SHORT $LN27@stbi__pars

; 4780 :                   idata_limit *= 2;

	mov	eax, DWORD PTR _idata_limit$[ebp]
	shl	eax, 1
	mov	DWORD PTR _idata_limit$[ebp], eax
	jmp	SHORT $LN28@stbi__pars
$LN27@stbi__pars:

; 4781 :                STBI_NOTUSED(idata_limit_old);
; 4782 :                p = (stbi_uc *) STBI_REALLOC_SIZED(z->idata, idata_limit_old, idata_limit); if (p == NULL) return stbi__err("outofmem", "Out of memory");

	mov	eax, DWORD PTR _idata_limit$[ebp]
	push	eax
	mov	ecx, DWORD PTR _z$[ebp]
	mov	edx, DWORD PTR [ecx+4]
	push	edx
	call	_realloc
	add	esp, 8
	mov	DWORD PTR _p$3[ebp], eax
	cmp	DWORD PTR _p$3[ebp], 0
	jne	SHORT $LN26@stbi__pars
	push	OFFSET ??_C@_08NOGIMCHF@outofmem?$AA@
	call	_stbi__err
	add	esp, 4
	jmp	$LN92@stbi__pars
$LN26@stbi__pars:

; 4783 :                z->idata = p;

	mov	eax, DWORD PTR _z$[ebp]
	mov	ecx, DWORD PTR _p$3[ebp]
	mov	DWORD PTR [eax+4], ecx
$LN30@stbi__pars:

; 4784 :             }
; 4785 :             if (!stbi__getn(s, z->idata+ioff,c.length)) return stbi__err("outofdata","Corrupt PNG");

	mov	eax, DWORD PTR _c$7[ebp]
	push	eax
	mov	ecx, DWORD PTR _z$[ebp]
	mov	edx, DWORD PTR [ecx+4]
	add	edx, DWORD PTR _ioff$[ebp]
	push	edx
	mov	eax, DWORD PTR _s$[ebp]
	push	eax
	call	_stbi__getn
	add	esp, 12					; 0000000cH
	test	eax, eax
	jne	SHORT $LN25@stbi__pars
	push	OFFSET ??_C@_09MNNCNKEO@outofdata?$AA@
	call	_stbi__err
	add	esp, 4
	jmp	$LN92@stbi__pars
$LN25@stbi__pars:

; 4786 :             ioff += c.length;

	mov	eax, DWORD PTR _ioff$[ebp]
	add	eax, DWORD PTR _c$7[ebp]
	mov	DWORD PTR _ioff$[ebp], eax

; 4787 :             break;

	jmp	$LN86@stbi__pars
$LN24@stbi__pars:

; 4788 :          }
; 4789 : 
; 4790 :          case STBI__PNG_TYPE('I','E','N','D'): {
; 4791 :             stbi__uint32 raw_len, bpl;
; 4792 :             if (first) return stbi__err("first not IHDR", "Corrupt PNG");

	cmp	DWORD PTR _first$[ebp], 0
	je	SHORT $LN23@stbi__pars
	push	OFFSET ??_C@_0P@JEAFOMAF@first?5not?5IHDR?$AA@
	call	_stbi__err
	add	esp, 4
	jmp	$LN92@stbi__pars
$LN23@stbi__pars:

; 4793 :             if (scan != STBI__SCAN_load) return 1;

	cmp	DWORD PTR _scan$[ebp], 0
	je	SHORT $LN22@stbi__pars
	mov	eax, 1
	jmp	$LN92@stbi__pars
$LN22@stbi__pars:

; 4794 :             if (z->idata == NULL) return stbi__err("no IDAT","Corrupt PNG");

	mov	eax, DWORD PTR _z$[ebp]
	cmp	DWORD PTR [eax+4], 0
	jne	SHORT $LN21@stbi__pars
	push	OFFSET ??_C@_07MLPECBNA@no?5IDAT?$AA@
	call	_stbi__err
	add	esp, 4
	jmp	$LN92@stbi__pars
$LN21@stbi__pars:

; 4795 :             // initial guess for decoded data size to avoid unnecessary reallocs
; 4796 :             bpl = (s->img_x * z->depth + 7) / 8; // bytes per line, per component

	mov	eax, DWORD PTR _s$[ebp]
	mov	ecx, DWORD PTR _z$[ebp]
	mov	edx, DWORD PTR [eax]
	imul	edx, DWORD PTR [ecx+16]
	add	edx, 7
	shr	edx, 3
	mov	DWORD PTR _bpl$1[ebp], edx

; 4797 :             raw_len = bpl * s->img_y * s->img_n /* pixels */ + s->img_y /* filter mode per row */;

	mov	eax, DWORD PTR _s$[ebp]
	mov	ecx, DWORD PTR _bpl$1[ebp]
	imul	ecx, DWORD PTR [eax+4]
	mov	edx, DWORD PTR _s$[ebp]
	imul	ecx, DWORD PTR [edx+8]
	mov	eax, DWORD PTR _s$[ebp]
	add	ecx, DWORD PTR [eax+4]
	mov	DWORD PTR _raw_len$2[ebp], ecx

; 4798 :             z->expanded = (stbi_uc *) stbi_zlib_decode_malloc_guesssize_headerflag((char *) z->idata, ioff, raw_len, (int *) &raw_len, !is_iphone);

	cmp	DWORD PTR _is_iphone$[ebp], 0
	jne	SHORT $LN100@stbi__pars
	mov	DWORD PTR tv369[ebp], 1
	jmp	SHORT $LN101@stbi__pars
$LN100@stbi__pars:
	mov	DWORD PTR tv369[ebp], 0
$LN101@stbi__pars:
	mov	eax, DWORD PTR tv369[ebp]
	push	eax
	lea	ecx, DWORD PTR _raw_len$2[ebp]
	push	ecx
	mov	edx, DWORD PTR _raw_len$2[ebp]
	push	edx
	mov	eax, DWORD PTR _ioff$[ebp]
	push	eax
	mov	ecx, DWORD PTR _z$[ebp]
	mov	edx, DWORD PTR [ecx+4]
	push	edx
	call	_stbi_zlib_decode_malloc_guesssize_headerflag
	add	esp, 20					; 00000014H
	mov	ecx, DWORD PTR _z$[ebp]
	mov	DWORD PTR [ecx+8], eax

; 4799 :             if (z->expanded == NULL) return 0; // zlib should set error

	mov	eax, DWORD PTR _z$[ebp]
	cmp	DWORD PTR [eax+8], 0
	jne	SHORT $LN20@stbi__pars
	xor	eax, eax
	jmp	$LN92@stbi__pars
$LN20@stbi__pars:

; 4800 :             STBI_FREE(z->idata); z->idata = NULL;

	mov	eax, DWORD PTR _z$[ebp]
	mov	ecx, DWORD PTR [eax+4]
	push	ecx
	call	_free
	add	esp, 4
	mov	eax, DWORD PTR _z$[ebp]
	mov	DWORD PTR [eax+4], 0

; 4801 :             if ((req_comp == s->img_n+1 && req_comp != 3 && !pal_img_n) || has_trans)

	mov	eax, DWORD PTR _s$[ebp]
	mov	ecx, DWORD PTR [eax+8]
	add	ecx, 1
	cmp	DWORD PTR _req_comp$[ebp], ecx
	jne	SHORT $LN17@stbi__pars
	cmp	DWORD PTR _req_comp$[ebp], 3
	je	SHORT $LN17@stbi__pars
	movzx	eax, BYTE PTR _pal_img_n$[ebp]
	test	eax, eax
	je	SHORT $LN18@stbi__pars
$LN17@stbi__pars:
	movzx	eax, BYTE PTR _has_trans$[ebp]
	test	eax, eax
	je	SHORT $LN19@stbi__pars
$LN18@stbi__pars:

; 4802 :                s->img_out_n = s->img_n+1;

	mov	eax, DWORD PTR _s$[ebp]
	mov	ecx, DWORD PTR [eax+8]
	add	ecx, 1
	mov	edx, DWORD PTR _s$[ebp]
	mov	DWORD PTR [edx+12], ecx

; 4803 :             else

	jmp	SHORT $LN16@stbi__pars
$LN19@stbi__pars:

; 4804 :                s->img_out_n = s->img_n;

	mov	eax, DWORD PTR _s$[ebp]
	mov	ecx, DWORD PTR _s$[ebp]
	mov	edx, DWORD PTR [ecx+8]
	mov	DWORD PTR [eax+12], edx
$LN16@stbi__pars:

; 4805 :             if (!stbi__create_png_image(z, z->expanded, raw_len, s->img_out_n, z->depth, color, interlace)) return 0;

	mov	eax, DWORD PTR _interlace$[ebp]
	push	eax
	mov	ecx, DWORD PTR _color$[ebp]
	push	ecx
	mov	edx, DWORD PTR _z$[ebp]
	mov	eax, DWORD PTR [edx+16]
	push	eax
	mov	ecx, DWORD PTR _s$[ebp]
	mov	edx, DWORD PTR [ecx+12]
	push	edx
	mov	eax, DWORD PTR _raw_len$2[ebp]
	push	eax
	mov	ecx, DWORD PTR _z$[ebp]
	mov	edx, DWORD PTR [ecx+8]
	push	edx
	mov	eax, DWORD PTR _z$[ebp]
	push	eax
	call	_stbi__create_png_image
	add	esp, 28					; 0000001cH
	test	eax, eax
	jne	SHORT $LN15@stbi__pars
	xor	eax, eax
	jmp	$LN92@stbi__pars
$LN15@stbi__pars:

; 4806 :             if (has_trans) {

	movzx	eax, BYTE PTR _has_trans$[ebp]
	test	eax, eax
	je	SHORT $LN14@stbi__pars

; 4807 :                if (z->depth == 16) {

	mov	eax, DWORD PTR _z$[ebp]
	cmp	DWORD PTR [eax+16], 16			; 00000010H
	jne	SHORT $LN13@stbi__pars

; 4808 :                   if (!stbi__compute_transparency16(z, tc16, s->img_out_n)) return 0;

	mov	eax, DWORD PTR _s$[ebp]
	mov	ecx, DWORD PTR [eax+12]
	push	ecx
	lea	edx, DWORD PTR _tc16$[ebp]
	push	edx
	mov	eax, DWORD PTR _z$[ebp]
	push	eax
	call	_stbi__compute_transparency16
	add	esp, 12					; 0000000cH
	test	eax, eax
	jne	SHORT $LN12@stbi__pars
	xor	eax, eax
	jmp	$LN92@stbi__pars
$LN12@stbi__pars:

; 4809 :                } else {

	jmp	SHORT $LN14@stbi__pars
$LN13@stbi__pars:

; 4810 :                   if (!stbi__compute_transparency(z, tc, s->img_out_n)) return 0;

	mov	eax, DWORD PTR _s$[ebp]
	mov	ecx, DWORD PTR [eax+12]
	push	ecx
	lea	edx, DWORD PTR _tc$[ebp]
	push	edx
	mov	eax, DWORD PTR _z$[ebp]
	push	eax
	call	_stbi__compute_transparency
	add	esp, 12					; 0000000cH
	test	eax, eax
	jne	SHORT $LN14@stbi__pars
	xor	eax, eax
	jmp	$LN92@stbi__pars
$LN14@stbi__pars:

; 4811 :                }
; 4812 :             }
; 4813 :             if (is_iphone && stbi__de_iphone_flag && s->img_out_n > 2)

	cmp	DWORD PTR _is_iphone$[ebp], 0
	je	SHORT $LN9@stbi__pars
	cmp	DWORD PTR _stbi__de_iphone_flag, 0
	je	SHORT $LN9@stbi__pars
	mov	eax, DWORD PTR _s$[ebp]
	cmp	DWORD PTR [eax+12], 2
	jle	SHORT $LN9@stbi__pars

; 4814 :                stbi__de_iphone(z);

	mov	eax, DWORD PTR _z$[ebp]
	push	eax
	call	_stbi__de_iphone
	add	esp, 4
$LN9@stbi__pars:

; 4815 :             if (pal_img_n) {

	movzx	eax, BYTE PTR _pal_img_n$[ebp]
	test	eax, eax
	je	SHORT $LN8@stbi__pars

; 4816 :                // pal_img_n == 3 or 4
; 4817 :                s->img_n = pal_img_n; // record the actual colors we had

	movzx	eax, BYTE PTR _pal_img_n$[ebp]
	mov	ecx, DWORD PTR _s$[ebp]
	mov	DWORD PTR [ecx+8], eax

; 4818 :                s->img_out_n = pal_img_n;

	movzx	eax, BYTE PTR _pal_img_n$[ebp]
	mov	ecx, DWORD PTR _s$[ebp]
	mov	DWORD PTR [ecx+12], eax

; 4819 :                if (req_comp >= 3) s->img_out_n = req_comp;

	cmp	DWORD PTR _req_comp$[ebp], 3
	jl	SHORT $LN7@stbi__pars
	mov	eax, DWORD PTR _s$[ebp]
	mov	ecx, DWORD PTR _req_comp$[ebp]
	mov	DWORD PTR [eax+12], ecx
$LN7@stbi__pars:

; 4820 :                if (!stbi__expand_png_palette(z, palette, pal_len, s->img_out_n))

	mov	eax, DWORD PTR _s$[ebp]
	mov	ecx, DWORD PTR [eax+12]
	push	ecx
	mov	edx, DWORD PTR _pal_len$[ebp]
	push	edx
	lea	eax, DWORD PTR _palette$[ebp]
	push	eax
	mov	ecx, DWORD PTR _z$[ebp]
	push	ecx
	call	_stbi__expand_png_palette
	add	esp, 16					; 00000010H
	test	eax, eax
	jne	SHORT $LN6@stbi__pars

; 4821 :                   return 0;

	xor	eax, eax
	jmp	$LN92@stbi__pars
$LN6@stbi__pars:

; 4822 :             } else if (has_trans) {

	jmp	SHORT $LN5@stbi__pars
$LN8@stbi__pars:
	movzx	eax, BYTE PTR _has_trans$[ebp]
	test	eax, eax
	je	SHORT $LN5@stbi__pars

; 4823 :                // non-paletted image with tRNS -> source image has (constant) alpha
; 4824 :                ++s->img_n;

	mov	eax, DWORD PTR _s$[ebp]
	mov	ecx, DWORD PTR [eax+8]
	add	ecx, 1
	mov	edx, DWORD PTR _s$[ebp]
	mov	DWORD PTR [edx+8], ecx
$LN5@stbi__pars:

; 4825 :             }
; 4826 :             STBI_FREE(z->expanded); z->expanded = NULL;

	mov	eax, DWORD PTR _z$[ebp]
	mov	ecx, DWORD PTR [eax+8]
	push	ecx
	call	_free
	add	esp, 4
	mov	eax, DWORD PTR _z$[ebp]
	mov	DWORD PTR [eax+8], 0

; 4827 :             return 1;

	mov	eax, 1
	jmp	$LN92@stbi__pars
$LN3@stbi__pars:

; 4828 :          }
; 4829 : 
; 4830 :          default:
; 4831 :             // if critical, fail
; 4832 :             if (first) return stbi__err("first not IHDR", "Corrupt PNG");

	cmp	DWORD PTR _first$[ebp], 0
	je	SHORT $LN2@stbi__pars
	push	OFFSET ??_C@_0P@JEAFOMAF@first?5not?5IHDR?$AA@
	call	_stbi__err
	add	esp, 4
	jmp	$LN92@stbi__pars
$LN2@stbi__pars:

; 4833 :             if ((c.type & (1 << 29)) == 0) {

	mov	eax, DWORD PTR _c$7[ebp+4]
	and	eax, 536870912				; 20000000H
	jne	SHORT $LN1@stbi__pars

; 4834 :                #ifndef STBI_NO_FAILURE_STRINGS
; 4835 :                // not threadsafe
; 4836 :                static char invalid_chunk[] = "XXXX PNG chunk not known";
; 4837 :                invalid_chunk[0] = STBI__BYTECAST(c.type >> 24);

	mov	eax, DWORD PTR _c$7[ebp+4]
	shr	eax, 24					; 00000018H
	and	eax, 255				; 000000ffH
	mov	ecx, 1
	imul	edx, ecx, 0
	mov	BYTE PTR ?invalid_chunk@?BO@??stbi__parse_png_file@@9@9[edx], al

; 4838 :                invalid_chunk[1] = STBI__BYTECAST(c.type >> 16);

	mov	eax, DWORD PTR _c$7[ebp+4]
	shr	eax, 16					; 00000010H
	and	eax, 255				; 000000ffH
	mov	ecx, 1
	shl	ecx, 0
	mov	BYTE PTR ?invalid_chunk@?BO@??stbi__parse_png_file@@9@9[ecx], al

; 4839 :                invalid_chunk[2] = STBI__BYTECAST(c.type >>  8);

	mov	eax, DWORD PTR _c$7[ebp+4]
	shr	eax, 8
	and	eax, 255				; 000000ffH
	mov	ecx, 1
	shl	ecx, 1
	mov	BYTE PTR ?invalid_chunk@?BO@??stbi__parse_png_file@@9@9[ecx], al

; 4840 :                invalid_chunk[3] = STBI__BYTECAST(c.type >>  0);

	mov	eax, DWORD PTR _c$7[ebp+4]
	and	eax, 255				; 000000ffH
	mov	ecx, 1
	imul	edx, ecx, 3
	mov	BYTE PTR ?invalid_chunk@?BO@??stbi__parse_png_file@@9@9[edx], al

; 4841 :                #endif
; 4842 :                return stbi__err(invalid_chunk, "PNG not supported: unknown PNG chunk type");

	push	OFFSET ?invalid_chunk@?BO@??stbi__parse_png_file@@9@9
	call	_stbi__err
	add	esp, 4
	jmp	SHORT $LN92@stbi__pars
$LN1@stbi__pars:

; 4843 :             }
; 4844 :             stbi__skip(s, c.length);

	mov	eax, DWORD PTR _c$7[ebp]
	push	eax
	mov	ecx, DWORD PTR _s$[ebp]
	push	ecx
	call	_stbi__skip
	add	esp, 8
$LN86@stbi__pars:

; 4845 :             break;
; 4846 :       }
; 4847 :       // end of PNG chunk, read and skip CRC
; 4848 :       stbi__get32be(s);

	mov	eax, DWORD PTR _s$[ebp]
	push	eax
	call	_stbi__get32be
	add	esp, 4

; 4849 :    }

	jmp	$LN89@stbi__pars
$LN92@stbi__pars:

; 4850 : }

	push	edx
	mov	ecx, ebp
	push	eax
	lea	edx, DWORD PTR $LN109@stbi__pars
	call	@_RTC_CheckStackVars@8
	pop	eax
	pop	edx
	pop	edi
	pop	esi
	pop	ebx
	mov	ecx, DWORD PTR __$ArrayPad$[ebp]
	xor	ecx, ebp
	call	@__security_check_cookie@4
	add	esp, 1496				; 000005d8H
	cmp	ebp, esp
	call	__RTC_CheckEsp
	mov	esp, ebp
	pop	ebp
	ret	0
	npad	1
$LN109@stbi__pars:
	DD	5
	DD	$LN108@stbi__pars
$LN108@stbi__pars:
	DD	-1032					; fffffbf8H
	DD	1024					; 00000400H
	DD	$LN103@stbi__pars
	DD	-1068					; fffffbd4H
	DD	3
	DD	$LN104@stbi__pars
	DD	-1084					; fffffbc4H
	DD	6
	DD	$LN105@stbi__pars
	DD	-1220					; fffffb3cH
	DD	8
	DD	$LN106@stbi__pars
	DD	-1280					; fffffb00H
	DD	4
	DD	$LN107@stbi__pars
$LN107@stbi__pars:
	DB	114					; 00000072H
	DB	97					; 00000061H
	DB	119					; 00000077H
	DB	95					; 0000005fH
	DB	108					; 0000006cH
	DB	101					; 00000065H
	DB	110					; 0000006eH
	DB	0
$LN106@stbi__pars:
	DB	99					; 00000063H
	DB	0
$LN105@stbi__pars:
	DB	116					; 00000074H
	DB	99					; 00000063H
	DB	49					; 00000031H
	DB	54					; 00000036H
	DB	0
$LN104@stbi__pars:
	DB	116					; 00000074H
	DB	99					; 00000063H
	DB	0
$LN103@stbi__pars:
	DB	112					; 00000070H
	DB	97					; 00000061H
	DB	108					; 0000006cH
	DB	101					; 00000065H
	DB	116					; 00000074H
	DB	116					; 00000074H
	DB	101					; 00000065H
	DB	0
_stbi__parse_png_file ENDP
_TEXT	ENDS
; Function compile flags: /Odtp /RTCsu /ZI
; File c:\users\marcos\desktop\prj\mgear-1\apis\stb\stb_image.h
;	COMDAT _stbi__de_iphone
_TEXT	SEGMENT
_t$1 = -101						; size = 1
_half$2 = -89						; size = 1
_t$3 = -77						; size = 1
_a$4 = -65						; size = 1
_t$5 = -53						; size = 1
_p$ = -44						; size = 4
_pixel_count$ = -32					; size = 4
_i$ = -20						; size = 4
_s$ = -8						; size = 4
_z$ = 8							; size = 4
_stbi__de_iphone PROC					; COMDAT

; 4636 : {

	push	ebp
	mov	ebp, esp
	sub	esp, 300				; 0000012cH
	push	ebx
	push	esi
	push	edi
	lea	edi, DWORD PTR [ebp-300]
	mov	ecx, 75					; 0000004bH
	mov	eax, -858993460				; ccccccccH
	rep stosd

; 4637 :    stbi__context *s = z->s;

	mov	eax, DWORD PTR _z$[ebp]
	mov	ecx, DWORD PTR [eax]
	mov	DWORD PTR _s$[ebp], ecx

; 4638 :    stbi__uint32 i, pixel_count = s->img_x * s->img_y;

	mov	eax, DWORD PTR _s$[ebp]
	mov	ecx, DWORD PTR _s$[ebp]
	mov	edx, DWORD PTR [eax]
	imul	edx, DWORD PTR [ecx+4]
	mov	DWORD PTR _pixel_count$[ebp], edx

; 4639 :    stbi_uc *p = z->out;

	mov	eax, DWORD PTR _z$[ebp]
	mov	ecx, DWORD PTR [eax+12]
	mov	DWORD PTR _p$[ebp], ecx

; 4640 : 
; 4641 :    if (s->img_out_n == 3) {  // convert bgr to rgb

	mov	eax, DWORD PTR _s$[ebp]
	cmp	DWORD PTR [eax+12], 3
	jne	SHORT $LN15@stbi__de_i

; 4642 :       for (i=0; i < pixel_count; ++i) {

	mov	DWORD PTR _i$[ebp], 0
	jmp	SHORT $LN14@stbi__de_i
$LN13@stbi__de_i:
	mov	eax, DWORD PTR _i$[ebp]
	add	eax, 1
	mov	DWORD PTR _i$[ebp], eax
$LN14@stbi__de_i:
	mov	eax, DWORD PTR _i$[ebp]
	cmp	eax, DWORD PTR _pixel_count$[ebp]
	jae	SHORT $LN12@stbi__de_i

; 4643 :          stbi_uc t = p[0];

	mov	eax, 1
	imul	ecx, eax, 0
	mov	edx, DWORD PTR _p$[ebp]
	mov	al, BYTE PTR [edx+ecx]
	mov	BYTE PTR _t$5[ebp], al

; 4644 :          p[0] = p[2];

	mov	eax, 1
	shl	eax, 1
	mov	ecx, 1
	imul	edx, ecx, 0
	mov	ecx, DWORD PTR _p$[ebp]
	mov	esi, DWORD PTR _p$[ebp]
	mov	al, BYTE PTR [esi+eax]
	mov	BYTE PTR [ecx+edx], al

; 4645 :          p[2] = t;

	mov	eax, 1
	shl	eax, 1
	mov	ecx, DWORD PTR _p$[ebp]
	mov	dl, BYTE PTR _t$5[ebp]
	mov	BYTE PTR [ecx+eax], dl

; 4646 :          p += 3;

	mov	eax, DWORD PTR _p$[ebp]
	add	eax, 3
	mov	DWORD PTR _p$[ebp], eax

; 4647 :       }

	jmp	SHORT $LN13@stbi__de_i
$LN12@stbi__de_i:

; 4648 :    } else {

	jmp	$LN16@stbi__de_i
$LN15@stbi__de_i:

; 4649 :       STBI_ASSERT(s->img_out_n == 4);

	mov	eax, DWORD PTR _s$[ebp]
	cmp	DWORD PTR [eax+12], 4
	je	SHORT $LN18@stbi__de_i
	mov	ecx, DWORD PTR ?__LINE__Var@?1??stbi__de_iphone@@9@9@e7b221e1
	add	ecx, 13					; 0000000dH
	push	ecx
	push	OFFSET ??_C@_1HC@LCAFOEHA@?$AAc?$AA?3?$AA?2?$AAu?$AAs?$AAe?$AAr?$AAs?$AA?2?$AAm?$AAa?$AAr?$AAc?$AAo?$AAs?$AA?2?$AAd?$AAe?$AAs?$AAk?$AAt?$AAo?$AAp?$AA?2?$AAp?$AAr?$AAj?$AA?2?$AAm?$AAg?$AAe?$AAa@
	push	OFFSET ??_C@_1CE@GKIDJEJM@?$AAs?$AA?9?$AA?$DO?$AAi?$AAm?$AAg?$AA_?$AAo?$AAu?$AAt?$AA_?$AAn?$AA?5?$AA?$DN?$AA?$DN?$AA?5?$AA4?$AA?$AA@
	call	__wassert
	add	esp, 12					; 0000000cH
$LN18@stbi__de_i:

; 4650 :       if (stbi__unpremultiply_on_load) {

	cmp	DWORD PTR _stbi__unpremultiply_on_load, 0
	je	$LN10@stbi__de_i

; 4651 :          // convert bgr to rgb and unpremultiply
; 4652 :          for (i=0; i < pixel_count; ++i) {

	mov	DWORD PTR _i$[ebp], 0
	jmp	SHORT $LN9@stbi__de_i
$LN8@stbi__de_i:
	mov	eax, DWORD PTR _i$[ebp]
	add	eax, 1
	mov	DWORD PTR _i$[ebp], eax
$LN9@stbi__de_i:
	mov	eax, DWORD PTR _i$[ebp]
	cmp	eax, DWORD PTR _pixel_count$[ebp]
	jae	$LN7@stbi__de_i

; 4653 :             stbi_uc a = p[3];

	mov	eax, 1
	imul	ecx, eax, 3
	mov	edx, DWORD PTR _p$[ebp]
	mov	al, BYTE PTR [edx+ecx]
	mov	BYTE PTR _a$4[ebp], al

; 4654 :             stbi_uc t = p[0];

	mov	eax, 1
	imul	ecx, eax, 0
	mov	edx, DWORD PTR _p$[ebp]
	mov	al, BYTE PTR [edx+ecx]
	mov	BYTE PTR _t$3[ebp], al

; 4655 :             if (a) {

	movzx	eax, BYTE PTR _a$4[ebp]
	test	eax, eax
	je	$LN6@stbi__de_i

; 4656 :                stbi_uc half = a / 2;

	movzx	eax, BYTE PTR _a$4[ebp]
	cdq
	sub	eax, edx
	sar	eax, 1
	mov	BYTE PTR _half$2[ebp], al

; 4657 :                p[0] = (p[2] * 255 + half) / a;

	mov	eax, 1
	shl	eax, 1
	mov	ecx, DWORD PTR _p$[ebp]
	movzx	edx, BYTE PTR [ecx+eax]
	imul	eax, edx, 255
	movzx	ecx, BYTE PTR _half$2[ebp]
	add	eax, ecx
	movzx	ecx, BYTE PTR _a$4[ebp]
	cdq
	idiv	ecx
	mov	edx, 1
	imul	ecx, edx, 0
	mov	edx, DWORD PTR _p$[ebp]
	mov	BYTE PTR [edx+ecx], al

; 4658 :                p[1] = (p[1] * 255 + half) / a;

	mov	eax, 1
	shl	eax, 0
	mov	ecx, DWORD PTR _p$[ebp]
	movzx	edx, BYTE PTR [ecx+eax]
	imul	eax, edx, 255
	movzx	ecx, BYTE PTR _half$2[ebp]
	add	eax, ecx
	movzx	ecx, BYTE PTR _a$4[ebp]
	cdq
	idiv	ecx
	mov	edx, 1
	shl	edx, 0
	mov	ecx, DWORD PTR _p$[ebp]
	mov	BYTE PTR [ecx+edx], al

; 4659 :                p[2] = ( t   * 255 + half) / a;

	movzx	eax, BYTE PTR _t$3[ebp]
	imul	eax, eax, 255
	movzx	ecx, BYTE PTR _half$2[ebp]
	add	eax, ecx
	movzx	ecx, BYTE PTR _a$4[ebp]
	cdq
	idiv	ecx
	mov	edx, 1
	shl	edx, 1
	mov	ecx, DWORD PTR _p$[ebp]
	mov	BYTE PTR [ecx+edx], al

; 4660 :             } else {

	jmp	SHORT $LN5@stbi__de_i
$LN6@stbi__de_i:

; 4661 :                p[0] = p[2];

	mov	eax, 1
	shl	eax, 1
	mov	ecx, 1
	imul	edx, ecx, 0
	mov	ecx, DWORD PTR _p$[ebp]
	mov	esi, DWORD PTR _p$[ebp]
	mov	al, BYTE PTR [esi+eax]
	mov	BYTE PTR [ecx+edx], al

; 4662 :                p[2] = t;

	mov	eax, 1
	shl	eax, 1
	mov	ecx, DWORD PTR _p$[ebp]
	mov	dl, BYTE PTR _t$3[ebp]
	mov	BYTE PTR [ecx+eax], dl
$LN5@stbi__de_i:

; 4663 :             }
; 4664 :             p += 4;

	mov	eax, DWORD PTR _p$[ebp]
	add	eax, 4
	mov	DWORD PTR _p$[ebp], eax

; 4665 :          }

	jmp	$LN8@stbi__de_i
$LN7@stbi__de_i:

; 4666 :       } else {

	jmp	SHORT $LN16@stbi__de_i
$LN10@stbi__de_i:

; 4667 :          // convert bgr to rgb
; 4668 :          for (i=0; i < pixel_count; ++i) {

	mov	DWORD PTR _i$[ebp], 0
	jmp	SHORT $LN3@stbi__de_i
$LN2@stbi__de_i:
	mov	eax, DWORD PTR _i$[ebp]
	add	eax, 1
	mov	DWORD PTR _i$[ebp], eax
$LN3@stbi__de_i:
	mov	eax, DWORD PTR _i$[ebp]
	cmp	eax, DWORD PTR _pixel_count$[ebp]
	jae	SHORT $LN16@stbi__de_i

; 4669 :             stbi_uc t = p[0];

	mov	eax, 1
	imul	ecx, eax, 0
	mov	edx, DWORD PTR _p$[ebp]
	mov	al, BYTE PTR [edx+ecx]
	mov	BYTE PTR _t$1[ebp], al

; 4670 :             p[0] = p[2];

	mov	eax, 1
	shl	eax, 1
	mov	ecx, 1
	imul	edx, ecx, 0
	mov	ecx, DWORD PTR _p$[ebp]
	mov	esi, DWORD PTR _p$[ebp]
	mov	al, BYTE PTR [esi+eax]
	mov	BYTE PTR [ecx+edx], al

; 4671 :             p[2] = t;

	mov	eax, 1
	shl	eax, 1
	mov	ecx, DWORD PTR _p$[ebp]
	mov	dl, BYTE PTR _t$1[ebp]
	mov	BYTE PTR [ecx+eax], dl

; 4672 :             p += 4;

	mov	eax, DWORD PTR _p$[ebp]
	add	eax, 4
	mov	DWORD PTR _p$[ebp], eax

; 4673 :          }

	jmp	SHORT $LN2@stbi__de_i
$LN16@stbi__de_i:

; 4674 :       }
; 4675 :    }
; 4676 : }

	pop	edi
	pop	esi
	pop	ebx
	add	esp, 300				; 0000012cH
	cmp	ebp, esp
	call	__RTC_CheckEsp
	mov	esp, ebp
	pop	ebp
	ret	0
_stbi__de_iphone ENDP
_TEXT	ENDS
; Function compile flags: /Odtp /RTCsu /ZI
; File c:\users\marcos\desktop\prj\mgear-1\apis\stb\stb_image.h
;	COMDAT _stbi__expand_png_palette
_TEXT	SEGMENT
_n$1 = -80						; size = 4
_n$2 = -68						; size = 4
_orig$ = -56						; size = 4
_temp_out$ = -44					; size = 4
_p$ = -32						; size = 4
_pixel_count$ = -20					; size = 4
_i$ = -8						; size = 4
_a$ = 8							; size = 4
_palette$ = 12						; size = 4
_len$ = 16						; size = 4
_pal_img_n$ = 20					; size = 4
_stbi__expand_png_palette PROC				; COMDAT

; 4586 : {

	push	ebp
	mov	ebp, esp
	sub	esp, 276				; 00000114H
	push	ebx
	push	esi
	push	edi
	lea	edi, DWORD PTR [ebp-276]
	mov	ecx, 69					; 00000045H
	mov	eax, -858993460				; ccccccccH
	rep stosd

; 4587 :    stbi__uint32 i, pixel_count = a->s->img_x * a->s->img_y;

	mov	eax, DWORD PTR _a$[ebp]
	mov	ecx, DWORD PTR [eax]
	mov	edx, DWORD PTR _a$[ebp]
	mov	eax, DWORD PTR [edx]
	mov	ecx, DWORD PTR [ecx]
	imul	ecx, DWORD PTR [eax+4]
	mov	DWORD PTR _pixel_count$[ebp], ecx

; 4588 :    stbi_uc *p, *temp_out, *orig = a->out;

	mov	eax, DWORD PTR _a$[ebp]
	mov	ecx, DWORD PTR [eax+12]
	mov	DWORD PTR _orig$[ebp], ecx

; 4589 : 
; 4590 :    p = (stbi_uc *) stbi__malloc_mad2(pixel_count, pal_img_n, 0);

	push	0
	mov	eax, DWORD PTR _pal_img_n$[ebp]
	push	eax
	mov	ecx, DWORD PTR _pixel_count$[ebp]
	push	ecx
	call	_stbi__malloc_mad2
	add	esp, 12					; 0000000cH
	mov	DWORD PTR _p$[ebp], eax

; 4591 :    if (p == NULL) return stbi__err("outofmem", "Out of memory");

	cmp	DWORD PTR _p$[ebp], 0
	jne	SHORT $LN9@stbi__expa
	push	OFFSET ??_C@_08NOGIMCHF@outofmem?$AA@
	call	_stbi__err
	add	esp, 4
	jmp	$LN10@stbi__expa
$LN9@stbi__expa:

; 4592 : 
; 4593 :    // between here and free(out) below, exitting would leak
; 4594 :    temp_out = p;

	mov	eax, DWORD PTR _p$[ebp]
	mov	DWORD PTR _temp_out$[ebp], eax

; 4595 : 
; 4596 :    if (pal_img_n == 3) {

	cmp	DWORD PTR _pal_img_n$[ebp], 3
	jne	SHORT $LN8@stbi__expa

; 4597 :       for (i=0; i < pixel_count; ++i) {

	mov	DWORD PTR _i$[ebp], 0
	jmp	SHORT $LN7@stbi__expa
$LN6@stbi__expa:
	mov	eax, DWORD PTR _i$[ebp]
	add	eax, 1
	mov	DWORD PTR _i$[ebp], eax
$LN7@stbi__expa:
	mov	eax, DWORD PTR _i$[ebp]
	cmp	eax, DWORD PTR _pixel_count$[ebp]
	jae	SHORT $LN5@stbi__expa

; 4598 :          int n = orig[i]*4;

	mov	eax, DWORD PTR _orig$[ebp]
	add	eax, DWORD PTR _i$[ebp]
	movzx	ecx, BYTE PTR [eax]
	shl	ecx, 2
	mov	DWORD PTR _n$2[ebp], ecx

; 4599 :          p[0] = palette[n  ];

	mov	eax, 1
	imul	ecx, eax, 0
	mov	edx, DWORD PTR _palette$[ebp]
	add	edx, DWORD PTR _n$2[ebp]
	mov	eax, DWORD PTR _p$[ebp]
	mov	dl, BYTE PTR [edx]
	mov	BYTE PTR [eax+ecx], dl

; 4600 :          p[1] = palette[n+1];

	mov	eax, 1
	shl	eax, 0
	mov	ecx, DWORD PTR _palette$[ebp]
	add	ecx, DWORD PTR _n$2[ebp]
	mov	edx, DWORD PTR _p$[ebp]
	mov	cl, BYTE PTR [ecx+1]
	mov	BYTE PTR [edx+eax], cl

; 4601 :          p[2] = palette[n+2];

	mov	eax, 1
	shl	eax, 1
	mov	ecx, DWORD PTR _palette$[ebp]
	add	ecx, DWORD PTR _n$2[ebp]
	mov	edx, DWORD PTR _p$[ebp]
	mov	cl, BYTE PTR [ecx+2]
	mov	BYTE PTR [edx+eax], cl

; 4602 :          p += 3;

	mov	eax, DWORD PTR _p$[ebp]
	add	eax, 3
	mov	DWORD PTR _p$[ebp], eax

; 4603 :       }

	jmp	SHORT $LN6@stbi__expa
$LN5@stbi__expa:

; 4604 :    } else {

	jmp	$LN4@stbi__expa
$LN8@stbi__expa:

; 4605 :       for (i=0; i < pixel_count; ++i) {

	mov	DWORD PTR _i$[ebp], 0
	jmp	SHORT $LN3@stbi__expa
$LN2@stbi__expa:
	mov	eax, DWORD PTR _i$[ebp]
	add	eax, 1
	mov	DWORD PTR _i$[ebp], eax
$LN3@stbi__expa:
	mov	eax, DWORD PTR _i$[ebp]
	cmp	eax, DWORD PTR _pixel_count$[ebp]
	jae	SHORT $LN4@stbi__expa

; 4606 :          int n = orig[i]*4;

	mov	eax, DWORD PTR _orig$[ebp]
	add	eax, DWORD PTR _i$[ebp]
	movzx	ecx, BYTE PTR [eax]
	shl	ecx, 2
	mov	DWORD PTR _n$1[ebp], ecx

; 4607 :          p[0] = palette[n  ];

	mov	eax, 1
	imul	ecx, eax, 0
	mov	edx, DWORD PTR _palette$[ebp]
	add	edx, DWORD PTR _n$1[ebp]
	mov	eax, DWORD PTR _p$[ebp]
	mov	dl, BYTE PTR [edx]
	mov	BYTE PTR [eax+ecx], dl

; 4608 :          p[1] = palette[n+1];

	mov	eax, 1
	shl	eax, 0
	mov	ecx, DWORD PTR _palette$[ebp]
	add	ecx, DWORD PTR _n$1[ebp]
	mov	edx, DWORD PTR _p$[ebp]
	mov	cl, BYTE PTR [ecx+1]
	mov	BYTE PTR [edx+eax], cl

; 4609 :          p[2] = palette[n+2];

	mov	eax, 1
	shl	eax, 1
	mov	ecx, DWORD PTR _palette$[ebp]
	add	ecx, DWORD PTR _n$1[ebp]
	mov	edx, DWORD PTR _p$[ebp]
	mov	cl, BYTE PTR [ecx+2]
	mov	BYTE PTR [edx+eax], cl

; 4610 :          p[3] = palette[n+3];

	mov	eax, 1
	imul	ecx, eax, 3
	mov	edx, DWORD PTR _palette$[ebp]
	add	edx, DWORD PTR _n$1[ebp]
	mov	eax, DWORD PTR _p$[ebp]
	mov	dl, BYTE PTR [edx+3]
	mov	BYTE PTR [eax+ecx], dl

; 4611 :          p += 4;

	mov	eax, DWORD PTR _p$[ebp]
	add	eax, 4
	mov	DWORD PTR _p$[ebp], eax

; 4612 :       }

	jmp	$LN2@stbi__expa
$LN4@stbi__expa:

; 4613 :    }
; 4614 :    STBI_FREE(a->out);

	mov	eax, DWORD PTR _a$[ebp]
	mov	ecx, DWORD PTR [eax+12]
	push	ecx
	call	_free
	add	esp, 4

; 4615 :    a->out = temp_out;

	mov	eax, DWORD PTR _a$[ebp]
	mov	ecx, DWORD PTR _temp_out$[ebp]
	mov	DWORD PTR [eax+12], ecx

; 4616 : 
; 4617 :    STBI_NOTUSED(len);
; 4618 : 
; 4619 :    return 1;

	mov	eax, 1
$LN10@stbi__expa:

; 4620 : }

	pop	edi
	pop	esi
	pop	ebx
	add	esp, 276				; 00000114H
	cmp	ebp, esp
	call	__RTC_CheckEsp
	mov	esp, ebp
	pop	ebp
	ret	0
_stbi__expand_png_palette ENDP
_TEXT	ENDS
; Function compile flags: /Odtp /RTCsu /ZI
; File c:\users\marcos\desktop\prj\mgear-1\apis\stb\stb_image.h
;	COMDAT _stbi__compute_transparency16
_TEXT	SEGMENT
tv88 = -244						; size = 4
_p$ = -44						; size = 4
_pixel_count$ = -32					; size = 4
_i$ = -20						; size = 4
_s$ = -8						; size = 4
_z$ = 8							; size = 4
_tc$ = 12						; size = 4
_out_n$ = 16						; size = 4
_stbi__compute_transparency16 PROC			; COMDAT

; 4561 : {

	push	ebp
	mov	ebp, esp
	sub	esp, 244				; 000000f4H
	push	ebx
	push	esi
	push	edi
	lea	edi, DWORD PTR [ebp-244]
	mov	ecx, 61					; 0000003dH
	mov	eax, -858993460				; ccccccccH
	rep stosd

; 4562 :    stbi__context *s = z->s;

	mov	eax, DWORD PTR _z$[ebp]
	mov	ecx, DWORD PTR [eax]
	mov	DWORD PTR _s$[ebp], ecx

; 4563 :    stbi__uint32 i, pixel_count = s->img_x * s->img_y;

	mov	eax, DWORD PTR _s$[ebp]
	mov	ecx, DWORD PTR _s$[ebp]
	mov	edx, DWORD PTR [eax]
	imul	edx, DWORD PTR [ecx+4]
	mov	DWORD PTR _pixel_count$[ebp], edx

; 4564 :    stbi__uint16 *p = (stbi__uint16*) z->out;

	mov	eax, DWORD PTR _z$[ebp]
	mov	ecx, DWORD PTR [eax+12]
	mov	DWORD PTR _p$[ebp], ecx

; 4565 : 
; 4566 :    // compute color-based transparency, assuming we've
; 4567 :    // already got 65535 as the alpha value in the output
; 4568 :    STBI_ASSERT(out_n == 2 || out_n == 4);

	cmp	DWORD PTR _out_n$[ebp], 2
	je	SHORT $LN12@stbi__comp
	cmp	DWORD PTR _out_n$[ebp], 4
	je	SHORT $LN12@stbi__comp
	mov	eax, DWORD PTR ?__LINE__Var@?1??stbi__compute_transparency16@@9@9@e7b221e1
	add	eax, 7
	push	eax
	push	OFFSET ??_C@_1HC@LCAFOEHA@?$AAc?$AA?3?$AA?2?$AAu?$AAs?$AAe?$AAr?$AAs?$AA?2?$AAm?$AAa?$AAr?$AAc?$AAo?$AAs?$AA?2?$AAd?$AAe?$AAs?$AAk?$AAt?$AAo?$AAp?$AA?2?$AAp?$AAr?$AAj?$AA?2?$AAm?$AAg?$AAe?$AAa@
	push	OFFSET ??_C@_1DC@BMIDKOPK@?$AAo?$AAu?$AAt?$AA_?$AAn?$AA?5?$AA?$DN?$AA?$DN?$AA?5?$AA2?$AA?5?$AA?$HM?$AA?$HM?$AA?5?$AAo?$AAu?$AAt?$AA_?$AAn?$AA?5?$AA?$DN?$AA?$DN?$AA?5?$AA4?$AA?$AA@
	call	__wassert
	add	esp, 12					; 0000000cH
$LN12@stbi__comp:

; 4569 : 
; 4570 :    if (out_n == 2) {

	cmp	DWORD PTR _out_n$[ebp], 2
	jne	SHORT $LN9@stbi__comp

; 4571 :       for (i = 0; i < pixel_count; ++i) {

	mov	DWORD PTR _i$[ebp], 0
	jmp	SHORT $LN8@stbi__comp
$LN7@stbi__comp:
	mov	eax, DWORD PTR _i$[ebp]
	add	eax, 1
	mov	DWORD PTR _i$[ebp], eax
$LN8@stbi__comp:
	mov	eax, DWORD PTR _i$[ebp]
	cmp	eax, DWORD PTR _pixel_count$[ebp]
	jae	SHORT $LN6@stbi__comp

; 4572 :          p[1] = (p[0] == tc[0] ? 0 : 65535);

	mov	eax, 2
	imul	ecx, eax, 0
	mov	edx, DWORD PTR _p$[ebp]
	movzx	eax, WORD PTR [edx+ecx]
	mov	ecx, 2
	imul	edx, ecx, 0
	mov	ecx, DWORD PTR _tc$[ebp]
	movzx	edx, WORD PTR [ecx+edx]
	cmp	eax, edx
	jne	SHORT $LN13@stbi__comp
	mov	DWORD PTR tv88[ebp], 0
	jmp	SHORT $LN14@stbi__comp
$LN13@stbi__comp:
	mov	DWORD PTR tv88[ebp], 65535		; 0000ffffH
$LN14@stbi__comp:
	mov	eax, 2
	shl	eax, 0
	mov	ecx, DWORD PTR _p$[ebp]
	mov	dx, WORD PTR tv88[ebp]
	mov	WORD PTR [ecx+eax], dx

; 4573 :          p += 2;

	mov	eax, DWORD PTR _p$[ebp]
	add	eax, 4
	mov	DWORD PTR _p$[ebp], eax

; 4574 :       }

	jmp	SHORT $LN7@stbi__comp
$LN6@stbi__comp:

; 4575 :    } else {

	jmp	$LN5@stbi__comp
$LN9@stbi__comp:

; 4576 :       for (i = 0; i < pixel_count; ++i) {

	mov	DWORD PTR _i$[ebp], 0
	jmp	SHORT $LN4@stbi__comp
$LN3@stbi__comp:
	mov	eax, DWORD PTR _i$[ebp]
	add	eax, 1
	mov	DWORD PTR _i$[ebp], eax
$LN4@stbi__comp:
	mov	eax, DWORD PTR _i$[ebp]
	cmp	eax, DWORD PTR _pixel_count$[ebp]
	jae	$LN5@stbi__comp

; 4577 :          if (p[0] == tc[0] && p[1] == tc[1] && p[2] == tc[2])

	mov	eax, 2
	imul	ecx, eax, 0
	mov	edx, DWORD PTR _p$[ebp]
	movzx	eax, WORD PTR [edx+ecx]
	mov	ecx, 2
	imul	edx, ecx, 0
	mov	ecx, DWORD PTR _tc$[ebp]
	movzx	edx, WORD PTR [ecx+edx]
	cmp	eax, edx
	jne	SHORT $LN1@stbi__comp
	mov	eax, 2
	shl	eax, 0
	mov	ecx, DWORD PTR _p$[ebp]
	movzx	edx, WORD PTR [ecx+eax]
	mov	eax, 2
	shl	eax, 0
	mov	ecx, DWORD PTR _tc$[ebp]
	movzx	eax, WORD PTR [ecx+eax]
	cmp	edx, eax
	jne	SHORT $LN1@stbi__comp
	mov	eax, 2
	shl	eax, 1
	mov	ecx, DWORD PTR _p$[ebp]
	movzx	edx, WORD PTR [ecx+eax]
	mov	eax, 2
	shl	eax, 1
	mov	ecx, DWORD PTR _tc$[ebp]
	movzx	eax, WORD PTR [ecx+eax]
	cmp	edx, eax
	jne	SHORT $LN1@stbi__comp

; 4578 :             p[3] = 0;

	mov	eax, 2
	imul	ecx, eax, 3
	xor	edx, edx
	mov	eax, DWORD PTR _p$[ebp]
	mov	WORD PTR [eax+ecx], dx
$LN1@stbi__comp:

; 4579 :          p += 4;

	mov	eax, DWORD PTR _p$[ebp]
	add	eax, 8
	mov	DWORD PTR _p$[ebp], eax

; 4580 :       }

	jmp	$LN3@stbi__comp
$LN5@stbi__comp:

; 4581 :    }
; 4582 :    return 1;

	mov	eax, 1

; 4583 : }

	pop	edi
	pop	esi
	pop	ebx
	add	esp, 244				; 000000f4H
	cmp	ebp, esp
	call	__RTC_CheckEsp
	mov	esp, ebp
	pop	ebp
	ret	0
_stbi__compute_transparency16 ENDP
_TEXT	ENDS
; Function compile flags: /Odtp /RTCsu /ZI
; File c:\users\marcos\desktop\prj\mgear-1\apis\stb\stb_image.h
;	COMDAT _stbi__compute_transparency
_TEXT	SEGMENT
tv88 = -244						; size = 4
_p$ = -44						; size = 4
_pixel_count$ = -32					; size = 4
_i$ = -20						; size = 4
_s$ = -8						; size = 4
_z$ = 8							; size = 4
_tc$ = 12						; size = 4
_out_n$ = 16						; size = 4
_stbi__compute_transparency PROC			; COMDAT

; 4536 : {

	push	ebp
	mov	ebp, esp
	sub	esp, 244				; 000000f4H
	push	ebx
	push	esi
	push	edi
	lea	edi, DWORD PTR [ebp-244]
	mov	ecx, 61					; 0000003dH
	mov	eax, -858993460				; ccccccccH
	rep stosd

; 4537 :    stbi__context *s = z->s;

	mov	eax, DWORD PTR _z$[ebp]
	mov	ecx, DWORD PTR [eax]
	mov	DWORD PTR _s$[ebp], ecx

; 4538 :    stbi__uint32 i, pixel_count = s->img_x * s->img_y;

	mov	eax, DWORD PTR _s$[ebp]
	mov	ecx, DWORD PTR _s$[ebp]
	mov	edx, DWORD PTR [eax]
	imul	edx, DWORD PTR [ecx+4]
	mov	DWORD PTR _pixel_count$[ebp], edx

; 4539 :    stbi_uc *p = z->out;

	mov	eax, DWORD PTR _z$[ebp]
	mov	ecx, DWORD PTR [eax+12]
	mov	DWORD PTR _p$[ebp], ecx

; 4540 : 
; 4541 :    // compute color-based transparency, assuming we've
; 4542 :    // already got 255 as the alpha value in the output
; 4543 :    STBI_ASSERT(out_n == 2 || out_n == 4);

	cmp	DWORD PTR _out_n$[ebp], 2
	je	SHORT $LN12@stbi__comp
	cmp	DWORD PTR _out_n$[ebp], 4
	je	SHORT $LN12@stbi__comp
	mov	eax, DWORD PTR ?__LINE__Var@?1??stbi__compute_transparency@@9@9@e7b221e1
	add	eax, 7
	push	eax
	push	OFFSET ??_C@_1HC@LCAFOEHA@?$AAc?$AA?3?$AA?2?$AAu?$AAs?$AAe?$AAr?$AAs?$AA?2?$AAm?$AAa?$AAr?$AAc?$AAo?$AAs?$AA?2?$AAd?$AAe?$AAs?$AAk?$AAt?$AAo?$AAp?$AA?2?$AAp?$AAr?$AAj?$AA?2?$AAm?$AAg?$AAe?$AAa@
	push	OFFSET ??_C@_1DC@BMIDKOPK@?$AAo?$AAu?$AAt?$AA_?$AAn?$AA?5?$AA?$DN?$AA?$DN?$AA?5?$AA2?$AA?5?$AA?$HM?$AA?$HM?$AA?5?$AAo?$AAu?$AAt?$AA_?$AAn?$AA?5?$AA?$DN?$AA?$DN?$AA?5?$AA4?$AA?$AA@
	call	__wassert
	add	esp, 12					; 0000000cH
$LN12@stbi__comp:

; 4544 : 
; 4545 :    if (out_n == 2) {

	cmp	DWORD PTR _out_n$[ebp], 2
	jne	SHORT $LN9@stbi__comp

; 4546 :       for (i=0; i < pixel_count; ++i) {

	mov	DWORD PTR _i$[ebp], 0
	jmp	SHORT $LN8@stbi__comp
$LN7@stbi__comp:
	mov	eax, DWORD PTR _i$[ebp]
	add	eax, 1
	mov	DWORD PTR _i$[ebp], eax
$LN8@stbi__comp:
	mov	eax, DWORD PTR _i$[ebp]
	cmp	eax, DWORD PTR _pixel_count$[ebp]
	jae	SHORT $LN6@stbi__comp

; 4547 :          p[1] = (p[0] == tc[0] ? 0 : 255);

	mov	eax, 1
	imul	ecx, eax, 0
	mov	edx, DWORD PTR _p$[ebp]
	movzx	eax, BYTE PTR [edx+ecx]
	mov	ecx, 1
	imul	edx, ecx, 0
	mov	ecx, DWORD PTR _tc$[ebp]
	movzx	edx, BYTE PTR [ecx+edx]
	cmp	eax, edx
	jne	SHORT $LN13@stbi__comp
	mov	DWORD PTR tv88[ebp], 0
	jmp	SHORT $LN14@stbi__comp
$LN13@stbi__comp:
	mov	DWORD PTR tv88[ebp], 255		; 000000ffH
$LN14@stbi__comp:
	mov	eax, 1
	shl	eax, 0
	mov	ecx, DWORD PTR _p$[ebp]
	mov	dl, BYTE PTR tv88[ebp]
	mov	BYTE PTR [ecx+eax], dl

; 4548 :          p += 2;

	mov	eax, DWORD PTR _p$[ebp]
	add	eax, 2
	mov	DWORD PTR _p$[ebp], eax

; 4549 :       }

	jmp	SHORT $LN7@stbi__comp
$LN6@stbi__comp:

; 4550 :    } else {

	jmp	$LN5@stbi__comp
$LN9@stbi__comp:

; 4551 :       for (i=0; i < pixel_count; ++i) {

	mov	DWORD PTR _i$[ebp], 0
	jmp	SHORT $LN4@stbi__comp
$LN3@stbi__comp:
	mov	eax, DWORD PTR _i$[ebp]
	add	eax, 1
	mov	DWORD PTR _i$[ebp], eax
$LN4@stbi__comp:
	mov	eax, DWORD PTR _i$[ebp]
	cmp	eax, DWORD PTR _pixel_count$[ebp]
	jae	$LN5@stbi__comp

; 4552 :          if (p[0] == tc[0] && p[1] == tc[1] && p[2] == tc[2])

	mov	eax, 1
	imul	ecx, eax, 0
	mov	edx, DWORD PTR _p$[ebp]
	movzx	eax, BYTE PTR [edx+ecx]
	mov	ecx, 1
	imul	edx, ecx, 0
	mov	ecx, DWORD PTR _tc$[ebp]
	movzx	edx, BYTE PTR [ecx+edx]
	cmp	eax, edx
	jne	SHORT $LN1@stbi__comp
	mov	eax, 1
	shl	eax, 0
	mov	ecx, DWORD PTR _p$[ebp]
	movzx	edx, BYTE PTR [ecx+eax]
	mov	eax, 1
	shl	eax, 0
	mov	ecx, DWORD PTR _tc$[ebp]
	movzx	eax, BYTE PTR [ecx+eax]
	cmp	edx, eax
	jne	SHORT $LN1@stbi__comp
	mov	eax, 1
	shl	eax, 1
	mov	ecx, DWORD PTR _p$[ebp]
	movzx	edx, BYTE PTR [ecx+eax]
	mov	eax, 1
	shl	eax, 1
	mov	ecx, DWORD PTR _tc$[ebp]
	movzx	eax, BYTE PTR [ecx+eax]
	cmp	edx, eax
	jne	SHORT $LN1@stbi__comp

; 4553 :             p[3] = 0;

	mov	eax, 1
	imul	ecx, eax, 3
	mov	edx, DWORD PTR _p$[ebp]
	mov	BYTE PTR [edx+ecx], 0
$LN1@stbi__comp:

; 4554 :          p += 4;

	mov	eax, DWORD PTR _p$[ebp]
	add	eax, 4
	mov	DWORD PTR _p$[ebp], eax

; 4555 :       }

	jmp	$LN3@stbi__comp
$LN5@stbi__comp:

; 4556 :    }
; 4557 :    return 1;

	mov	eax, 1

; 4558 : }

	pop	edi
	pop	esi
	pop	ebx
	add	esp, 244				; 000000f4H
	cmp	ebp, esp
	call	__RTC_CheckEsp
	mov	esp, ebp
	pop	ebp
	ret	0
_stbi__compute_transparency ENDP
_TEXT	ENDS
; Function compile flags: /Odtp /RTCsu /ZI
; File c:\users\marcos\desktop\prj\mgear-1\apis\stb\stb_image.h
;	COMDAT _stbi__create_png_image
_TEXT	SEGMENT
tv65 = -476						; size = 4
_out_x$1 = -276						; size = 4
_out_y$2 = -264						; size = 4
_img_len$3 = -252					; size = 4
_y$4 = -240						; size = 4
_x$5 = -228						; size = 4
_j$6 = -216						; size = 4
_i$7 = -204						; size = 4
_yspc$8 = -192						; size = 28
_xspc$9 = -156						; size = 28
_yorig$10 = -120					; size = 28
_xorig$11 = -84						; size = 28
_p$ = -48						; size = 4
_final$ = -36						; size = 4
_out_bytes$ = -24					; size = 4
_bytes$ = -12						; size = 4
__$ArrayPad$ = -4					; size = 4
_a$ = 8							; size = 4
_image_data$ = 12					; size = 4
_image_data_len$ = 16					; size = 4
_out_n$ = 20						; size = 4
_depth$ = 24						; size = 4
_color$ = 28						; size = 4
_interlaced$ = 32					; size = 4
_stbi__create_png_image PROC				; COMDAT

; 4492 : {

	push	ebp
	mov	ebp, esp
	sub	esp, 476				; 000001dcH
	push	ebx
	push	esi
	push	edi
	lea	edi, DWORD PTR [ebp-476]
	mov	ecx, 119				; 00000077H
	mov	eax, -858993460				; ccccccccH
	rep stosd
	mov	eax, DWORD PTR ___security_cookie
	xor	eax, ebp
	mov	DWORD PTR __$ArrayPad$[ebp], eax

; 4493 :    int bytes = (depth == 16 ? 2 : 1);

	cmp	DWORD PTR _depth$[ebp], 16		; 00000010H
	jne	SHORT $LN15@stbi__crea
	mov	DWORD PTR tv65[ebp], 2
	jmp	SHORT $LN16@stbi__crea
$LN15@stbi__crea:
	mov	DWORD PTR tv65[ebp], 1
$LN16@stbi__crea:
	mov	eax, DWORD PTR tv65[ebp]
	mov	DWORD PTR _bytes$[ebp], eax

; 4494 :    int out_bytes = out_n * bytes;

	mov	eax, DWORD PTR _out_n$[ebp]
	imul	eax, DWORD PTR _bytes$[ebp]
	mov	DWORD PTR _out_bytes$[ebp], eax

; 4495 :    stbi_uc *final;
; 4496 :    int p;
; 4497 :    if (!interlaced)

	cmp	DWORD PTR _interlaced$[ebp], 0
	jne	SHORT $LN12@stbi__crea

; 4498 :       return stbi__create_png_image_raw(a, image_data, image_data_len, out_n, a->s->img_x, a->s->img_y, depth, color);

	mov	eax, DWORD PTR _color$[ebp]
	push	eax
	mov	ecx, DWORD PTR _depth$[ebp]
	push	ecx
	mov	edx, DWORD PTR _a$[ebp]
	mov	eax, DWORD PTR [edx]
	mov	ecx, DWORD PTR [eax+4]
	push	ecx
	mov	edx, DWORD PTR _a$[ebp]
	mov	eax, DWORD PTR [edx]
	mov	ecx, DWORD PTR [eax]
	push	ecx
	mov	edx, DWORD PTR _out_n$[ebp]
	push	edx
	mov	eax, DWORD PTR _image_data_len$[ebp]
	push	eax
	mov	ecx, DWORD PTR _image_data$[ebp]
	push	ecx
	mov	edx, DWORD PTR _a$[ebp]
	push	edx
	call	_stbi__create_png_image_raw
	add	esp, 32					; 00000020H
	jmp	$LN13@stbi__crea
$LN12@stbi__crea:

; 4499 : 
; 4500 :    // de-interlacing
; 4501 :    final = (stbi_uc *) stbi__malloc_mad3(a->s->img_x, a->s->img_y, out_bytes, 0);

	push	0
	mov	eax, DWORD PTR _out_bytes$[ebp]
	push	eax
	mov	ecx, DWORD PTR _a$[ebp]
	mov	edx, DWORD PTR [ecx]
	mov	eax, DWORD PTR [edx+4]
	push	eax
	mov	ecx, DWORD PTR _a$[ebp]
	mov	edx, DWORD PTR [ecx]
	mov	eax, DWORD PTR [edx]
	push	eax
	call	_stbi__malloc_mad3
	add	esp, 16					; 00000010H
	mov	DWORD PTR _final$[ebp], eax

; 4502 :    for (p=0; p < 7; ++p) {

	mov	DWORD PTR _p$[ebp], 0
	jmp	SHORT $LN11@stbi__crea
$LN10@stbi__crea:
	mov	eax, DWORD PTR _p$[ebp]
	add	eax, 1
	mov	DWORD PTR _p$[ebp], eax
$LN11@stbi__crea:
	cmp	DWORD PTR _p$[ebp], 7
	jge	$LN9@stbi__crea

; 4503 :       int xorig[] = { 0,4,0,2,0,1,0 };

	mov	DWORD PTR _xorig$11[ebp], 0
	mov	DWORD PTR _xorig$11[ebp+4], 4
	mov	DWORD PTR _xorig$11[ebp+8], 0
	mov	DWORD PTR _xorig$11[ebp+12], 2
	mov	DWORD PTR _xorig$11[ebp+16], 0
	mov	DWORD PTR _xorig$11[ebp+20], 1
	mov	DWORD PTR _xorig$11[ebp+24], 0

; 4504 :       int yorig[] = { 0,0,4,0,2,0,1 };

	mov	DWORD PTR _yorig$10[ebp], 0
	mov	DWORD PTR _yorig$10[ebp+4], 0
	mov	DWORD PTR _yorig$10[ebp+8], 4
	mov	DWORD PTR _yorig$10[ebp+12], 0
	mov	DWORD PTR _yorig$10[ebp+16], 2
	mov	DWORD PTR _yorig$10[ebp+20], 0
	mov	DWORD PTR _yorig$10[ebp+24], 1

; 4505 :       int xspc[]  = { 8,8,4,4,2,2,1 };

	mov	DWORD PTR _xspc$9[ebp], 8
	mov	DWORD PTR _xspc$9[ebp+4], 8
	mov	DWORD PTR _xspc$9[ebp+8], 4
	mov	DWORD PTR _xspc$9[ebp+12], 4
	mov	DWORD PTR _xspc$9[ebp+16], 2
	mov	DWORD PTR _xspc$9[ebp+20], 2
	mov	DWORD PTR _xspc$9[ebp+24], 1

; 4506 :       int yspc[]  = { 8,8,8,4,4,2,2 };

	mov	DWORD PTR _yspc$8[ebp], 8
	mov	DWORD PTR _yspc$8[ebp+4], 8
	mov	DWORD PTR _yspc$8[ebp+8], 8
	mov	DWORD PTR _yspc$8[ebp+12], 4
	mov	DWORD PTR _yspc$8[ebp+16], 4
	mov	DWORD PTR _yspc$8[ebp+20], 2
	mov	DWORD PTR _yspc$8[ebp+24], 2

; 4507 :       int i,j,x,y;
; 4508 :       // pass1_x[4] = 0, pass1_x[5] = 1, pass1_x[12] = 1
; 4509 :       x = (a->s->img_x - xorig[p] + xspc[p]-1) / xspc[p];

	mov	eax, DWORD PTR _a$[ebp]
	mov	ecx, DWORD PTR [eax]
	mov	edx, DWORD PTR _p$[ebp]
	mov	eax, DWORD PTR [ecx]
	sub	eax, DWORD PTR _xorig$11[ebp+edx*4]
	mov	ecx, DWORD PTR _p$[ebp]
	mov	edx, DWORD PTR _xspc$9[ebp+ecx*4]
	lea	eax, DWORD PTR [eax+edx-1]
	mov	ecx, DWORD PTR _p$[ebp]
	xor	edx, edx
	div	DWORD PTR _xspc$9[ebp+ecx*4]
	mov	DWORD PTR _x$5[ebp], eax

; 4510 :       y = (a->s->img_y - yorig[p] + yspc[p]-1) / yspc[p];

	mov	eax, DWORD PTR _a$[ebp]
	mov	ecx, DWORD PTR [eax]
	mov	edx, DWORD PTR _p$[ebp]
	mov	eax, DWORD PTR [ecx+4]
	sub	eax, DWORD PTR _yorig$10[ebp+edx*4]
	mov	ecx, DWORD PTR _p$[ebp]
	mov	edx, DWORD PTR _yspc$8[ebp+ecx*4]
	lea	eax, DWORD PTR [eax+edx-1]
	mov	ecx, DWORD PTR _p$[ebp]
	xor	edx, edx
	div	DWORD PTR _yspc$8[ebp+ecx*4]
	mov	DWORD PTR _y$4[ebp], eax

; 4511 :       if (x && y) {

	cmp	DWORD PTR _x$5[ebp], 0
	je	$LN8@stbi__crea
	cmp	DWORD PTR _y$4[ebp], 0
	je	$LN8@stbi__crea

; 4512 :          stbi__uint32 img_len = ((((a->s->img_n * x * depth) + 7) >> 3) + 1) * y;

	mov	eax, DWORD PTR _a$[ebp]
	mov	ecx, DWORD PTR [eax]
	mov	edx, DWORD PTR [ecx+8]
	imul	edx, DWORD PTR _x$5[ebp]
	imul	edx, DWORD PTR _depth$[ebp]
	add	edx, 7
	sar	edx, 3
	add	edx, 1
	imul	edx, DWORD PTR _y$4[ebp]
	mov	DWORD PTR _img_len$3[ebp], edx

; 4513 :          if (!stbi__create_png_image_raw(a, image_data, image_data_len, out_n, x, y, depth, color)) {

	mov	eax, DWORD PTR _color$[ebp]
	push	eax
	mov	ecx, DWORD PTR _depth$[ebp]
	push	ecx
	mov	edx, DWORD PTR _y$4[ebp]
	push	edx
	mov	eax, DWORD PTR _x$5[ebp]
	push	eax
	mov	ecx, DWORD PTR _out_n$[ebp]
	push	ecx
	mov	edx, DWORD PTR _image_data_len$[ebp]
	push	edx
	mov	eax, DWORD PTR _image_data$[ebp]
	push	eax
	mov	ecx, DWORD PTR _a$[ebp]
	push	ecx
	call	_stbi__create_png_image_raw
	add	esp, 32					; 00000020H
	test	eax, eax
	jne	SHORT $LN7@stbi__crea

; 4514 :             STBI_FREE(final);

	mov	eax, DWORD PTR _final$[ebp]
	push	eax
	call	_free
	add	esp, 4

; 4515 :             return 0;

	xor	eax, eax
	jmp	$LN13@stbi__crea
$LN7@stbi__crea:

; 4516 :          }
; 4517 :          for (j=0; j < y; ++j) {

	mov	DWORD PTR _j$6[ebp], 0
	jmp	SHORT $LN6@stbi__crea
$LN5@stbi__crea:
	mov	eax, DWORD PTR _j$6[ebp]
	add	eax, 1
	mov	DWORD PTR _j$6[ebp], eax
$LN6@stbi__crea:
	mov	eax, DWORD PTR _j$6[ebp]
	cmp	eax, DWORD PTR _y$4[ebp]
	jge	$LN4@stbi__crea

; 4518 :             for (i=0; i < x; ++i) {

	mov	DWORD PTR _i$7[ebp], 0
	jmp	SHORT $LN3@stbi__crea
$LN2@stbi__crea:
	mov	eax, DWORD PTR _i$7[ebp]
	add	eax, 1
	mov	DWORD PTR _i$7[ebp], eax
$LN3@stbi__crea:
	mov	eax, DWORD PTR _i$7[ebp]
	cmp	eax, DWORD PTR _x$5[ebp]
	jge	$LN1@stbi__crea

; 4519 :                int out_y = j*yspc[p]+yorig[p];

	mov	eax, DWORD PTR _p$[ebp]
	mov	ecx, DWORD PTR _j$6[ebp]
	imul	ecx, DWORD PTR _yspc$8[ebp+eax*4]
	mov	edx, DWORD PTR _p$[ebp]
	add	ecx, DWORD PTR _yorig$10[ebp+edx*4]
	mov	DWORD PTR _out_y$2[ebp], ecx

; 4520 :                int out_x = i*xspc[p]+xorig[p];

	mov	eax, DWORD PTR _p$[ebp]
	mov	ecx, DWORD PTR _i$7[ebp]
	imul	ecx, DWORD PTR _xspc$9[ebp+eax*4]
	mov	edx, DWORD PTR _p$[ebp]
	add	ecx, DWORD PTR _xorig$11[ebp+edx*4]
	mov	DWORD PTR _out_x$1[ebp], ecx

; 4521 :                memcpy(final + out_y*a->s->img_x*out_bytes + out_x*out_bytes,
; 4522 :                       a->out + (j*x+i)*out_bytes, out_bytes);

	mov	eax, DWORD PTR _out_bytes$[ebp]
	push	eax
	mov	ecx, DWORD PTR _j$6[ebp]
	imul	ecx, DWORD PTR _x$5[ebp]
	add	ecx, DWORD PTR _i$7[ebp]
	imul	ecx, DWORD PTR _out_bytes$[ebp]
	mov	edx, DWORD PTR _a$[ebp]
	add	ecx, DWORD PTR [edx+12]
	push	ecx
	mov	eax, DWORD PTR _a$[ebp]
	mov	ecx, DWORD PTR [eax]
	mov	edx, DWORD PTR _out_y$2[ebp]
	imul	edx, DWORD PTR [ecx]
	imul	edx, DWORD PTR _out_bytes$[ebp]
	add	edx, DWORD PTR _final$[ebp]
	mov	eax, DWORD PTR _out_x$1[ebp]
	imul	eax, DWORD PTR _out_bytes$[ebp]
	add	edx, eax
	push	edx
	call	_memcpy
	add	esp, 12					; 0000000cH

; 4523 :             }

	jmp	$LN2@stbi__crea
$LN1@stbi__crea:

; 4524 :          }

	jmp	$LN5@stbi__crea
$LN4@stbi__crea:

; 4525 :          STBI_FREE(a->out);

	mov	eax, DWORD PTR _a$[ebp]
	mov	ecx, DWORD PTR [eax+12]
	push	ecx
	call	_free
	add	esp, 4

; 4526 :          image_data += img_len;

	mov	eax, DWORD PTR _image_data$[ebp]
	add	eax, DWORD PTR _img_len$3[ebp]
	mov	DWORD PTR _image_data$[ebp], eax

; 4527 :          image_data_len -= img_len;

	mov	eax, DWORD PTR _image_data_len$[ebp]
	sub	eax, DWORD PTR _img_len$3[ebp]
	mov	DWORD PTR _image_data_len$[ebp], eax
$LN8@stbi__crea:

; 4528 :       }
; 4529 :    }

	jmp	$LN10@stbi__crea
$LN9@stbi__crea:

; 4530 :    a->out = final;

	mov	eax, DWORD PTR _a$[ebp]
	mov	ecx, DWORD PTR _final$[ebp]
	mov	DWORD PTR [eax+12], ecx

; 4531 : 
; 4532 :    return 1;

	mov	eax, 1
$LN13@stbi__crea:

; 4533 : }

	push	edx
	mov	ecx, ebp
	push	eax
	lea	edx, DWORD PTR $LN22@stbi__crea
	call	@_RTC_CheckStackVars@8
	pop	eax
	pop	edx
	pop	edi
	pop	esi
	pop	ebx
	mov	ecx, DWORD PTR __$ArrayPad$[ebp]
	xor	ecx, ebp
	call	@__security_check_cookie@4
	add	esp, 476				; 000001dcH
	cmp	ebp, esp
	call	__RTC_CheckEsp
	mov	esp, ebp
	pop	ebp
	ret	0
	npad	3
$LN22@stbi__crea:
	DD	4
	DD	$LN21@stbi__crea
$LN21@stbi__crea:
	DD	-84					; ffffffacH
	DD	28					; 0000001cH
	DD	$LN17@stbi__crea
	DD	-120					; ffffff88H
	DD	28					; 0000001cH
	DD	$LN18@stbi__crea
	DD	-156					; ffffff64H
	DD	28					; 0000001cH
	DD	$LN19@stbi__crea
	DD	-192					; ffffff40H
	DD	28					; 0000001cH
	DD	$LN20@stbi__crea
$LN20@stbi__crea:
	DB	121					; 00000079H
	DB	115					; 00000073H
	DB	112					; 00000070H
	DB	99					; 00000063H
	DB	0
$LN19@stbi__crea:
	DB	120					; 00000078H
	DB	115					; 00000073H
	DB	112					; 00000070H
	DB	99					; 00000063H
	DB	0
$LN18@stbi__crea:
	DB	121					; 00000079H
	DB	111					; 0000006fH
	DB	114					; 00000072H
	DB	105					; 00000069H
	DB	103					; 00000067H
	DB	0
$LN17@stbi__crea:
	DB	120					; 00000078H
	DB	111					; 0000006fH
	DB	114					; 00000072H
	DB	105					; 00000069H
	DB	103					; 00000067H
	DB	0
_stbi__create_png_image ENDP
_TEXT	ENDS
; Function compile flags: /Odtp /RTCsu /ZI
; File c:\users\marcos\desktop\prj\mgear-1\apis\stb\stb_image.h
;	COMDAT _stbi__create_png_image_raw
_TEXT	SEGMENT
tv551 = -460						; size = 4
tv357 = -460						; size = 4
tv240 = -460						; size = 4
tv160 = -460						; size = 4
tv65 = -460						; size = 4
_cur16$1 = -260						; size = 4
_cur$2 = -248						; size = 4
_q$3 = -236						; size = 4
_scale$4 = -221						; size = 1
_in$5 = -212						; size = 4
_cur$6 = -200						; size = 4
_nk$7 = -188						; size = 4
_filter$8 = -176					; size = 4
_prior$9 = -164						; size = 4
_cur$10 = -152						; size = 4
_width$ = -140						; size = 4
_filter_bytes$ = -128					; size = 4
_output_bytes$ = -116					; size = 4
_img_n$ = -104						; size = 4
_k$ = -92						; size = 4
_img_width_bytes$ = -80					; size = 4
_img_len$ = -68						; size = 4
_stride$ = -56						; size = 4
_j$ = -44						; size = 4
_i$ = -32						; size = 4
_s$ = -20						; size = 4
_bytes$ = -8						; size = 4
_a$ = 8							; size = 4
_raw$ = 12						; size = 4
_raw_len$ = 16						; size = 4
_out_n$ = 20						; size = 4
_x$ = 24						; size = 4
_y$ = 28						; size = 4
_depth$ = 32						; size = 4
_color$ = 36						; size = 4
_stbi__create_png_image_raw PROC			; COMDAT

; 4282 : {

	push	ebp
	mov	ebp, esp
	sub	esp, 460				; 000001ccH
	push	ebx
	push	esi
	push	edi
	lea	edi, DWORD PTR [ebp-460]
	mov	ecx, 115				; 00000073H
	mov	eax, -858993460				; ccccccccH
	rep stosd

; 4283 :    int bytes = (depth == 16? 2 : 1);

	cmp	DWORD PTR _depth$[ebp], 16		; 00000010H
	jne	SHORT $LN157@stbi__crea
	mov	DWORD PTR tv65[ebp], 2
	jmp	SHORT $LN158@stbi__crea
$LN157@stbi__crea:
	mov	DWORD PTR tv65[ebp], 1
$LN158@stbi__crea:
	mov	eax, DWORD PTR tv65[ebp]
	mov	DWORD PTR _bytes$[ebp], eax

; 4284 :    stbi__context *s = a->s;

	mov	eax, DWORD PTR _a$[ebp]
	mov	ecx, DWORD PTR [eax]
	mov	DWORD PTR _s$[ebp], ecx

; 4285 :    stbi__uint32 i,j,stride = x*out_n*bytes;

	mov	eax, DWORD PTR _x$[ebp]
	imul	eax, DWORD PTR _out_n$[ebp]
	imul	eax, DWORD PTR _bytes$[ebp]
	mov	DWORD PTR _stride$[ebp], eax

; 4286 :    stbi__uint32 img_len, img_width_bytes;
; 4287 :    int k;
; 4288 :    int img_n = s->img_n; // copy it into a local for later

	mov	eax, DWORD PTR _s$[ebp]
	mov	ecx, DWORD PTR [eax+8]
	mov	DWORD PTR _img_n$[ebp], ecx

; 4289 : 
; 4290 :    int output_bytes = out_n*bytes;

	mov	eax, DWORD PTR _out_n$[ebp]
	imul	eax, DWORD PTR _bytes$[ebp]
	mov	DWORD PTR _output_bytes$[ebp], eax

; 4291 :    int filter_bytes = img_n*bytes;

	mov	eax, DWORD PTR _img_n$[ebp]
	imul	eax, DWORD PTR _bytes$[ebp]
	mov	DWORD PTR _filter_bytes$[ebp], eax

; 4292 :    int width = x;

	mov	eax, DWORD PTR _x$[ebp]
	mov	DWORD PTR _width$[ebp], eax

; 4293 : 
; 4294 :    STBI_ASSERT(out_n == s->img_n || out_n == s->img_n+1);

	mov	eax, DWORD PTR _s$[ebp]
	mov	ecx, DWORD PTR _out_n$[ebp]
	cmp	ecx, DWORD PTR [eax+8]
	je	SHORT $LN159@stbi__crea
	mov	edx, DWORD PTR _s$[ebp]
	mov	eax, DWORD PTR [edx+8]
	add	eax, 1
	cmp	DWORD PTR _out_n$[ebp], eax
	je	SHORT $LN159@stbi__crea
	mov	ecx, DWORD PTR ?__LINE__Var@?1??stbi__create_png_image_raw@@9@9@e7b221e1
	add	ecx, 12					; 0000000cH
	push	ecx
	push	OFFSET ??_C@_1HC@LCAFOEHA@?$AAc?$AA?3?$AA?2?$AAu?$AAs?$AAe?$AAr?$AAs?$AA?2?$AAm?$AAa?$AAr?$AAc?$AAo?$AAs?$AA?2?$AAd?$AAe?$AAs?$AAk?$AAt?$AAo?$AAp?$AA?2?$AAp?$AAr?$AAj?$AA?2?$AAm?$AAg?$AAe?$AAa@
	push	OFFSET ??_C@_1FC@ICDHLHK@?$AAo?$AAu?$AAt?$AA_?$AAn?$AA?5?$AA?$DN?$AA?$DN?$AA?5?$AAs?$AA?9?$AA?$DO?$AAi?$AAm?$AAg?$AA_?$AAn?$AA?5?$AA?$HM?$AA?$HM?$AA?5?$AAo?$AAu?$AAt?$AA_?$AAn?$AA?5?$AA?$DN?$AA?$DN?$AA?5?$AAs?$AA?9@
	call	__wassert
	add	esp, 12					; 0000000cH
$LN159@stbi__crea:

; 4295 :    a->out = (stbi_uc *) stbi__malloc_mad3(x, y, output_bytes, 0); // extra bytes to write off the end into

	push	0
	mov	eax, DWORD PTR _output_bytes$[ebp]
	push	eax
	mov	ecx, DWORD PTR _y$[ebp]
	push	ecx
	mov	edx, DWORD PTR _x$[ebp]
	push	edx
	call	_stbi__malloc_mad3
	add	esp, 16					; 00000010H
	mov	ecx, DWORD PTR _a$[ebp]
	mov	DWORD PTR [ecx+12], eax

; 4296 :    if (!a->out) return stbi__err("outofmem", "Out of memory");

	mov	eax, DWORD PTR _a$[ebp]
	cmp	DWORD PTR [eax+12], 0
	jne	SHORT $LN154@stbi__crea
	push	OFFSET ??_C@_08NOGIMCHF@outofmem?$AA@
	call	_stbi__err
	add	esp, 4
	jmp	$LN155@stbi__crea
$LN154@stbi__crea:

; 4297 : 
; 4298 :    img_width_bytes = (((img_n * x * depth) + 7) >> 3);

	mov	eax, DWORD PTR _img_n$[ebp]
	imul	eax, DWORD PTR _x$[ebp]
	imul	eax, DWORD PTR _depth$[ebp]
	add	eax, 7
	shr	eax, 3
	mov	DWORD PTR _img_width_bytes$[ebp], eax

; 4299 :    img_len = (img_width_bytes + 1) * y;

	mov	eax, DWORD PTR _img_width_bytes$[ebp]
	add	eax, 1
	imul	eax, DWORD PTR _y$[ebp]
	mov	DWORD PTR _img_len$[ebp], eax

; 4300 :    // we used to check for exact match between raw_len and img_len on non-interlaced PNGs,
; 4301 :    // but issue #276 reported a PNG in the wild that had extra data at the end (all zeros),
; 4302 :    // so just check for raw_len < img_len always.
; 4303 :    if (raw_len < img_len) return stbi__err("not enough pixels","Corrupt PNG");

	mov	eax, DWORD PTR _raw_len$[ebp]
	cmp	eax, DWORD PTR _img_len$[ebp]
	jae	SHORT $LN153@stbi__crea
	push	OFFSET ??_C@_0BC@BHMPBBMG@not?5enough?5pixels?$AA@
	call	_stbi__err
	add	esp, 4
	jmp	$LN155@stbi__crea
$LN153@stbi__crea:

; 4304 : 
; 4305 :    for (j=0; j < y; ++j) {

	mov	DWORD PTR _j$[ebp], 0
	jmp	SHORT $LN152@stbi__crea
$LN151@stbi__crea:
	mov	eax, DWORD PTR _j$[ebp]
	add	eax, 1
	mov	DWORD PTR _j$[ebp], eax
$LN152@stbi__crea:
	mov	eax, DWORD PTR _j$[ebp]
	cmp	eax, DWORD PTR _y$[ebp]
	jae	$LN150@stbi__crea

; 4306 :       stbi_uc *cur = a->out + stride*j;

	mov	eax, DWORD PTR _stride$[ebp]
	imul	eax, DWORD PTR _j$[ebp]
	mov	ecx, DWORD PTR _a$[ebp]
	add	eax, DWORD PTR [ecx+12]
	mov	DWORD PTR _cur$10[ebp], eax

; 4307 :       stbi_uc *prior;
; 4308 :       int filter = *raw++;

	mov	eax, DWORD PTR _raw$[ebp]
	movzx	ecx, BYTE PTR [eax]
	mov	DWORD PTR _filter$8[ebp], ecx
	mov	edx, DWORD PTR _raw$[ebp]
	add	edx, 1
	mov	DWORD PTR _raw$[ebp], edx

; 4309 : 
; 4310 :       if (filter > 4)

	cmp	DWORD PTR _filter$8[ebp], 4
	jle	SHORT $LN149@stbi__crea

; 4311 :          return stbi__err("invalid filter","Corrupt PNG");

	push	OFFSET ??_C@_0P@FBBCPGMN@invalid?5filter?$AA@
	call	_stbi__err
	add	esp, 4
	jmp	$LN155@stbi__crea
$LN149@stbi__crea:

; 4312 : 
; 4313 :       if (depth < 8) {

	cmp	DWORD PTR _depth$[ebp], 8
	jge	SHORT $LN148@stbi__crea

; 4314 :          STBI_ASSERT(img_width_bytes <= x);

	mov	eax, DWORD PTR _img_width_bytes$[ebp]
	cmp	eax, DWORD PTR _x$[ebp]
	jbe	SHORT $LN160@stbi__crea
	mov	ecx, DWORD PTR ?__LINE__Var@?1??stbi__create_png_image_raw@@9@9@e7b221e1
	add	ecx, 32					; 00000020H
	push	ecx
	push	OFFSET ??_C@_1HC@LCAFOEHA@?$AAc?$AA?3?$AA?2?$AAu?$AAs?$AAe?$AAr?$AAs?$AA?2?$AAm?$AAa?$AAr?$AAc?$AAo?$AAs?$AA?2?$AAd?$AAe?$AAs?$AAk?$AAt?$AAo?$AAp?$AA?2?$AAp?$AAr?$AAj?$AA?2?$AAm?$AAg?$AAe?$AAa@
	push	OFFSET ??_C@_1CK@EJKIMPDL@?$AAi?$AAm?$AAg?$AA_?$AAw?$AAi?$AAd?$AAt?$AAh?$AA_?$AAb?$AAy?$AAt?$AAe?$AAs?$AA?5?$AA?$DM?$AA?$DN?$AA?5?$AAx?$AA?$AA@
	call	__wassert
	add	esp, 12					; 0000000cH
$LN160@stbi__crea:

; 4315 :          cur += x*out_n - img_width_bytes; // store output to the rightmost img_len bytes, so we can decode in place

	mov	eax, DWORD PTR _x$[ebp]
	imul	eax, DWORD PTR _out_n$[ebp]
	sub	eax, DWORD PTR _img_width_bytes$[ebp]
	add	eax, DWORD PTR _cur$10[ebp]
	mov	DWORD PTR _cur$10[ebp], eax

; 4316 :          filter_bytes = 1;

	mov	DWORD PTR _filter_bytes$[ebp], 1

; 4317 :          width = img_width_bytes;

	mov	eax, DWORD PTR _img_width_bytes$[ebp]
	mov	DWORD PTR _width$[ebp], eax
$LN148@stbi__crea:

; 4318 :       }
; 4319 :       prior = cur - stride; // bugfix: need to compute this after 'cur +=' computation above

	mov	eax, DWORD PTR _cur$10[ebp]
	sub	eax, DWORD PTR _stride$[ebp]
	mov	DWORD PTR _prior$9[ebp], eax

; 4320 : 
; 4321 :       // if first row, use special filter that doesn't sample previous row
; 4322 :       if (j == 0) filter = first_row_filter[filter];

	cmp	DWORD PTR _j$[ebp], 0
	jne	SHORT $LN147@stbi__crea
	mov	eax, DWORD PTR _filter$8[ebp]
	movzx	ecx, BYTE PTR _first_row_filter[eax]
	mov	DWORD PTR _filter$8[ebp], ecx
$LN147@stbi__crea:

; 4323 : 
; 4324 :       // handle first byte explicitly
; 4325 :       for (k=0; k < filter_bytes; ++k) {

	mov	DWORD PTR _k$[ebp], 0
	jmp	SHORT $LN146@stbi__crea
$LN145@stbi__crea:
	mov	eax, DWORD PTR _k$[ebp]
	add	eax, 1
	mov	DWORD PTR _k$[ebp], eax
$LN146@stbi__crea:
	mov	eax, DWORD PTR _k$[ebp]
	cmp	eax, DWORD PTR _filter_bytes$[ebp]
	jge	$LN144@stbi__crea

; 4326 :          switch (filter) {

	mov	eax, DWORD PTR _filter$8[ebp]
	mov	DWORD PTR tv160[ebp], eax
	cmp	DWORD PTR tv160[ebp], 6
	ja	$LN142@stbi__crea
	mov	ecx, DWORD PTR tv160[ebp]
	jmp	DWORD PTR $LN165@stbi__crea[ecx*4]
$LN141@stbi__crea:

; 4327 :             case STBI__F_none       : cur[k] = raw[k]; break;

	mov	eax, DWORD PTR _cur$10[ebp]
	add	eax, DWORD PTR _k$[ebp]
	mov	ecx, DWORD PTR _raw$[ebp]
	add	ecx, DWORD PTR _k$[ebp]
	mov	dl, BYTE PTR [ecx]
	mov	BYTE PTR [eax], dl
	jmp	$LN142@stbi__crea
$LN140@stbi__crea:

; 4328 :             case STBI__F_sub        : cur[k] = raw[k]; break;

	mov	eax, DWORD PTR _cur$10[ebp]
	add	eax, DWORD PTR _k$[ebp]
	mov	ecx, DWORD PTR _raw$[ebp]
	add	ecx, DWORD PTR _k$[ebp]
	mov	dl, BYTE PTR [ecx]
	mov	BYTE PTR [eax], dl
	jmp	$LN142@stbi__crea
$LN139@stbi__crea:

; 4329 :             case STBI__F_up         : cur[k] = STBI__BYTECAST(raw[k] + prior[k]); break;

	mov	eax, DWORD PTR _raw$[ebp]
	add	eax, DWORD PTR _k$[ebp]
	movzx	ecx, BYTE PTR [eax]
	mov	edx, DWORD PTR _prior$9[ebp]
	add	edx, DWORD PTR _k$[ebp]
	movzx	eax, BYTE PTR [edx]
	add	ecx, eax
	and	ecx, 255				; 000000ffH
	mov	edx, DWORD PTR _cur$10[ebp]
	add	edx, DWORD PTR _k$[ebp]
	mov	BYTE PTR [edx], cl
	jmp	$LN142@stbi__crea
$LN138@stbi__crea:

; 4330 :             case STBI__F_avg        : cur[k] = STBI__BYTECAST(raw[k] + (prior[k]>>1)); break;

	mov	eax, DWORD PTR _raw$[ebp]
	add	eax, DWORD PTR _k$[ebp]
	movzx	ecx, BYTE PTR [eax]
	mov	edx, DWORD PTR _prior$9[ebp]
	add	edx, DWORD PTR _k$[ebp]
	movzx	eax, BYTE PTR [edx]
	sar	eax, 1
	add	ecx, eax
	and	ecx, 255				; 000000ffH
	mov	edx, DWORD PTR _cur$10[ebp]
	add	edx, DWORD PTR _k$[ebp]
	mov	BYTE PTR [edx], cl
	jmp	SHORT $LN142@stbi__crea
$LN137@stbi__crea:

; 4331 :             case STBI__F_paeth      : cur[k] = STBI__BYTECAST(raw[k] + stbi__paeth(0,prior[k],0)); break;

	mov	eax, DWORD PTR _raw$[ebp]
	add	eax, DWORD PTR _k$[ebp]
	movzx	ebx, BYTE PTR [eax]
	push	0
	mov	ecx, DWORD PTR _prior$9[ebp]
	add	ecx, DWORD PTR _k$[ebp]
	movzx	edx, BYTE PTR [ecx]
	push	edx
	push	0
	call	_stbi__paeth
	add	esp, 12					; 0000000cH
	add	ebx, eax
	and	ebx, 255				; 000000ffH
	mov	eax, DWORD PTR _cur$10[ebp]
	add	eax, DWORD PTR _k$[ebp]
	mov	BYTE PTR [eax], bl
	jmp	SHORT $LN142@stbi__crea
$LN136@stbi__crea:

; 4332 :             case STBI__F_avg_first  : cur[k] = raw[k]; break;

	mov	eax, DWORD PTR _cur$10[ebp]
	add	eax, DWORD PTR _k$[ebp]
	mov	ecx, DWORD PTR _raw$[ebp]
	add	ecx, DWORD PTR _k$[ebp]
	mov	dl, BYTE PTR [ecx]
	mov	BYTE PTR [eax], dl
	jmp	SHORT $LN142@stbi__crea
$LN135@stbi__crea:

; 4333 :             case STBI__F_paeth_first: cur[k] = raw[k]; break;

	mov	eax, DWORD PTR _cur$10[ebp]
	add	eax, DWORD PTR _k$[ebp]
	mov	ecx, DWORD PTR _raw$[ebp]
	add	ecx, DWORD PTR _k$[ebp]
	mov	dl, BYTE PTR [ecx]
	mov	BYTE PTR [eax], dl
$LN142@stbi__crea:

; 4334 :          }
; 4335 :       }

	jmp	$LN145@stbi__crea
$LN144@stbi__crea:

; 4336 : 
; 4337 :       if (depth == 8) {

	cmp	DWORD PTR _depth$[ebp], 8
	jne	SHORT $LN134@stbi__crea

; 4338 :          if (img_n != out_n)

	mov	eax, DWORD PTR _img_n$[ebp]
	cmp	eax, DWORD PTR _out_n$[ebp]
	je	SHORT $LN133@stbi__crea

; 4339 :             cur[img_n] = 255; // first pixel

	mov	eax, DWORD PTR _cur$10[ebp]
	add	eax, DWORD PTR _img_n$[ebp]
	mov	BYTE PTR [eax], 255			; 000000ffH
$LN133@stbi__crea:

; 4340 :          raw += img_n;

	mov	eax, DWORD PTR _raw$[ebp]
	add	eax, DWORD PTR _img_n$[ebp]
	mov	DWORD PTR _raw$[ebp], eax

; 4341 :          cur += out_n;

	mov	eax, DWORD PTR _cur$10[ebp]
	add	eax, DWORD PTR _out_n$[ebp]
	mov	DWORD PTR _cur$10[ebp], eax

; 4342 :          prior += out_n;

	mov	eax, DWORD PTR _prior$9[ebp]
	add	eax, DWORD PTR _out_n$[ebp]
	mov	DWORD PTR _prior$9[ebp], eax
	jmp	SHORT $LN132@stbi__crea
$LN134@stbi__crea:

; 4343 :       } else if (depth == 16) {

	cmp	DWORD PTR _depth$[ebp], 16		; 00000010H
	jne	SHORT $LN131@stbi__crea

; 4344 :          if (img_n != out_n) {

	mov	eax, DWORD PTR _img_n$[ebp]
	cmp	eax, DWORD PTR _out_n$[ebp]
	je	SHORT $LN130@stbi__crea

; 4345 :             cur[filter_bytes]   = 255; // first pixel top byte

	mov	eax, DWORD PTR _cur$10[ebp]
	add	eax, DWORD PTR _filter_bytes$[ebp]
	mov	BYTE PTR [eax], 255			; 000000ffH

; 4346 :             cur[filter_bytes+1] = 255; // first pixel bottom byte

	mov	eax, DWORD PTR _cur$10[ebp]
	add	eax, DWORD PTR _filter_bytes$[ebp]
	mov	BYTE PTR [eax+1], 255			; 000000ffH
$LN130@stbi__crea:

; 4347 :          }
; 4348 :          raw += filter_bytes;

	mov	eax, DWORD PTR _raw$[ebp]
	add	eax, DWORD PTR _filter_bytes$[ebp]
	mov	DWORD PTR _raw$[ebp], eax

; 4349 :          cur += output_bytes;

	mov	eax, DWORD PTR _cur$10[ebp]
	add	eax, DWORD PTR _output_bytes$[ebp]
	mov	DWORD PTR _cur$10[ebp], eax

; 4350 :          prior += output_bytes;

	mov	eax, DWORD PTR _prior$9[ebp]
	add	eax, DWORD PTR _output_bytes$[ebp]
	mov	DWORD PTR _prior$9[ebp], eax

; 4351 :       } else {

	jmp	SHORT $LN132@stbi__crea
$LN131@stbi__crea:

; 4352 :          raw += 1;

	mov	eax, DWORD PTR _raw$[ebp]
	add	eax, 1
	mov	DWORD PTR _raw$[ebp], eax

; 4353 :          cur += 1;

	mov	eax, DWORD PTR _cur$10[ebp]
	add	eax, 1
	mov	DWORD PTR _cur$10[ebp], eax

; 4354 :          prior += 1;

	mov	eax, DWORD PTR _prior$9[ebp]
	add	eax, 1
	mov	DWORD PTR _prior$9[ebp], eax
$LN132@stbi__crea:

; 4355 :       }
; 4356 : 
; 4357 :       // this is a little gross, so that we don't switch per-pixel or per-component
; 4358 :       if (depth < 8 || img_n == out_n) {

	cmp	DWORD PTR _depth$[ebp], 8
	jl	SHORT $LN127@stbi__crea
	mov	eax, DWORD PTR _img_n$[ebp]
	cmp	eax, DWORD PTR _out_n$[ebp]
	jne	$LN128@stbi__crea
$LN127@stbi__crea:

; 4359 :          int nk = (width - 1)*filter_bytes;

	mov	eax, DWORD PTR _width$[ebp]
	sub	eax, 1
	imul	eax, DWORD PTR _filter_bytes$[ebp]
	mov	DWORD PTR _nk$7[ebp], eax

; 4360 :          #define STBI__CASE(f) \
; 4361 :              case f:     \
; 4362 :                 for (k=0; k < nk; ++k)
; 4363 :          switch (filter) {

	mov	eax, DWORD PTR _filter$8[ebp]
	mov	DWORD PTR tv240[ebp], eax
	cmp	DWORD PTR tv240[ebp], 6
	ja	$LN125@stbi__crea
	mov	ecx, DWORD PTR tv240[ebp]
	jmp	DWORD PTR $LN166@stbi__crea[ecx*4]
$LN124@stbi__crea:

; 4364 :             // "none" filter turns into a memcpy here; make that explicit.
; 4365 :             case STBI__F_none:         memcpy(cur, raw, nk); break;

	mov	eax, DWORD PTR _nk$7[ebp]
	push	eax
	mov	ecx, DWORD PTR _raw$[ebp]
	push	ecx
	mov	edx, DWORD PTR _cur$10[ebp]
	push	edx
	call	_memcpy
	add	esp, 12					; 0000000cH
	jmp	$LN125@stbi__crea
$LN123@stbi__crea:

; 4366 :             STBI__CASE(STBI__F_sub)          { cur[k] = STBI__BYTECAST(raw[k] + cur[k-filter_bytes]); } break;

	mov	DWORD PTR _k$[ebp], 0
	jmp	SHORT $LN122@stbi__crea
$LN121@stbi__crea:
	mov	eax, DWORD PTR _k$[ebp]
	add	eax, 1
	mov	DWORD PTR _k$[ebp], eax
$LN122@stbi__crea:
	mov	eax, DWORD PTR _k$[ebp]
	cmp	eax, DWORD PTR _nk$7[ebp]
	jge	SHORT $LN120@stbi__crea
	mov	eax, DWORD PTR _raw$[ebp]
	add	eax, DWORD PTR _k$[ebp]
	movzx	ecx, BYTE PTR [eax]
	mov	edx, DWORD PTR _k$[ebp]
	sub	edx, DWORD PTR _filter_bytes$[ebp]
	mov	eax, DWORD PTR _cur$10[ebp]
	movzx	edx, BYTE PTR [eax+edx]
	add	ecx, edx
	and	ecx, 255				; 000000ffH
	mov	eax, DWORD PTR _cur$10[ebp]
	add	eax, DWORD PTR _k$[ebp]
	mov	BYTE PTR [eax], cl
	jmp	SHORT $LN121@stbi__crea
$LN120@stbi__crea:
	jmp	$LN125@stbi__crea
$LN119@stbi__crea:

; 4367 :             STBI__CASE(STBI__F_up)           { cur[k] = STBI__BYTECAST(raw[k] + prior[k]); } break;

	mov	DWORD PTR _k$[ebp], 0
	jmp	SHORT $LN118@stbi__crea
$LN117@stbi__crea:
	mov	eax, DWORD PTR _k$[ebp]
	add	eax, 1
	mov	DWORD PTR _k$[ebp], eax
$LN118@stbi__crea:
	mov	eax, DWORD PTR _k$[ebp]
	cmp	eax, DWORD PTR _nk$7[ebp]
	jge	SHORT $LN116@stbi__crea
	mov	eax, DWORD PTR _raw$[ebp]
	add	eax, DWORD PTR _k$[ebp]
	movzx	ecx, BYTE PTR [eax]
	mov	edx, DWORD PTR _prior$9[ebp]
	add	edx, DWORD PTR _k$[ebp]
	movzx	eax, BYTE PTR [edx]
	add	ecx, eax
	and	ecx, 255				; 000000ffH
	mov	edx, DWORD PTR _cur$10[ebp]
	add	edx, DWORD PTR _k$[ebp]
	mov	BYTE PTR [edx], cl
	jmp	SHORT $LN117@stbi__crea
$LN116@stbi__crea:
	jmp	$LN125@stbi__crea
$LN115@stbi__crea:

; 4368 :             STBI__CASE(STBI__F_avg)          { cur[k] = STBI__BYTECAST(raw[k] + ((prior[k] + cur[k-filter_bytes])>>1)); } break;

	mov	DWORD PTR _k$[ebp], 0
