; Listing generated by Microsoft (R) Optimizing Compiler Version 18.00.21005.1 

	TITLE	C:\Users\Marcos\Desktop\prj\mGear-1\mTex\main.c
	.686P
	.XMM
	include listing.inc
	.model	flat

INCLUDELIB LIBCMT
INCLUDELIB OLDNAMES

PUBLIC	??_C@_0O@MMHOKIEN@NK_COLOR_TEXT?$AA@		; `string'
PUBLIC	??_C@_0BA@OKHFDINJ@NK_COLOR_WINDOW?$AA@		; `string'
PUBLIC	??_C@_0BA@POJBPCMH@NK_COLOR_HEADER?$AA@		; `string'
PUBLIC	??_C@_0BA@NMDKGDLN@NK_COLOR_BORDER?$AA@		; `string'
PUBLIC	??_C@_0BA@EKMODIPE@NK_COLOR_BUTTON?$AA@		; `string'
PUBLIC	??_C@_0BG@IECMHCP@NK_COLOR_BUTTON_HOVER?$AA@	; `string'
PUBLIC	??_C@_0BH@PDJCAFHC@NK_COLOR_BUTTON_ACTIVE?$AA@	; `string'
PUBLIC	??_C@_0BA@GINDMCEM@NK_COLOR_TOGGLE?$AA@		; `string'
PUBLIC	??_C@_0BG@GFOFADAH@NK_COLOR_TOGGLE_HOVER?$AA@	; `string'
PUBLIC	??_C@_0BH@CCMKKENB@NK_COLOR_TOGGLE_CURSOR?$AA@	; `string'
PUBLIC	??_C@_0BA@IJLDECBD@NK_COLOR_SELECT?$AA@		; `string'
PUBLIC	??_C@_0BH@PKJGNGNK@NK_COLOR_SELECT_ACTIVE?$AA@	; `string'
PUBLIC	??_C@_0BA@IMDHCAPK@NK_COLOR_SLIDER?$AA@		; `string'
PUBLIC	??_C@_0BH@LOKKNDLC@NK_COLOR_SLIDER_CURSOR?$AA@	; `string'
PUBLIC	??_C@_0BN@IIMOGDMI@NK_COLOR_SLIDER_CURSOR_HOVER?$AA@ ; `string'
PUBLIC	??_C@_0BO@MNHMPOAN@NK_COLOR_SLIDER_CURSOR_ACTIVE?$AA@ ; `string'
PUBLIC	??_C@_0BC@HONKKPNC@NK_COLOR_PROPERTY?$AA@	; `string'
PUBLIC	??_C@_0O@DEKGLIFN@NK_COLOR_EDIT?$AA@		; `string'
PUBLIC	??_C@_0BF@PJDDMCKJ@NK_COLOR_EDIT_CURSOR?$AA@	; `string'
PUBLIC	??_C@_0P@FEEPECKC@NK_COLOR_COMBO?$AA@		; `string'
PUBLIC	??_C@_0P@BJKJEJOA@NK_COLOR_CHART?$AA@		; `string'
PUBLIC	??_C@_0BF@MEEINDGA@NK_COLOR_CHART_COLOR?$AA@	; `string'
PUBLIC	??_C@_0BP@PFAFOEMP@NK_COLOR_CHART_COLOR_HIGHLIGHT?$AA@ ; `string'
PUBLIC	??_C@_0BD@FJBCPBMN@NK_COLOR_SCROLLBAR?$AA@	; `string'
PUBLIC	??_C@_0BK@BCKHGODL@NK_COLOR_SCROLLBAR_CURSOR?$AA@ ; `string'
PUBLIC	??_C@_0CA@HLCOJGKE@NK_COLOR_SCROLLBAR_CURSOR_HOVER?$AA@ ; `string'
PUBLIC	??_C@_0CB@IJILDDIL@NK_COLOR_SCROLLBAR_CURSOR_ACTIVE@ ; `string'
PUBLIC	??_C@_0BE@CKODGPAC@NK_COLOR_TAB_HEADER?$AA@	; `string'
PUBLIC	??_C@_0PD@HHBHAGG@?$CDversion?5300?5es?6uniform?5mat4?5Pro@ ; `string'
PUBLIC	??_C@_0MH@FHMHJAMC@?$CDversion?5300?5es?6precision?5medium@ ; `string'
PUBLIC	_nkrendered
_BSS	SEGMENT
_nkrendered DD	01H DUP (?)
_BSS	ENDS
_DATA	SEGMENT
COMM	_ctx:DWORD
COMM	_prev_tic:DWORD
COMM	_curr_tic:DWORD
COMM	_delta:DWORD
COMM	_tmgg:BYTE:04cH
COMM	_mtex:TBYTE
_DATA	ENDS
_BSS	SEGMENT
?time@?1??FileBrowser@@9@9 DD 01H DUP (?)		; `FileBrowser'::`2'::time
?backpath_available@?1??FileBrowser@@9@9 DD 01H DUP (?)	; `FileBrowser'::`2'::backpath_available
?fowardpath_available@?1??FileBrowser@@9@9 DD 01H DUP (?) ; `FileBrowser'::`2'::fowardpath_available
?files@?1??NewMGGBox@@9@9 DB 04100H DUP (?)		; `NewMGGBox'::`2'::files
?state@?1??NewMGGBox@@9@9 DD 01H DUP (?)		; `NewMGGBox'::`2'::state
?num_files_t@?1??NewMGGBox@@9@9 DD 01H DUP (?)		; `NewMGGBox'::`2'::num_files_t
?num_files_n@?1??NewMGGBox@@9@9 DD 01H DUP (?)		; `NewMGGBox'::`2'::num_files_n
?state@?1??MenuBar@@9@9 DD 01H DUP (?)			; `MenuBar'::`2'::state
?pannel_state@?1??LeftPannel@@9@9 DD 01H DUP (?)	; `LeftPannel'::`2'::pannel_state
_BSS	ENDS
;	COMDAT ??_C@_0MH@FHMHJAMC@?$CDversion?5300?5es?6precision?5medium@
CONST	SEGMENT
??_C@_0MH@FHMHJAMC@?$CDversion?5300?5es?6precision?5medium@ DB '#version '
	DB	'300 es', 0aH, 'precision mediump float;', 0aH, 'uniform sampl'
	DB	'er2D Texture;', 0aH, 'in vec2 Frag_UV;', 0aH, 'in vec4 Frag_C'
	DB	'olor;', 0aH, 'out vec4 Out_Color;', 0aH, 'void main(){', 0aH, ' '
	DB	'  Out_Color = Frag_Color * texture(Texture, Frag_UV.st);', 0aH
	DB	'}', 0aH, 00H				; `string'
CONST	ENDS
;	COMDAT ??_C@_0PD@HHBHAGG@?$CDversion?5300?5es?6uniform?5mat4?5Pro@
CONST	SEGMENT
??_C@_0PD@HHBHAGG@?$CDversion?5300?5es?6uniform?5mat4?5Pro@ DB '#version '
	DB	'300 es', 0aH, 'uniform mat4 ProjMtx;', 0aH, 'in vec2 Position'
	DB	';', 0aH, 'in vec2 TexCoord;', 0aH, 'in vec4 Color;', 0aH, 'ou'
	DB	't vec2 Frag_UV;', 0aH, 'out vec4 Frag_Color;', 0aH, 'void mai'
	DB	'n() {', 0aH, '   Frag_UV = TexCoord;', 0aH, '   Frag_Color = '
	DB	'Color;', 0aH, '   gl_Position = ProjMtx * vec4(Position.xy, 0'
	DB	', 1);', 0aH, '}', 0aH, 00H			; `string'
CONST	ENDS
;	COMDAT ??_C@_0BE@CKODGPAC@NK_COLOR_TAB_HEADER?$AA@
CONST	SEGMENT
??_C@_0BE@CKODGPAC@NK_COLOR_TAB_HEADER?$AA@ DB 'NK_COLOR_TAB_HEADER', 00H ; `string'
CONST	ENDS
;	COMDAT ??_C@_0CB@IJILDDIL@NK_COLOR_SCROLLBAR_CURSOR_ACTIVE@
CONST	SEGMENT
??_C@_0CB@IJILDDIL@NK_COLOR_SCROLLBAR_CURSOR_ACTIVE@ DB 'NK_COLOR_SCROLLB'
	DB	'AR_CURSOR_ACTIVE', 00H			; `string'
CONST	ENDS
;	COMDAT ??_C@_0CA@HLCOJGKE@NK_COLOR_SCROLLBAR_CURSOR_HOVER?$AA@
CONST	SEGMENT
??_C@_0CA@HLCOJGKE@NK_COLOR_SCROLLBAR_CURSOR_HOVER?$AA@ DB 'NK_COLOR_SCRO'
	DB	'LLBAR_CURSOR_HOVER', 00H			; `string'
CONST	ENDS
;	COMDAT ??_C@_0BK@BCKHGODL@NK_COLOR_SCROLLBAR_CURSOR?$AA@
CONST	SEGMENT
??_C@_0BK@BCKHGODL@NK_COLOR_SCROLLBAR_CURSOR?$AA@ DB 'NK_COLOR_SCROLLBAR_'
	DB	'CURSOR', 00H				; `string'
CONST	ENDS
;	COMDAT ??_C@_0BD@FJBCPBMN@NK_COLOR_SCROLLBAR?$AA@
CONST	SEGMENT
??_C@_0BD@FJBCPBMN@NK_COLOR_SCROLLBAR?$AA@ DB 'NK_COLOR_SCROLLBAR', 00H ; `string'
CONST	ENDS
;	COMDAT ??_C@_0BP@PFAFOEMP@NK_COLOR_CHART_COLOR_HIGHLIGHT?$AA@
CONST	SEGMENT
??_C@_0BP@PFAFOEMP@NK_COLOR_CHART_COLOR_HIGHLIGHT?$AA@ DB 'NK_COLOR_CHART'
	DB	'_COLOR_HIGHLIGHT', 00H			; `string'
CONST	ENDS
;	COMDAT ??_C@_0BF@MEEINDGA@NK_COLOR_CHART_COLOR?$AA@
CONST	SEGMENT
??_C@_0BF@MEEINDGA@NK_COLOR_CHART_COLOR?$AA@ DB 'NK_COLOR_CHART_COLOR', 00H ; `string'
CONST	ENDS
;	COMDAT ??_C@_0P@BJKJEJOA@NK_COLOR_CHART?$AA@
CONST	SEGMENT
??_C@_0P@BJKJEJOA@NK_COLOR_CHART?$AA@ DB 'NK_COLOR_CHART', 00H ; `string'
CONST	ENDS
;	COMDAT ??_C@_0P@FEEPECKC@NK_COLOR_COMBO?$AA@
CONST	SEGMENT
??_C@_0P@FEEPECKC@NK_COLOR_COMBO?$AA@ DB 'NK_COLOR_COMBO', 00H ; `string'
CONST	ENDS
;	COMDAT ??_C@_0BF@PJDDMCKJ@NK_COLOR_EDIT_CURSOR?$AA@
CONST	SEGMENT
??_C@_0BF@PJDDMCKJ@NK_COLOR_EDIT_CURSOR?$AA@ DB 'NK_COLOR_EDIT_CURSOR', 00H ; `string'
CONST	ENDS
;	COMDAT ??_C@_0O@DEKGLIFN@NK_COLOR_EDIT?$AA@
CONST	SEGMENT
??_C@_0O@DEKGLIFN@NK_COLOR_EDIT?$AA@ DB 'NK_COLOR_EDIT', 00H ; `string'
CONST	ENDS
;	COMDAT ??_C@_0BC@HONKKPNC@NK_COLOR_PROPERTY?$AA@
CONST	SEGMENT
??_C@_0BC@HONKKPNC@NK_COLOR_PROPERTY?$AA@ DB 'NK_COLOR_PROPERTY', 00H ; `string'
CONST	ENDS
;	COMDAT ??_C@_0BO@MNHMPOAN@NK_COLOR_SLIDER_CURSOR_ACTIVE?$AA@
CONST	SEGMENT
??_C@_0BO@MNHMPOAN@NK_COLOR_SLIDER_CURSOR_ACTIVE?$AA@ DB 'NK_COLOR_SLIDER'
	DB	'_CURSOR_ACTIVE', 00H			; `string'
CONST	ENDS
;	COMDAT ??_C@_0BN@IIMOGDMI@NK_COLOR_SLIDER_CURSOR_HOVER?$AA@
CONST	SEGMENT
??_C@_0BN@IIMOGDMI@NK_COLOR_SLIDER_CURSOR_HOVER?$AA@ DB 'NK_COLOR_SLIDER_'
	DB	'CURSOR_HOVER', 00H				; `string'
CONST	ENDS
;	COMDAT ??_C@_0BH@LOKKNDLC@NK_COLOR_SLIDER_CURSOR?$AA@
CONST	SEGMENT
??_C@_0BH@LOKKNDLC@NK_COLOR_SLIDER_CURSOR?$AA@ DB 'NK_COLOR_SLIDER_CURSOR'
	DB	00H						; `string'
CONST	ENDS
;	COMDAT ??_C@_0BA@IMDHCAPK@NK_COLOR_SLIDER?$AA@
CONST	SEGMENT
??_C@_0BA@IMDHCAPK@NK_COLOR_SLIDER?$AA@ DB 'NK_COLOR_SLIDER', 00H ; `string'
CONST	ENDS
;	COMDAT ??_C@_0BH@PKJGNGNK@NK_COLOR_SELECT_ACTIVE?$AA@
CONST	SEGMENT
??_C@_0BH@PKJGNGNK@NK_COLOR_SELECT_ACTIVE?$AA@ DB 'NK_COLOR_SELECT_ACTIVE'
	DB	00H						; `string'
CONST	ENDS
;	COMDAT ??_C@_0BA@IJLDECBD@NK_COLOR_SELECT?$AA@
CONST	SEGMENT
??_C@_0BA@IJLDECBD@NK_COLOR_SELECT?$AA@ DB 'NK_COLOR_SELECT', 00H ; `string'
CONST	ENDS
;	COMDAT ??_C@_0BH@CCMKKENB@NK_COLOR_TOGGLE_CURSOR?$AA@
CONST	SEGMENT
??_C@_0BH@CCMKKENB@NK_COLOR_TOGGLE_CURSOR?$AA@ DB 'NK_COLOR_TOGGLE_CURSOR'
	DB	00H						; `string'
CONST	ENDS
;	COMDAT ??_C@_0BG@GFOFADAH@NK_COLOR_TOGGLE_HOVER?$AA@
CONST	SEGMENT
??_C@_0BG@GFOFADAH@NK_COLOR_TOGGLE_HOVER?$AA@ DB 'NK_COLOR_TOGGLE_HOVER', 00H ; `string'
CONST	ENDS
;	COMDAT ??_C@_0BA@GINDMCEM@NK_COLOR_TOGGLE?$AA@
CONST	SEGMENT
??_C@_0BA@GINDMCEM@NK_COLOR_TOGGLE?$AA@ DB 'NK_COLOR_TOGGLE', 00H ; `string'
CONST	ENDS
;	COMDAT ??_C@_0BH@PDJCAFHC@NK_COLOR_BUTTON_ACTIVE?$AA@
CONST	SEGMENT
??_C@_0BH@PDJCAFHC@NK_COLOR_BUTTON_ACTIVE?$AA@ DB 'NK_COLOR_BUTTON_ACTIVE'
	DB	00H						; `string'
CONST	ENDS
;	COMDAT ??_C@_0BG@IECMHCP@NK_COLOR_BUTTON_HOVER?$AA@
CONST	SEGMENT
??_C@_0BG@IECMHCP@NK_COLOR_BUTTON_HOVER?$AA@ DB 'NK_COLOR_BUTTON_HOVER', 00H ; `string'
CONST	ENDS
;	COMDAT ??_C@_0BA@EKMODIPE@NK_COLOR_BUTTON?$AA@
CONST	SEGMENT
??_C@_0BA@EKMODIPE@NK_COLOR_BUTTON?$AA@ DB 'NK_COLOR_BUTTON', 00H ; `string'
CONST	ENDS
;	COMDAT ??_C@_0BA@NMDKGDLN@NK_COLOR_BORDER?$AA@
CONST	SEGMENT
??_C@_0BA@NMDKGDLN@NK_COLOR_BORDER?$AA@ DB 'NK_COLOR_BORDER', 00H ; `string'
CONST	ENDS
;	COMDAT ??_C@_0BA@POJBPCMH@NK_COLOR_HEADER?$AA@
CONST	SEGMENT
??_C@_0BA@POJBPCMH@NK_COLOR_HEADER?$AA@ DB 'NK_COLOR_HEADER', 00H ; `string'
CONST	ENDS
;	COMDAT ??_C@_0BA@OKHFDINJ@NK_COLOR_WINDOW?$AA@
CONST	SEGMENT
??_C@_0BA@OKHFDINJ@NK_COLOR_WINDOW?$AA@ DB 'NK_COLOR_WINDOW', 00H ; `string'
CONST	ENDS
;	COMDAT ??_C@_0O@MMHOKIEN@NK_COLOR_TEXT?$AA@
CONST	SEGMENT
??_C@_0O@MMHOKIEN@NK_COLOR_TEXT?$AA@ DB 'NK_COLOR_TEXT', 00H ; `string'
CONST	ENDS
_DATA	SEGMENT
_nk_color_names DD FLAT:??_C@_0O@MMHOKIEN@NK_COLOR_TEXT?$AA@
	DD	FLAT:??_C@_0BA@OKHFDINJ@NK_COLOR_WINDOW?$AA@
	DD	FLAT:??_C@_0BA@POJBPCMH@NK_COLOR_HEADER?$AA@
	DD	FLAT:??_C@_0BA@NMDKGDLN@NK_COLOR_BORDER?$AA@
	DD	FLAT:??_C@_0BA@EKMODIPE@NK_COLOR_BUTTON?$AA@
	DD	FLAT:??_C@_0BG@IECMHCP@NK_COLOR_BUTTON_HOVER?$AA@
	DD	FLAT:??_C@_0BH@PDJCAFHC@NK_COLOR_BUTTON_ACTIVE?$AA@
	DD	FLAT:??_C@_0BA@GINDMCEM@NK_COLOR_TOGGLE?$AA@
	DD	FLAT:??_C@_0BG@GFOFADAH@NK_COLOR_TOGGLE_HOVER?$AA@
	DD	FLAT:??_C@_0BH@CCMKKENB@NK_COLOR_TOGGLE_CURSOR?$AA@
	DD	FLAT:??_C@_0BA@IJLDECBD@NK_COLOR_SELECT?$AA@
	DD	FLAT:??_C@_0BH@PKJGNGNK@NK_COLOR_SELECT_ACTIVE?$AA@
	DD	FLAT:??_C@_0BA@IMDHCAPK@NK_COLOR_SLIDER?$AA@
	DD	FLAT:??_C@_0BH@LOKKNDLC@NK_COLOR_SLIDER_CURSOR?$AA@
	DD	FLAT:??_C@_0BN@IIMOGDMI@NK_COLOR_SLIDER_CURSOR_HOVER?$AA@
	DD	FLAT:??_C@_0BO@MNHMPOAN@NK_COLOR_SLIDER_CURSOR_ACTIVE?$AA@
	DD	FLAT:??_C@_0BC@HONKKPNC@NK_COLOR_PROPERTY?$AA@
	DD	FLAT:??_C@_0O@DEKGLIFN@NK_COLOR_EDIT?$AA@
	DD	FLAT:??_C@_0BF@PJDDMCKJ@NK_COLOR_EDIT_CURSOR?$AA@
	DD	FLAT:??_C@_0P@FEEPECKC@NK_COLOR_COMBO?$AA@
	DD	FLAT:??_C@_0P@BJKJEJOA@NK_COLOR_CHART?$AA@
	DD	FLAT:??_C@_0BF@MEEINDGA@NK_COLOR_CHART_COLOR?$AA@
	DD	FLAT:??_C@_0BP@PFAFOEMP@NK_COLOR_CHART_COLOR_HIGHLIGHT?$AA@
	DD	FLAT:??_C@_0BD@FJBCPBMN@NK_COLOR_SCROLLBAR?$AA@
	DD	FLAT:??_C@_0BK@BCKHGODL@NK_COLOR_SCROLLBAR_CURSOR?$AA@
	DD	FLAT:??_C@_0CA@HLCOJGKE@NK_COLOR_SCROLLBAR_CURSOR_HOVER?$AA@
	DD	FLAT:??_C@_0CB@IJILDDIL@NK_COLOR_SCROLLBAR_CURSOR_ACTIVE@
	DD	FLAT:??_C@_0BE@CKODGPAC@NK_COLOR_TAB_HEADER?$AA@
?vertex_shader@?1??nk_sdl_device_create@@9@9 DD FLAT:??_C@_0PD@HHBHAGG@?$CDversion?5300?5es?6uniform?5mat4?5Pro@ ; `nk_sdl_device_create'::`2'::vertex_shader
?fragment_shader@?1??nk_sdl_device_create@@9@9 DD FLAT:??_C@_0MH@FHMHJAMC@?$CDversion?5300?5es?6precision?5medium@ ; `nk_sdl_device_create'::`2'::fragment_shader
?seperator@?1??nk_widget_text_wrap@@9@9 DD 020H		; `nk_widget_text_wrap'::`2'::seperator
?select@?1??FileBrowser@@9@9 DD 0ffffffffH		; `FileBrowser'::`2'::select
?doubleclick@?1??FileBrowser@@9@9 DD 0ffffffffH		; `FileBrowser'::`2'::doubleclick
?doubleclick2@?1??FileBrowser@@9@9 DD 0ffffffffH	; `FileBrowser'::`2'::doubleclick2
?editcolor@?1??LeftPannel@@9@9 DB 0ffH			; `LeftPannel'::`2'::editcolor
	DB	0ffH
	DB	0ffH
	DB	0ffH
_DATA	ENDS
CONST	SEGMENT
?pnt_align@?2??nk_draw_list_stroke_poly_line@@9@9 DD 04H ; `nk_draw_list_stroke_poly_line'::`3'::pnt_align
?pnt_size@?2??nk_draw_list_stroke_poly_line@@9@9 DD 08H	; `nk_draw_list_stroke_poly_line'::`3'::pnt_size
?hue_colors@?3??nk_draw_color_picker@@9@9 DB 0ffH	; `nk_draw_color_picker'::`4'::hue_colors
	DB	00H
	DB	00H
	DB	0ffH
	DB	0ffH
	DB	0ffH
	DB	00H
	DB	0ffH
	DB	00H
	DB	0ffH
	DB	00H
	DB	0ffH
	DB	00H
	DB	0ffH
	DB	0ffH
	DB	0ffH
	DB	00H
	DB	00H
	DB	0ffH
	DB	0ffH
	DB	0ffH
	DB	00H
	DB	0ffH
	DB	0ffH
	DB	0ffH
	DB	00H
	DB	00H
	DB	0ffH
?align@?1??nk_command_buffer_push@@9@9 DD 04H		; `nk_command_buffer_push'::`2'::align
_nk_proggy_clean_ttf_compressed_data_base85 DB '7])#######hV0qs''/###[),#'
	DB	'#/l:$#Q6>##5[n42>c-TH`->>#/e>11NNV=Bv(*:.F?uu#(gRU.o0XGH`$vhL'
	DB	'G1hxt9?W`#,5LsCp#-i>.r$<$6pD>Lb'';9Crc6tgXmKVeU2cD4Eo3R/2*>]b'
	DB	'(MC;$jPfY.;h^`IWM9<Lh2TlS+f-s$o6Q<BWH`YiU.xfLq$N;$0iR/GX:U(jc'
	DB	'W2p/W*q?-qmnUCI;jHSAiFWM.R*kU@C=GH?a9wp8f$e.-4^Qg1)Q-GL(lf(r/'
	DB	'7GrRgwV%MS=C#`8ND>Qo#t''X#(v#Y9w0#1D$CIf;W''#pWUPXOuxXuU(H9M('
	DB	'1<q-UE31#^-V''8IRUo7Qf./L>=Ke$$''5F%)]0^#0X@U.a<r:QLtFsLcL6##'
	DB	'lOj)#.Y5<-R&KgLwqJfLgN&;Q?gI^#DY2uLi@^rMl9t=cWq6##weg>$FBjVQT'
	DB	'SDgEKnIS7EM9>ZY9w0#L;>>#Mx&4Mvt//L[MkA#W@lK.N''[0#7RL_&#w+F%H'
	DB	'tG9M#XL`N&.,GM4Pg;-<nLENhvx>-VsM.M0rJfLH2eTM`*oJMHRC`NkfimM2J'
	DB	',W-jXS:)r0wK#@Fge$U>`w''N7G#$#fB#$E^$#:9:hk+eOe--6x)F7*E%?76%'
	DB	'^GMHePW-Z5l''&GiF#$956:rS?dA#fiK:)Yr+`&#0j@''DbG&#^$PG.Ll+DNa'
	DB	'<XCMKEV*N)LN/N*b=%Q6pia-Xg8I$<MR&,VdJe$<(7G;Ckl''&hF;;$<_=X(b'
	DB	'.RS%%)###MPBuuE1V:v&cX&#2m#(&cV]`k9OhLMbn%s$G2,B$BfD3X*sp5#l,'
	DB	'$R#]x_X1xKX%b5U*[r5iMfUo9U`N99hG)tm+/Us9pG)XPu`<0s-)WTt(gCRxI'
	DB	'g(%6sfh=ktMKn3j)<6<b5Sk_/0(^]AaN#(p/L>&VZ>1i%h1S9u5o@YaaW$e+b'
	DB	'<TWFn/Z:Oh(Cx2$lNEoN^e)#CFY@@I;BOQ*sRwZtZxRcU7uW6CXow0i(?$Q[c'
	DB	'jOd[P4d)]>ROPOpxTO7Stwi1::iB1q)C_=dV26J;2,]7op$]uQr@_V7$q^%lQ'
	DB	'wtuHY]=DX,n3L#0PHDO4f9>dC@O>HBuKPpP*E,N+b3L#lpR/MrTEH.IAQk.a>'
	DB	'D[.e;mc.x]Ip.PH^''/aqUO/$1WxLoW0[iLA<QT;5HKD+@qQ''NQ(3_PLhE48'
	DB	'R.qAPSwQ0/WK?Z,[x?-J;jQTWA0X@KJ(_Y8N-:/M74:/-ZpKrUss?d#dZq]DA'
	DB	'bkU*JqkL+nwX@@47`5>w=4h(9.`GCRUxHPeR`5Mjol(dUWxZa(>STrPkrJiWx'
	DB	'`5U7F#.g*jrohGg`cg:lSTvEY/EV_7H4Q9[Z%cnv;JQYZ5q.l7Zeas:HOIZOB'
	DB	'?G<Nald$qs]@]L<J7bR*>gv:[7MI2k).''2($5FNP&EQ(,)U]W]+fh18.vsai'
	DB	'00);D3@4ku5P?DP8aJt+;qUM]=+b''8@;mViBKx0DE[-auGl8:PJ&Dj+M6OC]'
	DB	'O^((##]`0i)drT;-7X`=-H3[igUnPG-NZlo.#k@h#=Ork$m>a>$-?Tm$UV(?#'
	DB	'P6YY#''/###xe7q.73rI3*pP/$1>s9)W,JrM7SN]''/4C#v$U`0#V.[0>xQsH'
	DB	'$fEmPMgY2u7Kh(G%siIfLSoS+MK2eTM$=5,M8p`A.;_R%#u[K#$x4AG8.kK/H'
	DB	'SB==-''Ie/QTtG?-.*^N-4B/ZM_3YlQC7(p7q)&](`6_c)$/*JL(L-^(]$wIM'
	DB	'`dPtOdGA,U3:w2M-0<q-]L_?^)1vw''.,MRsqVr.L;aN&#/EgJ)PBc[-f>+Wo'
	DB	'mX2u7lqM2iEumMTcsF?-aT=Z-97UEnXglEn1K-bnEO`guFt(c%=;Am_Qs@jLo'
	DB	'oI&NX;]0#j4#F14;gl8-GQpgwhrq8''=l_f-b49''UOqkLu7-##oDY2L(te+M'
	DB	'ch&gLYtJ,MEtJfLh''x''M=$CS-ZZ%P]8bZ>#S?YY#%Q&q''3^Fw&?D)UDNro'
	DB	'cM3A76//oL?#h7gl85[qW/NDOk%16ij;+:1a''iNIdb-ou8.P*w,v5#EI$TWS'
	DB	'>Pot-R*H''-SEpA:g)f+O$%%`kA#G=8RMmG1&O`>to8bC]T&$,n.LoO>29sp3'
	DB	'dt-52U%VM#q7''DHpg+#Z9%H[K<L%a2E-grWVM3@2=-k22tL]4$##6We''8UJ'
	DB	'CKE[d_=%wI;''6X-GsLX4j^SgJ$##R*w,vP3wK#iiW&#*h^D&R?jp7+/u&#(A'
	DB	'P##XU8c$fSYW-J95_-Dp[g9wcO&#M-h1OcJlc-*vpw0xUX&#OQFKNX@QI''Io'
	DB	'Pp7nb,QU//MQ&ZDkKP)X<WSVL(68uVl&#c''[0#(s1X&xm$Y%B7*K:eDA323j'
	DB	'998GXbA#pwMs-jgD$9QISB-A_(aN4xoFM^@C58D0+Q+q3n0#3U1InDjF682-S'
	DB	'jMXJK)(h$hxua_K]ul92%''BOU&#BRRh-slg8KDlr:%L71Ka:.A;%YULjDPmL'
	DB	'<LYs8i#XwJOYaKPKc1h:''9Ke,g)b),78=I39B;xiY$bgGw-&.Zi9InXDuYa%'
	DB	'G*f2Bq7mn9^#p1vv%#(Wi-;/Z5ho;#2:;%d&#x9v68C5g?ntX0X)pT`;%pB3q'
	DB	'7mgGN)3%(P8nTd5L7GeA-GL@+%J3u2:(Yf>et`e;)f#Km8&+DC$I46>#Kr]]u'
	DB	'-[=99tts1.qb#q72g1WJO81q+eN''03''eM>&1XxY-caEnOj%2n8)),?ILR5^'
	DB	'.Ibn<-X-Mq7[a82Lq:F&#ce+S9wsCK*x`569E8ew''He]h:sI[2LM$[guka3Z'
	DB	'Rd6:t%IG:;$%YiJ:Nq=?eAw;/:nnDq0(CYcMpG)qLN4$##&J<j$UpK<Q4a1]M'
	DB	'upW^-sj_$%[HK%''F####QRZJ::Y3EGl4''@%FkiAOg#p[##O`gukTfBHagL<'
	DB	'LHw%q&OV0##F=6/:chIm0@eCP8X]:kFI%hl8hgO@RcBhS-@Qb$%+m=hPDLg*%'
	DB	'K8ln(wcf3/''DW-$.lR?n[nCH-eXOONTJlh:.RYF%3''p6sq:UIMA945&^HFS'
	DB	'87@$EP2iG<-lCO$%c`uKGD3rC$x0BL8aFn--`ke%#HMP''vh1/R&O_J9''um,'
	DB	'.<tx[@%wsJk&bUT2`0uMv7gg#qp/ij.L56''hl;.s5CUrxjOM7-##.l+Au''A'
	DB	'&O:-T72L]P`&=;ctp''XScX*rU.>-XTt,%OVU4)S1+R-#dg0/Nn?Ku1^0f$B*'
	DB	'P:Rowwm-`0PKjYDDM''3]d39VZHEl4,.j'']Pk-M.h^&:0FACm$maq-&sgw0t'
	DB	'7/6(^xtk%LuH88Fj-ekm>GA#_>568x6(OFRl-IZp`&b,_P''$M<Jnq79VsJW/'
	DB	'mWS*PUiq76;]/NM_>hLbxfc$mj`,O;&%W2m`Zh:/)Uetw:aJ%]K9h:TcF]u_-'
	DB	'Sj9,VK3M.*''&0D[Ca]J9gp8,kAW]%(?A%R$f<->Zts''^kn=-^@c4%-pY6qI'
	DB	'%J%1IGxfLU9CP8cbPlXv);C=b),<2mOvP8up,UVf3839acAWAW-W?#ao/^#%K'
	DB	'Yo8fRULNd2.>%m]UK:n%r$''sw]J;5pAoO_#2mO3n,''=H5(etHg*`+RLgv>='
	DB	'4U8guD$I%D:W>-r5V*%j*W:Kvej.Lp$<M-SGZ'':+Q_k+uvOSLiEo(<aD/K<C'
	DB	'Cc`''Lx>''?;++O''>()jLR-^u68PHm8ZFWe+ej8h:9r6L*0//c&iH&R8pRbA'
	DB	'#Kjm%upV1g:a_#Ur7FuA#(tRh#.Y5K+@?3<-8m0$PEn;J:rh6?I6uG<-`wMU'''
	DB	'ircp0LaE_OtlMb&1#6T.#FDKu#1Lw%u%+GM+X''e?YLfjM[VO0MbuFp7;>Q&#'
	DB	'WIo)0@F%q7c#4XAXN-U&VB<HFF*qL($/V,;(kXZejWO`<[5??ewY(*9=%wDc;'
	DB	',u<''9t3W-(H1th3+G]ucQ]kLs7df($/*JL]@*t7Bu_G3_7mp7<iaQjO@.kLg'
	DB	';x3B0lqp7Hf,^Ze7-##@/c58Mo(3;knp0%)A7?-W+eI''o8)b<nKnw''Ho8C='
	DB	'Y>pqB>0ie&jhZ[?iLR@@_AvA-iQC(=ksRZRVp7`.=+NpBC%rh&3]R:8XDmE5^'
	DB	'V8O(x<<aG/1N$#FX$0V5Y6x''aErI3I$7x%E`v<-BY,)%-?Psf*l?%C3.mM(='
	DB	'/M0:JxG''?7WhH%o''a<-80g0NBxoO(GH<dM]n.+%q@jH?f.UsJ2Ggs&4<-e4'
	DB	'7&Kl+f//9@`b+?.TeN_&B8Ss?v;^Trk;f#YvJkl&w$]>-+k?''(<S:68tq*Wo'
	DB	'DfZu'';mM?8X[ma8W%*`-=;D.(nc7/;)g:T1=^J$&BRV(-lTmNB6xqB[@0*o.'
	DB	'erM*<SWF]u2=st-*(6v>^](H.aREZSi,#1:[IXaZFOm<-ui#qUq2$##Ri;u75'
	DB	'OK#(RtaW-K-F`S+cF]uN`-KMQ%rP/Xri.LRcB##=YL3BgM/3MD?@f&1''BW-)'
	DB	'Ju<L25gl8uhVm1hL$##*8###''A3/LkKW+(^rWX?5W_8g)a(m&K8P>#bmmWCM'
	DB	'kk&#TR`C,5d>g)F;t,4:@_l8G/5h4vUd%&%950:VXD''QdWoY-F$BtUwmfe$Y'
	DB	'qL''8(PWX(P?^@Po3$##`MSs?DWBZ/S>+4%>fX,VWv/w''KD`LP5IbH;rTV>n'
	DB	'3cEK8U#bX]l-/V+^lj3;vlMb&[5YQ8#pekX9JP3XUC72L,,?+Ni&co7ApnO*5'
	DB	'NK,((W-i:$,kp''UDAO(G0Sq7MVjJsbIu)''Z,*[>br5fX^:FPAWr-m2KgL<L'
	DB	'UN098kTF&#lvo58=/vjDo;.;)Ka*hLR#/k=rKbxuV`>Q_nN6''8uTG&#1T5g)'
	DB	'uLv:873UpTLgH+#FgpH''_o1780Ph8KmxQJ8#H72L4@768@Tm&Qh4CB/5OvmA'
	DB	'&,Q&QbUoi$a_%3M01H)4x7I^&KQVgtFnV+;[Pc>[m4k//,]1?#`VY[Jr*3&&s'
	DB	'lRfLiVZJ:]?=K3Sw=[$=uRB?3xk48@aeg<Z''<$#4H)6,>e0jT6''N#(q%.O='
	DB	'?2S]u*(m<-V8J''(1)G][68hW$5''q[GC&5j`TE?m''esFGNRM)j,ffZ?-qx8'
	DB	';->g4t*:CIP/[Qap7/9''#(1sao7w-.qNUdkJ)tCF&#B^;xGvn2r9FEPFFFcL'
	DB	'@.iFNkTve$m%#QvQS8U@)2Z+3K:AKM5isZ88+dKQ)W6>J%CL<KE>`.d*(B`-n'
	DB	'8D9oK<Up]c$X$(,)M8Zt7/[rdkqTgl-0cuGMv''?>-XV1q[''-5k''cAZ69e;'
	DB	'D_?$ZPP&s^+7])$*$#@QYi9,5P&#9r+$%CE=68>K8r0=dSC%%(@p7.m7jilQ0'
	DB	'2''0-VWAg<a/''''3u.=4L$Y)6k/K:_[3=&jvL<L0C/2''v:^;-DIBW,B4E68'
	DB	':kZ;%?8(Q8BH=kO65BW?xSG&#@uU,DS*,?.+(o(#1vCS8#CHF>TlGW''b)Tq7'
	DB	'VT9q^*^$$.:&N@@$&)WHtPm*5_rO0&e%K&#-30j(E4#''Zb.o/(Tpm$>K''f@'
	DB	'[PvFl,hfINTNU6u''0pao7%XUp9]5.>%h`8_=VYbxuel.NTSsJfLacFu3B''l'
	DB	'QSu/m6-Oqem8T+oE--$0a/k]uj9EwsG>%veR*hv^BFpQj:K''#SJ,sB-''#]('
	DB	'j.Lg92rTw-*n%@/;39rrJF,l#qV%OrtBeC6/,;qB3ebNW[?,Hqj2L.1NP&GjU'
	DB	'R=1D8QaS3Up&@*9wP?+lo7b?@%''k4`p0Z$22%K3+iCZj?XJN4Nm&+YF]u@-W'
	DB	'$U%VEQ/,,>>#)D<h#`)h0:<Q6909ua+&VU%n2:cG3FJ-%@Bj-DgLr`Hw&HAKj'
	DB	'KjseK</xKT*)B,N9X3]krc12t''pgTV(Lv-tL[xg_%=M_q7a^x?7Ubd>#%8cY'
	DB	'#YZ?=,`Wdxu/ae&#w6)R89tI#6@s''(6Bf7a&?S=^ZI_kS&ai`&=tE72L_D,;'
	DB	'^R)7[$s<Eh#c&)q.MXI%#v9ROa5FZO%sF7q7Nwb&#ptUJ:aqJe$Sl68%.D###'
	DB	'EC><?-aF&#RNQv>o8lKN%5/$(vdfq7+ebA#u1p]ovUKW&Y%q]''>$1@-[xfn$'
	DB	'7ZTp7mM,G,Ko7a&Gu%G[RMxJs[0MM%wci.LFDK)(<c`Q8N)jEIF*+?P2a8g%)'
	DB	'$q]o2aH8C&<SibC/q,(e:v;-b#6[$NtDZ84Je2KNvB#$P5?tQ3nt(0d=j.LQf'
	DB	'./Ll33+(;q3L-w=8dX$#WF&uIJ@-bfI>%:_i2B5CsR8&9Z&#=mPEnm0f`<&c)'
	DB	'QL5uJ#%u%lJj+D-r;BoF&#4DoS97h5g)E#o:&S4weDF,9^Hoe`h*L+_a*NrLW'
	DB	'-1pG_&2UdB86e%B/:=>)N4xeW.*wft-;$''58-ESqr<b?UI(_%@[P46>#U`'''
	DB	'6AQ]m&6/`Z>#S?YY#Vc;r7U2&326d=w&H####?TZ`*4?&.MK?LP8Vxg>$[QXc'
	DB	'%QJv92.(Db*B)gb*BM9dM*hJMAo*c&#b0v=Pjer]$gG&JXDf->''StvU7505l'
	DB	'9$AFvgYRI^&<^b68?j#q9QX4SM''RO#&sL1IM.rJfLUAj221]d##DW=m83u5;'
	DB	'''bYx,*Sl0hL(W;;$doB&O/TQ:(Z^xBdLjL<Lni;''''X.`$#8+1GD:k$YUWs'
	DB	'bn8ogh6rxZ2Z9]%nd+>V#*8U_72Lh+2Q8Cj0i:6hp&$C/:p(HK>T8Y[gHQ4`4'
	DB	')''$Ab(Nof%V''8hL&#<NEdtg(n''=S1A(Q1/I&4([%dM`,Iu''1:_hL>SfD0'
	DB	'7&6D<fp8dHM7/g+tlPN9J*rKaPct&?''uBCem^jn%9_K)<,C5K3s=5g&GmJb*'
	DB	'[SYq7K;TRLGCsM-$$;S%:Y@r7AK0pprpL<Lrh,q7e/%KWK:50I^+m''vi`3?%'
	DB	'Zp+<-d+$L-Sv:@.o19n$s0&39;kn;S%BSq*$3WoJSCLweV[aZ''MQIjO<7;X-'
	DB	'X;&+dMLvu#^UsGEC9WEc[X(wI7#2.(F0jV*eZf<-Qv3J-c+J5AlrB#$p(H68L'
	DB	'vEA''q3n0#m,[`*8Ft)FcYgEud]CWfm68,(aLA$@EFTgLXoBq/UPlp7:d[/;r'
	DB	'_ix=:TF`S5H-b<LI&HY(K=h#)]Lk$K14lVfm:x$H<3^Ql<M`$OhapBnkup''D'
	DB	'#L$Pb_`N*g]2e;X/Dtg,bsj&K#2[-:iYr''_wgH)NUIR8a1n#S?Yej''h8^58'
	DB	'UbZd+^FKD*T@;6A7aQC[K8d-(v6GI$x:T<&''Gp5Uf>@M.*J:;$-rv29''M]8'
	DB	'qMv-tLp,''886iaC=Hb*YJoKJ,(j%K=H`K.v9HggqBIiZu''QvBT.#=)0ukru'
	DB	'V&.)3=(^1`o*Pj4<-<aN((^7(''#Z0wK#5GX@7u][`*S^43933A4rl][`*O4C'
	DB	'gLEl]v$1Q3AeF37dbXk,.)vj#x''d`;qgbQR%FW,2(?LO=s%Sc68%NP''##Ao'
	DB	'tl8x=BE#j1UD([3$M(]UI2LX3RpKN@;/#f''f/&_mt&F)XdF<9t4)Qa.*kTLw'
	DB	'Q''(TTB9.xH''>#MJ+gLq9-##@HuZPN0]u:h7.T..G:;$/Usj(T7`Q8tT72Ln'
	DB	'Yl<-qx8;-HV7Q-&Xdx%1a,hC=0u+HlsV>nuIQL-5<N?)NBS)QN*_I,?&)2''I'
	DB	'M%L3I)X((e/dl2&8''<M:^#M*Q+[T.Xri.LYS3v%fF`68h;b-X[/En''CR.q7'
	DB	'E)p''/kle2HM,u;^%OKC-N+Ll%F9CF<Nf''^#t2L,;27W:0O@6##U6W7:$rJf'
	DB	'LWHj$#)woqBefIZ.PK<b*t7ed;p*_m;4ExK#h@&]>_>@kXQtMacfD.m-VAb8;'
	DB	'IReM3$wf0''''hra*so568''Ip&vRs849''MRYSp%:t:h5qSgwpEr$B>Q,;s('
	DB	'C#$)`svQuF$##-D,##,g68@2[T;.XSdN9Qe)rpt._K-#5wF)sP''##p#C0c%-'
	DB	'Gb%hd+<-j''Ai*x&&HMkT]C''OSl##5RG[JXaHN;d''uA#x._U;.`PU@(Z3dt'
	DB	'4r152@:v,''R.Sj''w#0<-;kPI)FfJ&#AYJ&#//)>-k=m=*XnK$>=)72L]0I%'
	DB	'>.G690a:$##<,);?;72#?x9+d;^V''9;jY@;)br#q^YQpx:X#Te$Z^''=-=bG'
	DB	'hLf:D6&bNwZ9-ZD#n^9HhLMr5G;'']d&6''wYmTFmL<LD)F^%[tC''8;+9E#C'
	DB	'$g%#5Y>q9wI>P(9mI[>kC-ekLC/R&CH+s''B;K-M6$EB%is00:+A4[7xks.Lr'
	DB	'Nk0&E)wILYF@2L''0Nb$+pv<(2.768/FrY&h$^3i&@+G%JT''<-,v`3;_)I9M'
	DB	'^AE]CN?Cl2AZg+%4iTpT3<n-&%H%b<FDj2M<hH=&Eh<2Len$b*aTX=-8QxN)k'
	DB	'11IM1c^j%9s<L<NFSo)B?+<-(GxsF,^-Eh@$4dXhN$+#rxK8''je''D7k`e;)'
	DB	'2pYwPA''_p9&@^18ml1^[@g4t*[JOa*[=Qp7(qJ_oOL^(''7fB&Hq-:sf,sNj'
	DB	'8xq^>$U4O]GKx''m9)b@p7YsvK3w^YR-CdQ*:Ir<($u&)#(&?L9Rg3H)4fiEp'
	DB	'^iI9O8KnTj,]H?D*r7''M;PwZ9K0E^k&-cpI;.p/6_vwoFMV<->#%Xi.LxVnr'
	DB	'U(4&8/P+:hLSKj$#U%]49t''I:rgMi''FL@a:0Y-uA[39'',(vbma*hU%<-SR'
	DB	'F`Tt:542R_VV$p@[p8DV[A,?1839FWdF<TddF<9Ah-6&9tWoDlh]&1SpGMq>T'
	DB	'i1O*H&#(AL8[_P%.M>v^-))qOT*F5Cq0`Ye%+$B6i:7@0IX<N+T+0MlMBPQ*V'
	DB	'j>SsD<U4JHY8kD2)2fU/M#$e.)T4,_=8hLim[&);?UkK''-x?''(:siIfL<$p'
	DB	'FM`i<?%W(mGDHM%>iWP,##P`%/L<eXi:@Z9C.7o=@(pXdAO/NLQ8lPl+HPOQa'
	DB	'8wD8=^GlPa8TKI1CjhsCTSLJM''/Wl>-S(qw%sf/@%#B6;/U7K]uZbi^Oc^2n'
	DB	'<bhPmUkMw>%t<)''mEVE''''n`WnJra$^TKvX5B>;_aSEK'',(hwa0:i4G?.B'
	DB	'ci.(X[?b*($,=-n<.Q%`(X=?+@Am*Js0&=3bh8K]mL<LoNs''6,''85`0?t/'''
	DB	'_U59@]ddF<#LdF<eWdF<OuN/45rY<-L@&#+fm>69=Lb,OcZV/);TTm8VI;?%O'
	DB	'tJ<(b4mq7M6:u?KRdF<gR@2L=FNU-<b[(9c/ML3m;Z[$oF3g)GAWqpARc=<RO'
	DB	'u7cL5l;-[A]%/+fsd;l#SafT/f*W]0=O''$(Tb<[)*@e775R-:Yob%g*>l*:x'
	DB	'P?Yb.5)%w_I?7uk5JC+FS(m#i''k.''a0i)9<7b''fs''59hq$*5Uhv##pi^8'
	DB	'+hIEBF`nvo`;''l0.^S1<-wUK2/Coh58KKhLjM=SO*rfO`+qC`W-On.=AJ56>'
	DB	'>i2@2LH6A:&5q`?9I3@@''04&p2/LVa*T-4<-i3;M9UvZd+N7>b*eIwg:CC)c'
	DB	'<>nO&#<IGe;__.thjZl<%w(Wk2xmp4Q@I#I9,DF]u7-P=.-_:YJ]aS@V?6*C('
	DB	')dOp7:WL,b&3Rg/.cmM9&r^>$(>.Z-I&J(Q0Hd5Q%7Co-b`-c<N(6r@ip+Aur'
	DB	'K<m86QIth*#v;-OBqi+L7wDE-Ir8K[''m+DDSLwK&/.?-V%U_%3:qKNu$_b*B'
	DB	'-kp7NaD''QdWQPKYq[@>P)hI;*_F]u`Rb[.j8_Q/<&>uu+VsH$sM9TA%?)(vm'
	DB	'J80),P7E>)tjD%2L=-t#fK[%`v=Q8<FfNkgg^oIbah*#8/Qt$F&:K*-(N/''+'
	DB	'1vMB,u()-a.VUU*#[e%gAAO(S>WlA2);Sa>gXm8YB`1d@K#n]76-a$U,mF<fX'
	DB	']idqd)<3,]J7JmW4`6]uks=4-72L(jEk+:bJ0M^q-8Dm_Z?0olP1C9Sa&H[d&'
	DB	'c$ooQUj]Exd*3ZM@-WGW2%s'',B-_M%>%Ul:#/''xoFM9QX-$.QN''>[%$Z$u'
	DB	'F6pA6Ki2O5:8w*vP1<-1`[G,)-m#>0`P&#eb#.3i)rtB61(o''$?X3B</R90;'
	DB	'eZ]%Ncq;-Tl]#F>2Qft^ae_5tKL9MUe9b*sLEQ95C&`=G?@Mj=wh*''3E>=-<'
	DB	')Gt*Iw)''QG:`@IwOf7&]1i''S01B+Ev/Nac#9S;=;YQpg_6U`*kVY39xK,[/'
	DB	'6Aj7:''1Bm-_1EYfa1+o&o4hp7KN_Q(OlIo@S%;jVdn0''1<Vc52=u`3^o-n1'
	DB	'''g4v58Hj&6_t7$##?M)c<$bgQ_''SY((-xkA#Y(,p''H9rIVY-b,''%bCPF7'
	DB	'.J<Up^,(dU1VY*5#WkTU>h19w,WQhLI)3S#f$2(eb,jr*b;3Vw]*7NH%$c4Vs'
	DB	',eD9>XW8?N]o+(*pgC%/72LV-u<Hp,3@e^9UB1J+ak9-TN/mhKPg+AJYd$Mlv'
	DB	'AF_jCK*.O-^(63adMT->W%iewS8W6m2rtCpo''RS1R84=@paTKt)>=%&1[)*v'
	DB	'p''u+x,VrwN;&]kuO9JDbg=pO$J*.jVe;u''m0dr9l,<*wMK*Oe=g8lV_KEBF'
	DB	'kO''oU]^=[-792#ok,)i]lR8qQ2oA8wcRCZ^7w/Njh;?.stX?Q1>S1q4Bn$)K'
	DB	'1<-rGdO''$Wr.Lc.CG)$/*JL4tNR/,SVO3,aUw''DJN:)Ss;wGn9A32ijw%FL'
	DB	'+Z0Fn.U9;reSq)bmI32U==5ALuG&#Vf1398/pVo1*c-(aY168o<`JsSbk-,1N'
	DB	';$>0:OUas(3:8Z972LSfF8eb=c-;>SPw7.6hn3m`9^Xkn(r.qS[0;T%&Qc=+S'
	DB	'TRxX''q1BNk3&*eu2;&8q$&x>Q#Q7^Tf+6<(d%ZVmj2bDi%.3L2n+4W''$PiD'
	DB	'DG)g,r%+?,$@?uou5tSe2aN_AQU*<h`e-GI7)?OK2A.d7_c)?wQ5AS@DL3r#7'
	DB	'fSkgl6-++D:''A,uq7SvlB$pcpH''q3n0#_%dY#xCpr-l<F0NR@-##FEV6NTF'
	DB	'6##$l84N1w?AO>''IAOURQ##V^Fv-XFbGM7Fl(N<3DhLGF%q.1rC$#:T__&Pi'
	DB	'68%0xi_&[qFJ(77j_&JWoF.V735&T,[R*:xFR*K5>>#`bW-?4Ne_&6Ne_&6Ne'
	DB	'_&n`kr-#GJcM6X;uM6X;uM(.a..^2TkL%oR(#;u.T%fAr%4tJ8&><1=GHZ_+m'
	DB	'9/#H1F^R#SC#*N=BA9(D?v[UiFY>>^8p,KKF.W]L29uLkLlu/+4T<XoIB&hx='
	DB	'T1PcDaB&;HH+-AFr?(m9HZV)FKS8JCw;SD=6[^/DZUL`EUDf]GGlG&>w$)F./'
	DB	'^n3+rlo+DB;5sIYGNk+i1t-69Jg--0pao7Sm#K)pdHW&;LuDNH@H>#/X-TI(;'
	DB	'P>#,Gc>#0Su>#4`1?#8lC?#<xU?#@.i?#D:%@#HF7@#LRI@#P_[@#Tkn@#Xw*'
	DB	'A#]-=A#a9OA#d<F&#*;G##.GY##2Sl##6`($#:l:$#>xL$#B.`$#F:r$#JF.%'
	DB	'#NR@%#R_R%#Vke%#Zww%#_-4&#3^Rh%Sflr-k''MS.o?.5/sWel/wpEM0%3'''
	DB	'/1)K^f1-d>G21&v(35>V`39V7A4=onx4A1OY5EI0;6Ibgr6M$HS7Q<)58C5w,'
	DB	';WoA*#[%T*#`1g*#d=#+#hI5+#lUG+#pbY+#tnl+#x$),#&1;,#*=M,#.I`,#'
	DB	'2Ur,#6b.-#;w[H#iQtA#m^0B#qjBB#uvTB##-hB#''9$C#+E6C#/QHC#3^ZC#'
	DB	'7jmC#;v)D#?,<D#C8ND#GDaD#KPsD#O]/E#g1A5#KA*1#gC17#MGd;#8(02#L'
	DB	'-d3#rWM4#Hga1#,<w0#T.j<#O#''2#CYN1#qa^:#_4m3#o@/=#eG8=#t8J5#`'
	DB	'+78#4uI-#m3B2#SB[8#Q0@8#i[*9#iOn8#1Nm;#^sN9#qh<9#:=x-#P;K2#$%'
	DB	'X9#bC+.#Rg;<#mN=.#MTF.#RZO.#2?)4#Y#(/#[)1/#b;L/#dAU/#0Sv;#lY$'
	DB	'0#n`-0#sf60#(F24#wrH0#%/e0#TmD<#%JSMFove:CTBEXI:<eh2g)B,3h2^G'
	DB	'3i;#d3jD>)4kMYD4lVu`4m`:&5niUA5@(A5BA1]PBB:xlBCC=2CDLXMCEUtiC'
	DB	'f&0g2''tN?PGT4CPGT4CPGT4CPGT4CPGT4CPGT4CPGT4CPGT4CPGT4CPGT4CP'
	DB	'GT4CPGT4CPGT4CP-qekC`.9kEg^+F$kwViFJTB&5KTB&5KTB&5KTB&5KTB&5K'
	DB	'TB&5KTB&5KTB&5KTB&5KTB&5KTB&5KTB&5KTB&5KTB&5KTB&5o,^<-28ZI''O'
	DB	'?;xpO?;xpO?;xpO?;xpO?;xpO?;xpO?;xpO?;xpO?;xpO?;xpO?;xpO?;xpO?'
	DB	';xpO?;xp;7q-#lLYI:xvD=#', 00H
	ORG $+3
_nk_custom_cursor_data DB '..-         -XXXXXXX-    X    -           X   '
	DB	'        -XXXXXXX          -          XXXXXXX..-         -X...'
	DB	'..X-   X.X   -          X.X          -X.....X          -     '
	DB	'     X.....X---         -XXX.XXX-  X...X  -         X...X    '
	DB	'     -X....X           -           X....XX           -  X.X  '
	DB	'- X.....X -        X.....X        -X...X            -        '
	DB	'    X...XXX          -  X.X  -X.......X-       X.......X     '
	DB	'  -X..X.X           -           X.X..XX.X         -  X.X  -XX'
	DB	'XX.XXXX-       XXXX.XXXX       -X.X X.X          -          X'
	DB	'.X X.XX..X        -  X.X  -   X.X   -          X.X          -'
	DB	'XX   X.X         -         X.X   XXX...X       -  X.X  -   X.'
	DB	'X   -    XX    X.X    XX    -      X.X        -        X.X   '
	DB	'   X....X      -  X.X  -   X.X   -   X.X    X.X    X.X   -   '
	DB	'    X.X       -       X.X       X.....X     -  X.X  -   X.X  '
	DB	' -  X..X    X.X    X..X  -        X.X      -      X.X        '
	DB	'X......X    -  X.X  -   X.X   - X...XXXXXX.XXXXXX...X -      '
	DB	'   X.X   XX-XX   X.X         X.......X   -  X.X  -   X.X   -X'
	DB	'.....................X-          X.X X.X-X.X X.X          X..'
	DB	'......X  -  X.X  -   X.X   - X...XXXXXX.XXXXXX...X -         '
	DB	'  X.X..X-X..X.X           X.........X -XXX.XXX-   X.X   -  X.'
	DB	'.X    X.X    X..X  -            X...X-X...X            X.....'
	DB	'.....X-X.....X-   X.X   -   X.X    X.X    X.X   -           X'
	DB	'....X-X....X           X......XXXXX-XXXXXXX-   X.X   -    XX '
	DB	'   X.X    XX    -          X.....X-X.....X          X...X..X '
	DB	'   ---------   X.X   -          X.X          -          XXXXX'
	DB	'XX-XXXXXXX          X..X X..X   -       -XXXX.XXXX-       XXX'
	DB	'X.XXXX       ------------------------------------X.X  X..X   '
	DB	'-       -X.......X-       X.......X       -    XX           X'
	DB	'X    -           XX    X..X  -       - X.....X -        X....'
	DB	'.X        -   X.X           X.X   -                 X..X     '
	DB	'     -  X...X  -         X...X         -  X..X           X..X'
	DB	'  -                  XX           -   X.X   -          X.X   '
	DB	'       - X...XXXXXXXXXXXXX...X -           ------------      '
	DB	'  -    X    -           X           -X.....................X-'
	DB	'                               ------------------------------'
	DB	'----- X...XXXXXXXXXXXXX...X -                                '
	DB	'                                 -  X..X           X..X  -   '
	DB	'                                                             '
	DB	' -   X.X           X.X   -                                   '
	DB	'                              -    XX           XX    -      '
	DB	'     ', 00H
	ORG $+1
_nk_default_color_style DB 0afH
	DB	0afH
	DB	0afH
	DB	0ffH
	DB	02dH
	DB	02dH
	DB	02dH
	DB	0ffH
	DB	028H
	DB	028H
	DB	028H
	DB	0ffH
	DB	041H
	DB	041H
	DB	041H
	DB	0ffH
	DB	032H
	DB	032H
	DB	032H
	DB	0ffH
	DB	028H
	DB	028H
	DB	028H
	DB	0ffH
	DB	023H
	DB	023H
	DB	023H
	DB	0ffH
	DB	064H
	DB	064H
	DB	064H
	DB	0ffH
	DB	078H
	DB	078H
	DB	078H
	DB	0ffH
	DB	02dH
	DB	02dH
	DB	02dH
	DB	0ffH
	DB	02dH
	DB	02dH
	DB	02dH
	DB	0ffH
	DB	023H
	DB	023H
	DB	023H
	DB	0ffH
	DB	026H
	DB	026H
	DB	026H
	DB	0ffH
	DB	064H
	DB	064H
	DB	064H
	DB	0ffH
	DB	078H
	DB	078H
	DB	078H
	DB	0ffH
	DB	096H
	DB	096H
	DB	096H
	DB	0ffH
	DB	026H
	DB	026H
	DB	026H
	DB	0ffH
	DB	026H
	DB	026H
	DB	026H
	DB	0ffH
	DB	0afH
	DB	0afH
	DB	0afH
	DB	0ffH
	DB	02dH
	DB	02dH
	DB	02dH
	DB	0ffH
	DB	078H
	DB	078H
	DB	078H
	DB	0ffH
	DB	02dH
	DB	02dH
	DB	02dH
	DB	0ffH
	DB	0ffH
	DB	00H
	DB	00H
	DB	0ffH
	DB	028H
	DB	028H
	DB	028H
	DB	0ffH
	DB	064H
	DB	064H
	DB	064H
	DB	0ffH
	DB	078H
	DB	078H
	DB	078H
	DB	0ffH
	DB	096H
	DB	096H
	DB	096H
	DB	0ffH
	DB	028H
	DB	028H
	DB	028H
	DB	0ffH
?pnt_align@?1??nk_draw_list_fill_poly_convex@@9@9 DD 04H ; `nk_draw_list_fill_poly_convex'::`2'::pnt_align
?pnt_size@?1??nk_draw_list_fill_poly_convex@@9@9 DD 08H	; `nk_draw_list_fill_poly_convex'::`2'::pnt_size
_nk_utfbyte DB	080H
	DB	00H
	DB	0c0H
	DB	0e0H
	DB	0f0H
	ORG $+3
_nk_utfmask DB	0c0H
	DB	080H
	DB	0e0H
	DB	0f0H
	DB	0f8H
	ORG $+3
_nk_utfmin DD	00H
	DD	00H
	DD	080H
	DD	0800H
	DD	010000H
_nk_utfmax DD	010ffffH
	DD	07fH
	DD	07ffH
	DD	0ffffH
	DD	010ffffH
?null_rect@?1??nk_contextual_begin@@9@9 DD 000000000r ; 0 ; `nk_contextual_begin'::`2'::null_rect
	DD	000000000r			; 0
	DD	000000000r			; 0
	DD	000000000r			; 0
?vertex_layout@?3??nk_sdl_render@@9@9 DD 00H		; `nk_sdl_render'::`4'::vertex_layout
	DD	06H
	DD	00H
	DD	02H
	DD	06H
	DD	08H
	DD	01H
	DD	0bH
	DD	010H
	DD	03H
	DD	013H
	DD	00H
?nk_cursor_data@?5??nk_font_atlas_bake@@9@9 DD 000000000r ; 0 ; `nk_font_atlas_bake'::`6'::nk_cursor_data
	DD	040400000r			; 3
	DD	041400000r			; 12
	DD	041980000r			; 19
	DD	000000000r			; 0
	DD	000000000r			; 0
	DD	041500000r			; 13
	DD	000000000r			; 0
	DD	040e00000r			; 7
	DD	041800000r			; 16
	DD	040800000r			; 4
	DD	041000000r			; 8
	DD	041f80000r			; 31
	DD	000000000r			; 0
	DD	041b80000r			; 23
	DD	041b80000r			; 23
	DD	041300000r			; 11
	DD	041300000r			; 11
	DD	041a80000r			; 21
	DD	000000000r			; 0
	DD	041100000r			; 9
	DD	041b80000r			; 23
	DD	040a00000r			; 5
	DD	041300000r			; 11
	DD	0425c0000r			; 55
	DD	041900000r			; 18
	DD	041b80000r			; 23
	DD	041100000r			; 9
	DD	041300000r			; 11
	DD	040a00000r			; 5
	DD	042920000r			; 73
	DD	000000000r			; 0
	DD	041880000r			; 17
	DD	041880000r			; 17
	DD	041100000r			; 9
	DD	041100000r			; 9
	DD	0425c0000r			; 55
	DD	000000000r			; 0
	DD	041880000r			; 17
	DD	041880000r			; 17
	DD	041100000r			; 9
	DD	041100000r			; 9
_nk_rect_align DD 04H
_nk_range_align DD 04H
_nk_char_align DD 04H
_nk_build_align DD 04H
_nk_baker_align DD 04H
?ranges@?1??nk_font_default_glyph_ranges@@9@9 DD 020H	; `nk_font_default_glyph_ranges'::`2'::ranges
	DD	0ffH
	DD	00H
?ranges@?1??nk_font_chinese_glyph_ranges@@9@9 DD 020H	; `nk_font_chinese_glyph_ranges'::`2'::ranges
	DD	0ffH
	DD	03000H
	DD	030ffH
	DD	031f0H
	DD	031ffH
	DD	0ff00H
	DD	0ffefH
	DD	04e00H
	DD	09fafH
	DD	00H
?ranges@?1??nk_font_cyrillic_glyph_ranges@@9@9 DD 020H	; `nk_font_cyrillic_glyph_ranges'::`2'::ranges
	DD	0ffH
	DD	0400H
	DD	052fH
	DD	02de0H
	DD	02dffH
	DD	0a640H
	DD	0a69fH
	DD	00H
?ranges@?1??nk_font_korean_glyph_ranges@@9@9 DD 020H	; `nk_font_korean_glyph_ranges'::`2'::ranges
	DD	0ffH
	DD	03131H
	DD	03163H
	DD	0ac00H
	DD	0d79dH
	DD	00H
?point_align@?1??nk_draw_list_alloc_path@@9@9 DD 04H	; `nk_draw_list_alloc_path'::`2'::point_align
?point_size@?1??nk_draw_list_alloc_path@@9@9 DD 08H	; `nk_draw_list_alloc_path'::`2'::point_size
?max_height@?1??nk_font_bake_pack@@9@9 DD 08000H	; `nk_font_bake_pack'::`2'::max_height
?cmd_align@?1??nk_draw_list_push_command@@9@9 DD 04H	; `nk_draw_list_push_command'::`2'::cmd_align
?cmd_size@?1??nk_draw_list_push_command@@9@9 DD 018H	; `nk_draw_list_push_command'::`2'::cmd_size
?elem_align@?1??nk_draw_list_alloc_elements@@9@9 DD 02H	; `nk_draw_list_alloc_elements'::`2'::elem_align
?elem_size@?1??nk_draw_list_alloc_elements@@9@9 DD 02H	; `nk_draw_list_alloc_elements'::`2'::elem_size
?s@?1??nk_color_f@@9@9 DD 03b808081r		; 0.00392157 ; `nk_color_f'::`2'::s
_nk_red	DB	0ffH
	DB	00H
	DB	00H
	DB	0ffH
?s@?1??nk_color_d@@9@9 DQ 03f70101010101010r	; 0.00392157 ; `nk_color_d'::`2'::s
_nk_null_rect DD 0c6000000r			; -8192
	DD	0c6000000r			; -8192
	DD	046800000r			; 16384
	DD	046800000r			; 16384
_nk_green DB	00H
	DB	0ffH
	DB	00H
	DB	0ffH
_nk_blue DB	00H
	DB	00H
	DB	0ffH
	DB	0ffH
_nk_white DB	0ffH
	DB	0ffH
	DB	0ffH
	DB	0ffH
_nk_black DB	00H
	DB	00H
	DB	00H
	DB	0ffH
_nk_yellow DB	0ffH
	DB	0ffH
	DB	00H
	DB	0ffH
?a0@?1??nk_sin@@9@9 DD 00c780258r		; 1.91059e-031 ; `nk_sin'::`2'::a0
?a1@?1??nk_sin@@9@9 DD 03f801c6er		; 1.00087 ; `nk_sin'::`2'::a1
?size@?4??nk_create_page_element@@9@9 DD 01b0H		; `nk_create_page_element'::`5'::size
?a2@?1??nk_sin@@9@9 DD 0bc46b2e5r		; -0.0121276 ; `nk_sin'::`2'::a2
?a3@?1??nk_sin@@9@9 DD 0be0d6486r		; -0.138079 ; `nk_sin'::`2'::a3
?align@?4??nk_create_page_element@@9@9 DD 04H		; `nk_create_page_element'::`5'::align
?a4@?1??nk_sin@@9@9 DD 0bcdb0412r		; -0.0267353 ; `nk_sin'::`2'::a4
?a5@?1??nk_sin@@9@9 DD 03caa6a57r		; 0.0208027 ; `nk_sin'::`2'::a5
?a6@?1??nk_sin@@9@9 DD 0bb473a13r		; -0.00303996 ; `nk_sin'::`2'::a6
?a7@?1??nk_sin@@9@9 DD 03910f359r		; 0.000138236 ; `nk_sin'::`2'::a7
?a0@?1??nk_cos@@9@9 DD 03f804e2fr		; 1.00239 ; `nk_cos'::`2'::a0
?a1@?1??nk_cos@@9@9 DD 0bd1c6f36r		; -0.038192 ; `nk_cos'::`2'::a1
?a2@?1??nk_cos@@9@9 DD 0bec9ec7br		; -0.394382 ; `nk_cos'::`2'::a2
?a3@?1??nk_cos@@9@9 DD 0bdf1f042r		; -0.118134 ; `nk_cos'::`2'::a3
?a4@?1??nk_cos@@9@9 DD 03ddb63b9r		; 0.107124 ; `nk_cos'::`2'::a4
?a5@?1??nk_cos@@9@9 DD 0bc98e4a6r		; -0.0186637 ; `nk_cos'::`2'::a5
?a6@?1??nk_cos@@9@9 DD 03a81c79er		; 0.000990141 ; `nk_cos'::`2'::a6
?a7@?1??nk_cos@@9@9 DD 0a96b8c59r		; -5.23022e-014 ; `nk_cos'::`2'::a7
?black@?1??nk_draw_color_picker@@9@9 DB 00H		; `nk_draw_color_picker'::`2'::black
	DB	00H
	DB	00H
	DB	0ffH
?white@?1??nk_draw_color_picker@@9@9 DB 0ffH		; `nk_draw_color_picker'::`2'::white
	DB	0ffH
	DB	0ffH
	DB	0ffH
?black_trans@?1??nk_draw_color_picker@@9@9 DB 00H	; `nk_draw_color_picker'::`2'::black_trans
	DB	00H
	DB	00H
	DB	00H
CONST	ENDS
PUBLIC	_SDL_main
PUBLIC	_DirFiles
PUBLIC	_nk_init_default
PUBLIC	_nk_init_fixed
PUBLIC	_nk_init
PUBLIC	_nk_init_custom
PUBLIC	_nk_clear
PUBLIC	_nk_free
PUBLIC	_nk_input_begin
PUBLIC	_nk_input_motion
PUBLIC	_nk_input_key
PUBLIC	_nk_input_button
PUBLIC	_nk_input_scroll
PUBLIC	_nk_input_char
PUBLIC	_nk_input_glyph
PUBLIC	_nk_input_unicode
PUBLIC	_nk_input_end
PUBLIC	_nk__begin
PUBLIC	_nk__next
PUBLIC	_nk_convert
PUBLIC	_nk__draw_begin
PUBLIC	_nk__draw_end
PUBLIC	_nk__draw_next
PUBLIC	_nk_begin
PUBLIC	_nk_begin_titled
PUBLIC	_nk_end
PUBLIC	_nk_window_find
PUBLIC	_nk_window_get_bounds
PUBLIC	_nk_window_get_position
PUBLIC	_nk_window_get_size
PUBLIC	_nk_window_get_width
PUBLIC	_nk_window_get_height
PUBLIC	_nk_window_get_panel
PUBLIC	_nk_window_get_content_region
PUBLIC	_nk_window_get_content_region_min
PUBLIC	_nk_window_get_content_region_max
PUBLIC	_nk_window_get_content_region_size
PUBLIC	_nk_window_get_canvas
PUBLIC	_nk_window_has_focus
PUBLIC	_nk_window_is_collapsed
PUBLIC	_nk_window_is_closed
PUBLIC	_nk_window_is_hidden
PUBLIC	_nk_window_is_active
PUBLIC	_nk_window_is_hovered
PUBLIC	_nk_window_is_any_hovered
PUBLIC	_nk_item_is_any_active
PUBLIC	_nk_window_set_bounds
PUBLIC	_nk_window_set_position
PUBLIC	_nk_window_set_size
PUBLIC	_nk_window_set_focus
PUBLIC	_nk_window_close
PUBLIC	_nk_window_collapse
PUBLIC	_nk_window_collapse_if
PUBLIC	_nk_window_show
PUBLIC	_nk_window_show_if
PUBLIC	_nk_layout_set_min_row_height
PUBLIC	_nk_layout_reset_min_row_height
PUBLIC	_nk_layout_widget_bounds
PUBLIC	_nk_layout_ratio_from_pixel
PUBLIC	_nk_layout_row_dynamic
PUBLIC	_nk_layout_row_static
PUBLIC	_nk_layout_row_begin
PUBLIC	_nk_layout_row_push
PUBLIC	_nk_layout_row_end
PUBLIC	_nk_layout_row
PUBLIC	_nk_layout_row_template_begin
PUBLIC	_nk_layout_row_template_push_dynamic
PUBLIC	_nk_layout_row_template_push_variable
PUBLIC	_nk_layout_row_template_push_static
PUBLIC	_nk_layout_row_template_end
PUBLIC	_nk_layout_space_begin
PUBLIC	_nk_layout_space_push
PUBLIC	_nk_layout_space_end
PUBLIC	_nk_layout_space_bounds
PUBLIC	_nk_layout_space_to_screen
PUBLIC	_nk_layout_space_to_local
PUBLIC	_nk_layout_space_rect_to_screen
PUBLIC	_nk_layout_space_rect_to_local
PUBLIC	_nk_group_begin
PUBLIC	_nk_group_scrolled_offset_begin
PUBLIC	_nk_group_scrolled_begin
PUBLIC	_nk_group_scrolled_end
PUBLIC	_nk_group_end
PUBLIC	_nk_list_view_begin
PUBLIC	_nk_list_view_end
PUBLIC	_nk_tree_push_hashed
PUBLIC	_nk_tree_image_push_hashed
PUBLIC	_nk_tree_pop
PUBLIC	_nk_tree_state_push
PUBLIC	_nk_tree_state_image_push
PUBLIC	_nk_tree_state_pop
PUBLIC	_nk_widget
PUBLIC	_nk_widget_fitting
PUBLIC	_nk_widget_bounds
PUBLIC	_nk_widget_position
PUBLIC	_nk_widget_size
PUBLIC	_nk_widget_width
PUBLIC	_nk_widget_height
PUBLIC	_nk_widget_is_hovered
PUBLIC	_nk_widget_is_mouse_clicked
PUBLIC	_nk_widget_has_mouse_click_down
PUBLIC	_nk_spacing
PUBLIC	_nk_text
PUBLIC	_nk_text_colored
PUBLIC	_nk_text_wrap
PUBLIC	_nk_text_wrap_colored
PUBLIC	_nk_label
PUBLIC	_nk_label_colored
PUBLIC	_nk_label_wrap
PUBLIC	_nk_label_colored_wrap
PUBLIC	_nk_image
PUBLIC	_nk_labelf
PUBLIC	_nk_labelf_colored
PUBLIC	_nk_labelf_wrap
PUBLIC	_nk_labelf_colored_wrap
PUBLIC	_nk_value_bool
PUBLIC	_nk_value_int
PUBLIC	_nk_value_uint
PUBLIC	_nk_value_float
PUBLIC	_nk_value_color_byte
PUBLIC	_nk_value_color_float
PUBLIC	_nk_value_color_hex
PUBLIC	_nk_button_text
PUBLIC	_nk_button_label
PUBLIC	_nk_button_color
PUBLIC	_nk_button_symbol
PUBLIC	_nk_button_image
PUBLIC	_nk_button_symbol_label
PUBLIC	_nk_button_symbol_text
PUBLIC	_nk_button_image_label
PUBLIC	_nk_button_image_text
PUBLIC	_nk_button_text_styled
PUBLIC	_nk_button_label_styled
PUBLIC	_nk_button_symbol_styled
PUBLIC	_nk_button_image_styled
PUBLIC	_nk_button_symbol_text_styled
PUBLIC	_nk_button_symbol_label_styled
PUBLIC	_nk_button_image_label_styled
PUBLIC	_nk_button_image_text_styled
PUBLIC	_nk_button_set_behavior
PUBLIC	_nk_button_push_behavior
PUBLIC	_nk_button_pop_behavior
PUBLIC	_nk_check_label
PUBLIC	_nk_check_text
PUBLIC	_nk_check_flags_label
PUBLIC	_nk_check_flags_text
PUBLIC	_nk_checkbox_label
PUBLIC	_nk_checkbox_text
PUBLIC	_nk_checkbox_flags_label
PUBLIC	_nk_checkbox_flags_text
PUBLIC	_nk_radio_label
PUBLIC	_nk_radio_text
PUBLIC	_nk_option_label
PUBLIC	_nk_option_text
PUBLIC	_nk_selectable_label
PUBLIC	_nk_selectable_text
PUBLIC	_nk_selectable_image_label
PUBLIC	_nk_selectable_image_text
PUBLIC	_nk_select_label
PUBLIC	_nk_select_text
PUBLIC	_nk_select_image_label
PUBLIC	_nk_select_image_text
PUBLIC	_nk_slide_float
PUBLIC	_nk_slide_int
PUBLIC	_nk_slider_float
PUBLIC	_nk_slider_int
PUBLIC	_nk_progress
PUBLIC	_nk_prog
PUBLIC	_nk_color_picker
PUBLIC	_nk_color_pick
PUBLIC	_nk_property_int
PUBLIC	_nk_property_float
PUBLIC	_nk_property_double
PUBLIC	_nk_propertyi
PUBLIC	_nk_propertyf
PUBLIC	_nk_propertyd
PUBLIC	_nk_edit_string
PUBLIC	_nk_edit_string_zero_terminated
PUBLIC	_nk_edit_buffer
PUBLIC	_nk_edit_focus
PUBLIC	_nk_edit_unfocus
PUBLIC	_nk_chart_begin
PUBLIC	_nk_chart_begin_colored
PUBLIC	_nk_chart_add_slot
PUBLIC	_nk_chart_add_slot_colored
PUBLIC	_nk_chart_push
PUBLIC	_nk_chart_push_slot
PUBLIC	_nk_chart_end
PUBLIC	_nk_plot
PUBLIC	_nk_plot_function
PUBLIC	_nk_popup_begin
PUBLIC	_nk_popup_close
PUBLIC	_nk_popup_end
PUBLIC	_nk_combo
PUBLIC	_nk_combo_separator
PUBLIC	_nk_combo_string
PUBLIC	_nk_combo_callback
PUBLIC	_nk_combobox
PUBLIC	_nk_combobox_string
PUBLIC	_nk_combobox_separator
PUBLIC	_nk_combobox_callback
PUBLIC	_nk_combo_begin_text
PUBLIC	_nk_combo_begin_label
PUBLIC	_nk_combo_begin_color
PUBLIC	_nk_combo_begin_symbol
PUBLIC	_nk_combo_begin_symbol_label
PUBLIC	_nk_combo_begin_symbol_text
PUBLIC	_nk_combo_begin_image
PUBLIC	_nk_combo_begin_image_label
PUBLIC	_nk_combo_begin_image_text
PUBLIC	_nk_combo_item_label
PUBLIC	_nk_combo_item_text
PUBLIC	_nk_combo_item_image_label
PUBLIC	_nk_combo_item_image_text
PUBLIC	_nk_combo_item_symbol_label
PUBLIC	_nk_combo_item_symbol_text
PUBLIC	_nk_combo_close
PUBLIC	_nk_combo_end
PUBLIC	_nk_contextual_begin
PUBLIC	_nk_contextual_item_text
PUBLIC	_nk_contextual_item_label
PUBLIC	_nk_contextual_item_image_label
PUBLIC	_nk_contextual_item_image_text
PUBLIC	_nk_contextual_item_symbol_label
PUBLIC	_nk_contextual_item_symbol_text
PUBLIC	_nk_contextual_close
PUBLIC	_nk_contextual_end
PUBLIC	_nk_tooltip
PUBLIC	_nk_tooltip_begin
PUBLIC	_nk_tooltip_end
PUBLIC	_nk_menubar_begin
PUBLIC	_nk_menubar_end
PUBLIC	_nk_menu_begin_text
PUBLIC	_nk_menu_begin_label
PUBLIC	_nk_menu_begin_image
PUBLIC	_nk_menu_begin_image_text
PUBLIC	_nk_menu_begin_image_label
PUBLIC	_nk_menu_begin_symbol
PUBLIC	_nk_menu_begin_symbol_text
PUBLIC	_nk_menu_begin_symbol_label
PUBLIC	_nk_menu_item_text
PUBLIC	_nk_menu_item_label
PUBLIC	_nk_menu_item_image_label
PUBLIC	_nk_menu_item_image_text
PUBLIC	_nk_menu_item_symbol_text
PUBLIC	_nk_menu_item_symbol_label
PUBLIC	_nk_menu_close
PUBLIC	_nk_menu_end
PUBLIC	_nk_style_default
PUBLIC	_nk_style_from_table
PUBLIC	_nk_style_load_cursor
PUBLIC	_nk_style_load_all_cursors
PUBLIC	_nk_style_get_color_by_name
PUBLIC	_nk_style_set_font
PUBLIC	_nk_style_set_cursor
PUBLIC	_nk_style_show_cursor
PUBLIC	_nk_style_hide_cursor
PUBLIC	_nk_style_push_font
PUBLIC	_nk_style_push_float
PUBLIC	_nk_style_push_vec2
PUBLIC	_nk_style_push_style_item
PUBLIC	_nk_style_push_flags
PUBLIC	_nk_style_push_color
PUBLIC	_nk_style_pop_font
PUBLIC	_nk_style_pop_float
PUBLIC	_nk_style_pop_vec2
PUBLIC	_nk_style_pop_style_item
PUBLIC	_nk_style_pop_flags
PUBLIC	_nk_style_pop_color
PUBLIC	_nk_rgb
PUBLIC	_nk_rgb_iv
PUBLIC	_nk_rgb_bv
PUBLIC	_nk_rgb_f
PUBLIC	_nk_rgb_fv
PUBLIC	_nk_rgb_hex
PUBLIC	_nk_rgba
PUBLIC	_nk_rgba_u32
PUBLIC	_nk_rgba_iv
PUBLIC	_nk_rgba_bv
PUBLIC	_nk_rgba_f
PUBLIC	_nk_rgba_fv
PUBLIC	_nk_rgba_hex
PUBLIC	_nk_hsv
PUBLIC	_nk_hsv_iv
PUBLIC	_nk_hsv_bv
PUBLIC	_nk_hsv_f
PUBLIC	_nk_hsv_fv
PUBLIC	_nk_hsva
PUBLIC	_nk_hsva_iv
PUBLIC	_nk_hsva_bv
PUBLIC	_nk_hsva_f
PUBLIC	_nk_hsva_fv
PUBLIC	_nk_color_f
PUBLIC	_nk_color_fv
PUBLIC	_nk_color_d
PUBLIC	_nk_color_dv
PUBLIC	_nk_color_u32
PUBLIC	_nk_color_hex_rgba
PUBLIC	_nk_color_hex_rgb
PUBLIC	_nk_color_hsv_i
PUBLIC	_nk_color_hsv_b
PUBLIC	_nk_color_hsv_iv
PUBLIC	_nk_color_hsv_bv
PUBLIC	_nk_color_hsv_f
PUBLIC	_nk_color_hsv_fv
PUBLIC	_nk_color_hsva_i
PUBLIC	_nk_color_hsva_b
PUBLIC	_nk_color_hsva_iv
PUBLIC	_nk_color_hsva_bv
PUBLIC	_nk_color_hsva_f
PUBLIC	_nk_color_hsva_fv
PUBLIC	_nk_handle_ptr
PUBLIC	_nk_handle_id
PUBLIC	_nk_image_handle
PUBLIC	_nk_image_ptr
PUBLIC	_nk_image_id
PUBLIC	_nk_image_is_subimage
PUBLIC	_nk_subimage_ptr
PUBLIC	_nk_subimage_id
PUBLIC	_nk_subimage_handle
PUBLIC	_nk_murmur_hash
PUBLIC	_nk_triangle_from_direction
PUBLIC	_nk_vec2
PUBLIC	_nk_vec2i
PUBLIC	_nk_vec2v
PUBLIC	_nk_vec2iv
PUBLIC	_nk_get_null_rect
PUBLIC	_nk_rect
PUBLIC	_nk_recti
PUBLIC	_nk_recta
PUBLIC	_nk_rectv
PUBLIC	_nk_rectiv
PUBLIC	_nk_rect_pos
PUBLIC	_nk_rect_size
PUBLIC	_nk_strlen
PUBLIC	_nk_stricmp
PUBLIC	_nk_stricmpn
PUBLIC	_nk_strtoi
PUBLIC	_nk_strtof
PUBLIC	_nk_strtod
PUBLIC	_nk_strfilter
PUBLIC	_nk_strmatch_fuzzy_string
PUBLIC	_nk_strmatch_fuzzy_text
PUBLIC	_nk_utf_decode
PUBLIC	_nk_utf_encode
PUBLIC	_nk_utf_len
PUBLIC	_nk_utf_at
PUBLIC	_nk_font_default_glyph_ranges
PUBLIC	_nk_font_chinese_glyph_ranges
PUBLIC	_nk_font_cyrillic_glyph_ranges
PUBLIC	_nk_font_korean_glyph_ranges
PUBLIC	_nk_font_atlas_init_default
PUBLIC	_nk_font_atlas_init
PUBLIC	_nk_font_atlas_init_custom
PUBLIC	_nk_font_atlas_begin
PUBLIC	_nk_font_config
PUBLIC	_nk_font_atlas_add
PUBLIC	_nk_font_atlas_add_default
PUBLIC	_nk_font_atlas_add_from_memory
PUBLIC	_nk_font_atlas_add_from_file
PUBLIC	_nk_font_atlas_add_compressed
PUBLIC	_nk_font_atlas_add_compressed_base85
PUBLIC	_nk_font_atlas_bake
PUBLIC	_nk_font_atlas_end
PUBLIC	_nk_font_find_glyph
PUBLIC	_nk_font_atlas_cleanup
PUBLIC	_nk_font_atlas_clear
PUBLIC	_nk_buffer_init_default
PUBLIC	_nk_buffer_init
PUBLIC	_nk_buffer_init_fixed
PUBLIC	_nk_buffer_info
PUBLIC	_nk_buffer_push
PUBLIC	_nk_buffer_mark
PUBLIC	_nk_buffer_reset
PUBLIC	_nk_buffer_clear
PUBLIC	_nk_buffer_free
PUBLIC	_nk_buffer_memory
PUBLIC	_nk_buffer_memory_const
PUBLIC	_nk_buffer_total
PUBLIC	_nk_str_init_default
PUBLIC	_nk_str_init
PUBLIC	_nk_str_init_fixed
PUBLIC	_nk_str_clear
PUBLIC	_nk_str_free
PUBLIC	_nk_str_append_text_char
PUBLIC	_nk_str_append_str_char
PUBLIC	_nk_str_append_text_utf8
PUBLIC	_nk_str_append_str_utf8
PUBLIC	_nk_str_append_text_runes
PUBLIC	_nk_str_append_str_runes
PUBLIC	_nk_str_insert_at_char
PUBLIC	_nk_str_insert_at_rune
PUBLIC	_nk_str_insert_text_char
PUBLIC	_nk_str_insert_str_char
PUBLIC	_nk_str_insert_text_utf8
PUBLIC	_nk_str_insert_str_utf8
PUBLIC	_nk_str_insert_text_runes
PUBLIC	_nk_str_insert_str_runes
PUBLIC	_nk_str_remove_chars
PUBLIC	_nk_str_remove_runes
PUBLIC	_nk_str_delete_chars
PUBLIC	_nk_str_delete_runes
PUBLIC	_nk_str_at_char
PUBLIC	_nk_str_at_rune
PUBLIC	_nk_str_rune_at
PUBLIC	_nk_str_at_char_const
PUBLIC	_nk_str_at_const
PUBLIC	_nk_str_get
PUBLIC	_nk_str_get_const
PUBLIC	_nk_str_len
PUBLIC	_nk_str_len_char
PUBLIC	_nk_filter_default
PUBLIC	_nk_filter_ascii
PUBLIC	_nk_filter_float
PUBLIC	_nk_filter_decimal
PUBLIC	_nk_filter_hex
PUBLIC	_nk_filter_oct
PUBLIC	_nk_filter_binary
PUBLIC	_nk_textedit_init_default
PUBLIC	_nk_textedit_init
PUBLIC	_nk_textedit_init_fixed
PUBLIC	_nk_textedit_free
PUBLIC	_nk_textedit_text
PUBLIC	_nk_textedit_delete
PUBLIC	_nk_textedit_delete_selection
PUBLIC	_nk_textedit_select_all
PUBLIC	_nk_textedit_cut
PUBLIC	_nk_textedit_paste
PUBLIC	_nk_textedit_undo
PUBLIC	_nk_textedit_redo
PUBLIC	_nk_stroke_line
PUBLIC	_nk_stroke_curve
PUBLIC	_nk_stroke_rect
PUBLIC	_nk_stroke_circle
PUBLIC	_nk_stroke_arc
PUBLIC	_nk_stroke_triangle
PUBLIC	_nk_stroke_polyline
PUBLIC	_nk_stroke_polygon
PUBLIC	_nk_fill_rect
PUBLIC	_nk_fill_rect_multi_color
PUBLIC	_nk_fill_circle
PUBLIC	_nk_fill_arc
PUBLIC	_nk_fill_triangle
PUBLIC	_nk_fill_polygon
PUBLIC	_nk_draw_image
PUBLIC	_nk_draw_text
PUBLIC	_nk_push_scissor
PUBLIC	_nk_push_custom
PUBLIC	_nk_input_has_mouse_click
PUBLIC	_nk_input_has_mouse_click_in_rect
PUBLIC	_nk_input_has_mouse_click_down_in_rect
PUBLIC	_nk_input_is_mouse_click_in_rect
PUBLIC	_nk_input_is_mouse_click_down_in_rect
PUBLIC	_nk_input_any_mouse_click_in_rect
PUBLIC	_nk_input_is_mouse_prev_hovering_rect
PUBLIC	_nk_input_is_mouse_hovering_rect
PUBLIC	_nk_input_mouse_clicked
PUBLIC	_nk_input_is_mouse_down
PUBLIC	_nk_input_is_mouse_pressed
PUBLIC	_nk_input_is_mouse_released
PUBLIC	_nk_input_is_key_pressed
PUBLIC	_nk_input_is_key_released
PUBLIC	_nk_input_is_key_down
PUBLIC	_nk_draw_list_init
PUBLIC	_nk_draw_list_setup
PUBLIC	_nk_draw_list_clear
PUBLIC	_nk__draw_list_begin
PUBLIC	_nk__draw_list_next
PUBLIC	_nk__draw_list_end
PUBLIC	_nk_draw_list_path_clear
PUBLIC	_nk_draw_list_path_line_to
PUBLIC	_nk_draw_list_path_arc_to_fast
PUBLIC	_nk_draw_list_path_arc_to
PUBLIC	_nk_draw_list_path_rect_to
PUBLIC	_nk_draw_list_path_curve_to
PUBLIC	_nk_draw_list_path_fill
PUBLIC	_nk_draw_list_path_stroke
PUBLIC	_nk_draw_list_stroke_line
PUBLIC	_nk_draw_list_stroke_rect
PUBLIC	_nk_draw_list_stroke_triangle
PUBLIC	_nk_draw_list_stroke_circle
PUBLIC	_nk_draw_list_stroke_curve
PUBLIC	_nk_draw_list_stroke_poly_line
PUBLIC	_nk_draw_list_fill_rect
PUBLIC	_nk_draw_list_fill_rect_multi_color
PUBLIC	_nk_draw_list_fill_triangle
PUBLIC	_nk_draw_list_fill_circle
PUBLIC	_nk_draw_list_fill_poly_convex
PUBLIC	_nk_draw_list_add_image
PUBLIC	_nk_draw_list_add_text
PUBLIC	_nk_style_item_image
PUBLIC	_nk_style_item_color
PUBLIC	_nk_style_item_hide
PUBLIC	_nk_sdl_init
PUBLIC	_nk_sdl_font_stash_begin
PUBLIC	_nk_sdl_font_stash_end
PUBLIC	_nk_sdl_handle_event
PUBLIC	_nk_sdl_render
PUBLIC	_nk_sdl_shutdown
PUBLIC	_nk_sdl_device_destroy
PUBLIC	_nk_sdl_device_create
PUBLIC	_WriteCFG
PUBLIC	_LoadCFG
PUBLIC	_ColorPicker
PUBLIC	_FileBrowser
PUBLIC	_NewMGGBox
PUBLIC	_MenuBar
PUBLIC	_SpriteListSelection
PUBLIC	_LeftPannel
PUBLIC	_Canvas
PUBLIC	_AnimBox
PUBLIC	?__LINE__Var@?1??nk_zero@@9@9@ddf8d5d8		; `nk_zero'::`2'::__LINE__Var
PUBLIC	??_C@_1GM@KFCELIHA@?$AAc?$AA?3?$AA?2?$AAu?$AAs?$AAe?$AAr?$AAs?$AA?2?$AAm?$AAa?$AAr?$AAc?$AAo?$AAs?$AA?2?$AAd?$AAe?$AAs?$AAk?$AAt?$AAo?$AAp?$AA?2?$AAp?$AAr?$AAj?$AA?2?$AAm?$AAg?$AAe?$AAa@ ; `string'
PUBLIC	??_C@_17GHAIJGMG@?$AAp?$AAt?$AAr?$AA?$AA@	; `string'
PUBLIC	?__LINE__Var@?1??nk_strlen@@9@9			; `nk_strlen'::`2'::__LINE__Var
PUBLIC	??_C@_17OJIHJBCF@?$AAs?$AAt?$AAr?$AA?$AA@	; `string'
PUBLIC	?__LINE__Var@?1??nk_strtoi@@9@9			; `nk_strtoi'::`2'::__LINE__Var
PUBLIC	?__LINE__Var@?1??nk_strtod@@9@9			; `nk_strtod'::`2'::__LINE__Var
PUBLIC	?__LINE__Var@?1??nk_stricmpn@@9@9		; `nk_stricmpn'::`2'::__LINE__Var
PUBLIC	??_C@_1O@OOEGIONJ@?$AAn?$AA?5?$AA?$DO?$AA?$DN?$AA?5?$AA0?$AA?$AA@ ; `string'
PUBLIC	?__LINE__Var@?1??nk_strmatch_fuzzy_text@@9@9	; `nk_strmatch_fuzzy_text'::`2'::__LINE__Var
PUBLIC	??_C@_1BA@GHEKA@?$AAp?$AAa?$AAt?$AAt?$AAe?$AAr?$AAn?$AA?$AA@ ; `string'
PUBLIC	?__LINE__Var@?1??nk_dtoa@@9@9@ddf8d5d8		; `nk_dtoa'::`2'::__LINE__Var
PUBLIC	??_C@_13KHDBCPJB@?$AAs?$AA?$AA@			; `string'
PUBLIC	?__LINE__Var@?1??nk_strfmt@@9@9@ddf8d5d8	; `nk_strfmt'::`2'::__LINE__Var
PUBLIC	??_C@_17ENLBLDPN@?$AAb?$AAu?$AAf?$AA?$AA@	; `string'
PUBLIC	??_C@_1BC@JBKPFABB@?$AAb?$AAu?$AAf?$AA_?$AAs?$AAi?$AAz?$AAe?$AA?$AA@ ; `string'
PUBLIC	?__LINE__Var@?1??nk_file_load@@9@9@ddf8d5d8	; `nk_file_load'::`2'::__LINE__Var
PUBLIC	??_C@_19JIFMCCAP@?$AAp?$AAa?$AAt?$AAh?$AA?$AA@	; `string'
PUBLIC	??_C@_17JDHLKIIP@?$AAs?$AAi?$AAz?$AA?$AA@	; `string'
PUBLIC	??_C@_1M@KLHDKNJP@?$AAa?$AAl?$AAl?$AAo?$AAc?$AA?$AA@ ; `string'
PUBLIC	??_C@_02JDPG@rb?$AA@				; `string'
PUBLIC	?__LINE__Var@?1??nk_image_ptr@@9@9		; `nk_image_ptr'::`2'::__LINE__Var
PUBLIC	?__LINE__Var@?1??nk_image_is_subimage@@9@9	; `nk_image_is_subimage'::`2'::__LINE__Var
PUBLIC	??_C@_17EHOCEIDI@?$AAi?$AAm?$AAg?$AA?$AA@	; `string'
PUBLIC	?__LINE__Var@?1??nk_unify@@9@9@ddf8d5d8		; `nk_unify'::`2'::__LINE__Var
PUBLIC	??_C@_13FNCBLAIF@?$AAa?$AA?$AA@			; `string'
PUBLIC	??_C@_19OFCFGDAA@?$AAc?$AAl?$AAi?$AAp?$AA?$AA@	; `string'
PUBLIC	?__LINE__Var@?1??nk_triangle_from_direction@@9@9 ; `nk_triangle_from_direction'::`2'::__LINE__Var
PUBLIC	??_C@_1O@PHBBLDEN@?$AAr?$AAe?$AAs?$AAu?$AAl?$AAt?$AA?$AA@ ; `string'
PUBLIC	?__LINE__Var@?1??nk_utf_validate@@9@9@ddf8d5d8	; `nk_utf_validate'::`2'::__LINE__Var
PUBLIC	??_C@_13ICFKHAEN@?$AAu?$AA?$AA@			; `string'
PUBLIC	?__LINE__Var@?1??nk_utf_decode_byte@@9@9@ddf8d5d8 ; `nk_utf_decode_byte'::`2'::__LINE__Var
PUBLIC	??_C@_13JIJFJIGK@?$AAi?$AA?$AA@			; `string'
PUBLIC	?__LINE__Var@?1??nk_utf_decode@@9@9		; `nk_utf_decode'::`2'::__LINE__Var
PUBLIC	??_C@_13PHCIHIAO@?$AAc?$AA?$AA@			; `string'
PUBLIC	?__LINE__Var@?1??nk_utf_len@@9@9		; `nk_utf_len'::`2'::__LINE__Var
PUBLIC	?__LINE__Var@?1??nk_utf_at@@9@9			; `nk_utf_at'::`2'::__LINE__Var
PUBLIC	??_C@_1O@KMGMBAKN@?$AAb?$AAu?$AAf?$AAf?$AAe?$AAr?$AA?$AA@ ; `string'
PUBLIC	??_C@_1BA@OIEABBIM@?$AAu?$AAn?$AAi?$AAc?$AAo?$AAd?$AAe?$AA?$AA@ ; `string'
PUBLIC	??_C@_17JOFJILLL@?$AAl?$AAe?$AAn?$AA?$AA@	; `string'
PUBLIC	?__LINE__Var@?1??nk_buffer_init@@9@9		; `nk_buffer_init'::`2'::__LINE__Var
PUBLIC	??_C@_13EPJEBPGL@?$AAb?$AA?$AA@			; `string'
PUBLIC	??_C@_1BK@GKDKIPLP@?$AAi?$AAn?$AAi?$AAt?$AAi?$AAa?$AAl?$AA_?$AAs?$AAi?$AAz?$AAe?$AA?$AA@ ; `string'
PUBLIC	?__LINE__Var@?1??nk_buffer_init_fixed@@9@9	; `nk_buffer_init_fixed'::`2'::__LINE__Var
PUBLIC	??_C@_13BHPHAPDN@?$AAm?$AA?$AA@			; `string'
PUBLIC	??_C@_19GIOODLBE@?$AAs?$AAi?$AAz?$AAe?$AA?$AA@	; `string'
PUBLIC	?__LINE__Var@?1??nk_buffer_realloc@@9@9@ddf8d5d8 ; `nk_buffer_realloc'::`2'::__LINE__Var
PUBLIC	??_C@_19KEIJKAKM@?$AAt?$AAe?$AAm?$AAp?$AA?$AA@	; `string'
PUBLIC	?__LINE__Var@?1??nk_buffer_alloc@@9@9@ddf8d5d8	; `nk_buffer_alloc'::`2'::__LINE__Var
PUBLIC	??_C@_1DM@LCGIFLOD@?$AAb?$AA?9?$AA?$DO?$AAp?$AAo?$AAo?$AAl?$AA?4?$AAa?$AAl?$AAl?$AAo?$AAc?$AA?5?$AA?$CG?$AA?$CG?$AA?5?$AAb?$AA?9?$AA?$DO?$AAp?$AAo?$AAo?$AAl?$AA?4?$AAf?$AAr?$AAe?$AAe?$AA?$AA@ ; `string'
PUBLIC	?__LINE__Var@?1??nk_buffer_mark@@9@9		; `nk_buffer_mark'::`2'::__LINE__Var
PUBLIC	?__LINE__Var@?1??nk_buffer_reset@@9@9		; `nk_buffer_reset'::`2'::__LINE__Var
PUBLIC	?__LINE__Var@?1??nk_buffer_clear@@9@9		; `nk_buffer_clear'::`2'::__LINE__Var
PUBLIC	?__LINE__Var@?1??nk_buffer_free@@9@9		; `nk_buffer_free'::`2'::__LINE__Var
PUBLIC	??_C@_1BK@HIMMPAND@?$AAb?$AA?9?$AA?$DO?$AAp?$AAo?$AAo?$AAl?$AA?4?$AAf?$AAr?$AAe?$AAe?$AA?$AA@ ; `string'
PUBLIC	?__LINE__Var@?1??nk_buffer_info@@9@9		; `nk_buffer_info'::`2'::__LINE__Var
PUBLIC	?__LINE__Var@?1??nk_buffer_memory@@9@9		; `nk_buffer_memory'::`2'::__LINE__Var
PUBLIC	?__LINE__Var@?1??nk_buffer_memory_const@@9@9	; `nk_buffer_memory_const'::`2'::__LINE__Var
PUBLIC	?__LINE__Var@?1??nk_buffer_total@@9@9		; `nk_buffer_total'::`2'::__LINE__Var
PUBLIC	?__LINE__Var@?1??nk_str_append_text_char@@9@9	; `nk_str_append_text_char'::`2'::__LINE__Var
PUBLIC	?__LINE__Var@?1??nk_str_append_text_runes@@9@9	; `nk_str_append_text_runes'::`2'::__LINE__Var
PUBLIC	?__LINE__Var@?1??nk_str_append_str_runes@@9@9	; `nk_str_append_str_runes'::`2'::__LINE__Var
PUBLIC	?__LINE__Var@?1??nk_str_insert_at_char@@9@9	; `nk_str_insert_at_char'::`2'::__LINE__Var
PUBLIC	??_C@_1BC@OAMMNJJI@?$AAl?$AAe?$AAn?$AA?5?$AA?$DO?$AA?$DN?$AA?5?$AA0?$AA?$AA@ ; `string'
PUBLIC	??_C@_1GA@LCICMOEC@?$AA?$CI?$AA?$CI?$AAi?$AAn?$AAt?$AA?$CJ?$AAp?$AAo?$AAs?$AA?5?$AA?$CL?$AA?5?$AA?$CI?$AAi?$AAn?$AAt?$AA?$CJ?$AAl?$AAe?$AAn?$AA?5?$AA?$CL?$AA?5?$AA?$CI?$AA?$CI?$AAi?$AAn?$AAt?$AA?$CJ?$AAc?$AAo?$AAp@ ; `string'
PUBLIC	??_C@_1EK@BAOJCPPG@?$AA?$CI?$AA?$CI?$AAi?$AAn?$AAt?$AA?$CJ?$AAp?$AAo?$AAs?$AA?5?$AA?$CL?$AA?5?$AA?$CI?$AA?$CI?$AAi?$AAn?$AAt?$AA?$CJ?$AAc?$AAo?$AAp?$AAy?$AAl?$AAe?$AAn?$AA?5?$AA?9?$AA?5?$AA1?$AA?$CJ?$AA?$CJ?$AA?5@ ; `string'
PUBLIC	?__LINE__Var@?1??nk_str_insert_at_rune@@9@9	; `nk_str_insert_at_rune'::`2'::__LINE__Var
PUBLIC	??_C@_19FFPPJJEJ@?$AAc?$AAs?$AAt?$AAr?$AA?$AA@	; `string'
PUBLIC	?__LINE__Var@?1??nk_str_insert_text_utf8@@9@9	; `nk_str_insert_text_utf8'::`2'::__LINE__Var
PUBLIC	??_C@_19HIPAKEND@?$AAt?$AAe?$AAx?$AAt?$AA?$AA@	; `string'
PUBLIC	?__LINE__Var@?1??nk_str_insert_text_runes@@9@9	; `nk_str_insert_text_runes'::`2'::__LINE__Var
PUBLIC	?__LINE__Var@?1??nk_str_insert_str_runes@@9@9	; `nk_str_insert_str_runes'::`2'::__LINE__Var
PUBLIC	?__LINE__Var@?1??nk_str_remove_chars@@9@9	; `nk_str_remove_chars'::`2'::__LINE__Var
PUBLIC	??_C@_1FG@GHGMCHAP@?$AA?$CI?$AA?$CI?$AAi?$AAn?$AAt?$AA?$CJ?$AAs?$AA?9?$AA?$DO?$AAb?$AAu?$AAf?$AAf?$AAe?$AAr?$AA?4?$AAa?$AAl?$AAl?$AAo?$AAc?$AAa?$AAt?$AAe?$AAd?$AA?5?$AA?9?$AA?5?$AA?$CI?$AAi?$AAn?$AAt@ ; `string'
PUBLIC	?__LINE__Var@?1??nk_str_remove_runes@@9@9	; `nk_str_remove_runes'::`2'::__LINE__Var
PUBLIC	?__LINE__Var@?1??nk_str_delete_chars@@9@9	; `nk_str_delete_chars'::`2'::__LINE__Var
PUBLIC	?__LINE__Var@?1??nk_str_delete_runes@@9@9	; `nk_str_delete_runes'::`2'::__LINE__Var
PUBLIC	??_C@_1CI@LFGHEBFL@?$AAs?$AA?9?$AA?$DO?$AAl?$AAe?$AAn?$AA?5?$AA?$DO?$AA?$DN?$AA?5?$AAp?$AAo?$AAs?$AA?5?$AA?$CL?$AA?5?$AAl?$AAe?$AAn?$AA?$AA@ ; `string'
PUBLIC	?__LINE__Var@?1??nk_str_at_char@@9@9		; `nk_str_at_char'::`2'::__LINE__Var
PUBLIC	?__LINE__Var@?1??nk_str_at_rune@@9@9		; `nk_str_at_rune'::`2'::__LINE__Var
PUBLIC	?__LINE__Var@?1??nk_str_at_char_const@@9@9	; `nk_str_at_char_const'::`2'::__LINE__Var
PUBLIC	?__LINE__Var@?1??nk_str_at_const@@9@9		; `nk_str_at_const'::`2'::__LINE__Var
PUBLIC	?__LINE__Var@?1??nk_str_get@@9@9		; `nk_str_get'::`2'::__LINE__Var
PUBLIC	?__LINE__Var@?1??nk_str_get_const@@9@9		; `nk_str_get_const'::`2'::__LINE__Var
PUBLIC	?__LINE__Var@?1??nk_str_len@@9@9		; `nk_str_len'::`2'::__LINE__Var
PUBLIC	?__LINE__Var@?1??nk_str_len_char@@9@9		; `nk_str_len_char'::`2'::__LINE__Var
PUBLIC	?__LINE__Var@?1??nk_str_clear@@9@9		; `nk_str_clear'::`2'::__LINE__Var
PUBLIC	?__LINE__Var@?1??nk_str_free@@9@9		; `nk_str_free'::`2'::__LINE__Var
PUBLIC	?__LINE__Var@?1??nk_command_buffer_init@@9@9@ddf8d5d8 ; `nk_command_buffer_init'::`2'::__LINE__Var
PUBLIC	??_C@_1O@GHGFHGEN@?$AAc?$AAm?$AAd?$AAb?$AAu?$AAf?$AA?$AA@ ; `string'
PUBLIC	?__LINE__Var@?1??nk_command_buffer_reset@@9@9@ddf8d5d8 ; `nk_command_buffer_reset'::`2'::__LINE__Var
PUBLIC	?__LINE__Var@?1??nk_command_buffer_push@@9@9@ddf8d5d8 ; `nk_command_buffer_push'::`2'::__LINE__Var
PUBLIC	??_C@_1BA@GCDOPNOB@?$AAb?$AA?9?$AA?$DO?$AAb?$AAa?$AAs?$AAe?$AA?$AA@ ; `string'
PUBLIC	?__LINE__Var@?1??nk_push_scissor@@9@9		; `nk_push_scissor'::`2'::__LINE__Var
PUBLIC	?__LINE__Var@?1??nk_stroke_line@@9@9		; `nk_stroke_line'::`2'::__LINE__Var
PUBLIC	?__LINE__Var@?1??nk_stroke_curve@@9@9		; `nk_stroke_curve'::`2'::__LINE__Var
PUBLIC	?__LINE__Var@?1??nk_stroke_rect@@9@9		; `nk_stroke_rect'::`2'::__LINE__Var
PUBLIC	?__LINE__Var@?1??nk_fill_rect@@9@9		; `nk_fill_rect'::`2'::__LINE__Var
PUBLIC	?__LINE__Var@?1??nk_fill_rect_multi_color@@9@9	; `nk_fill_rect_multi_color'::`2'::__LINE__Var
PUBLIC	?__LINE__Var@?1??nk_fill_circle@@9@9		; `nk_fill_circle'::`2'::__LINE__Var
PUBLIC	?__LINE__Var@?1??nk_fill_arc@@9@9		; `nk_fill_arc'::`2'::__LINE__Var
PUBLIC	?__LINE__Var@?1??nk_stroke_triangle@@9@9	; `nk_stroke_triangle'::`2'::__LINE__Var
PUBLIC	?__LINE__Var@?1??nk_fill_triangle@@9@9		; `nk_fill_triangle'::`2'::__LINE__Var
PUBLIC	?__LINE__Var@?1??nk_stroke_polygon@@9@9		; `nk_stroke_polygon'::`2'::__LINE__Var
PUBLIC	?__LINE__Var@?1??nk_fill_polygon@@9@9		; `nk_fill_polygon'::`2'::__LINE__Var
PUBLIC	?__LINE__Var@?1??nk_stroke_polyline@@9@9	; `nk_stroke_polyline'::`2'::__LINE__Var
PUBLIC	?__LINE__Var@?1??nk_draw_image@@9@9		; `nk_draw_image'::`2'::__LINE__Var
PUBLIC	?__LINE__Var@?1??nk_push_custom@@9@9		; `nk_push_custom'::`2'::__LINE__Var
PUBLIC	?__LINE__Var@?1??nk_draw_text@@9@9		; `nk_draw_text'::`2'::__LINE__Var
PUBLIC	??_C@_19BPOEAIEI@?$AAf?$AAo?$AAn?$AAt?$AA?$AA@	; `string'
PUBLIC	?__LINE__Var@?1??nk_draw_list_init@@9@9		; `nk_draw_list_init'::`2'::__LINE__Var
PUBLIC	??_C@_19HBOBIAED@?$AAl?$AAi?$AAs?$AAt?$AA?$AA@	; `string'
PUBLIC	?__LINE__Var@?1??nk_draw_list_setup@@9@9	; `nk_draw_list_setup'::`2'::__LINE__Var
PUBLIC	??_C@_1O@HCDMHDPE@?$AAc?$AAa?$AAn?$AAv?$AAa?$AAs?$AA?$AA@ ; `string'
PUBLIC	??_C@_1O@NEJONDGE@?$AAc?$AAo?$AAn?$AAf?$AAi?$AAg?$AA?$AA@ ; `string'
PUBLIC	??_C@_19IHKENPKO@?$AAc?$AAm?$AAd?$AAs?$AA?$AA@	; `string'
PUBLIC	??_C@_1BC@GCIAJMPE@?$AAv?$AAe?$AAr?$AAt?$AAi?$AAc?$AAe?$AAs?$AA?$AA@ ; `string'
PUBLIC	??_C@_1BC@KAKDHGPA@?$AAe?$AAl?$AAe?$AAm?$AAe?$AAn?$AAt?$AAs?$AA?$AA@ ; `string'
PUBLIC	?__LINE__Var@?1??nk__draw_list_begin@@9@9	; `nk__draw_list_begin'::`2'::__LINE__Var
PUBLIC	?__LINE__Var@?1??nk__draw_list_end@@9@9		; `nk__draw_list_end'::`2'::__LINE__Var
PUBLIC	?__LINE__Var@?1??nk__draw_list_next@@9@9	; `nk__draw_list_next'::`2'::__LINE__Var
PUBLIC	?__LINE__Var@?1??nk_draw_list_clear@@9@9	; `nk_draw_list_clear'::`2'::__LINE__Var
PUBLIC	?__LINE__Var@?1??nk_draw_list_path_last@@9@9@ddf8d5d8 ; `nk_draw_list_path_last'::`2'::__LINE__Var
PUBLIC	??_C@_1CC@DJNGHHKD@?$AAl?$AAi?$AAs?$AAt?$AA?9?$AA?$DO?$AAp?$AAa?$AAt?$AAh?$AA_?$AAc?$AAo?$AAu?$AAn?$AAt?$AA?$AA@ ; `string'
PUBLIC	?__LINE__Var@?1??nk_draw_list_push_command@@9@9@ddf8d5d8 ; `nk_draw_list_push_command'::`2'::__LINE__Var
PUBLIC	?__LINE__Var@?1??nk_draw_list_command_last@@9@9@ddf8d5d8 ; `nk_draw_list_command_last'::`2'::__LINE__Var
PUBLIC	??_C@_1CA@CEAIAHJE@?$AAl?$AAi?$AAs?$AAt?$AA?9?$AA?$DO?$AAc?$AAm?$AAd?$AA_?$AAc?$AAo?$AAu?$AAn?$AAt?$AA?$AA@ ; `string'
PUBLIC	?__LINE__Var@?1??nk_draw_list_add_clip@@9@9@ddf8d5d8 ; `nk_draw_list_add_clip'::`2'::__LINE__Var
PUBLIC	?__LINE__Var@?1??nk_draw_list_push_image@@9@9@ddf8d5d8 ; `nk_draw_list_push_image'::`2'::__LINE__Var
PUBLIC	?__LINE__Var@?1??nk_draw_list_alloc_vertices@@9@9@ddf8d5d8 ; `nk_draw_list_alloc_vertices'::`2'::__LINE__Var
PUBLIC	?__LINE__Var@?1??nk_draw_list_alloc_elements@@9@9@ddf8d5d8 ; `nk_draw_list_alloc_elements'::`2'::__LINE__Var
PUBLIC	?__LINE__Var@?1??nk_draw_vertex_color@@9@9@ddf8d5d8 ; `nk_draw_vertex_color'::`2'::__LINE__Var
PUBLIC	??_C@_1EA@OIHMHNMA@?$AAf?$AAo?$AAr?$AAm?$AAa?$AAt?$AA?5?$AA?$DO?$AA?$DN?$AA?5?$AAN?$AAK?$AA_?$AAF?$AAO?$AAR?$AAM?$AAA?$AAT?$AA_?$AAC?$AAO?$AAL?$AAO?$AAR?$AA_?$AAB?$AAE?$AAG?$AAI?$AAN?$AA?$AA@ ; `string'
PUBLIC	??_C@_1DM@GJOAEAIH@?$AAf?$AAo?$AAr?$AAm?$AAa?$AAt?$AA?5?$AA?$DM?$AA?$DN?$AA?5?$AAN?$AAK?$AA_?$AAF?$AAO?$AAR?$AAM?$AAA?$AAT?$AA_?$AAC?$AAO?$AAL?$AAO?$AAR?$AA_?$AAE?$AAN?$AAD?$AA?$AA@ ; `string'
PUBLIC	??_C@_1FE@DPEENCO@?$AA0?$AA?5?$AA?$CG?$AA?$CG?$AA?5?$AA?$CC?$AAI?$AAn?$AAv?$AAa?$AAl?$AAi?$AAd?$AA?5?$AAv?$AAe?$AAr?$AAt?$AAe?$AAx?$AA?5?$AAl?$AAa?$AAy?$AAo?$AAu?$AAt?$AA?5?$AAc?$AAo?$AAl?$AAo@ ; `string'
PUBLIC	?__LINE__Var@?1??nk_draw_vertex_element@@9@9@ddf8d5d8 ; `nk_draw_vertex_element'::`2'::__LINE__Var
PUBLIC	??_C@_1DO@BBEFODIH@?$AAf?$AAo?$AAr?$AAm?$AAa?$AAt?$AA?5?$AA?$DM?$AA?5?$AAN?$AAK?$AA_?$AAF?$AAO?$AAR?$AAM?$AAA?$AAT?$AA_?$AAC?$AAO?$AAL?$AAO?$AAR?$AA_?$AAB?$AAE?$AAG?$AAI?$AAN?$AA?$AA@ ; `string'
PUBLIC	??_C@_1EI@PCEGCBPN@?$AA0?$AA?5?$AA?$CG?$AA?$CG?$AA?5?$AA?$CC?$AAi?$AAn?$AAv?$AAa?$AAl?$AAi?$AAd?$AA?5?$AAv?$AAe?$AAr?$AAt?$AAe?$AAx?$AA?5?$AAl?$AAa?$AAy?$AAo?$AAu?$AAt?$AA?5?$AAf?$AAo?$AAr?$AAm@ ; `string'
PUBLIC	?__LINE__Var@?1??nk_draw_vertex@@9@9@ddf8d5d8	; `nk_draw_vertex'::`2'::__LINE__Var
PUBLIC	??_C@_1DO@JEEJBCGK@?$AA0?$AA?5?$AA?$CG?$AA?$CG?$AA?5?$AA?$CC?$AAw?$AAr?$AAo?$AAn?$AAg?$AA?5?$AAe?$AAl?$AAe?$AAm?$AAe?$AAn?$AAt?$AA?5?$AAa?$AAt?$AAt?$AAr?$AAi?$AAb?$AAu?$AAt?$AAe?$AA?$CC?$AA?$AA@ ; `string'
PUBLIC	?__LINE__Var@?1??nk_draw_list_stroke_poly_line@@9@9 ; `nk_draw_list_stroke_poly_line'::`2'::__LINE__Var
PUBLIC	??_C@_1BA@CGFLAEIE@?$AAn?$AAo?$AAr?$AAm?$AAa?$AAl?$AAs?$AA?$AA@ ; `string'
PUBLIC	?__LINE__Var@?1??nk_draw_list_fill_poly_convex@@9@9 ; `nk_draw_list_fill_poly_convex'::`2'::__LINE__Var
PUBLIC	?__LINE__Var@?1??nk_draw_list_path_clear@@9@9	; `nk_draw_list_path_clear'::`2'::__LINE__Var
PUBLIC	?__LINE__Var@?1??nk_draw_list_path_line_to@@9@9	; `nk_draw_list_path_line_to'::`2'::__LINE__Var
PUBLIC	?__LINE__Var@?1??nk_draw_list_path_arc_to_fast@@9@9 ; `nk_draw_list_path_arc_to_fast'::`2'::__LINE__Var
PUBLIC	?__LINE__Var@?1??nk_draw_list_path_arc_to@@9@9	; `nk_draw_list_path_arc_to'::`2'::__LINE__Var
PUBLIC	?__LINE__Var@?1??nk_draw_list_path_rect_to@@9@9	; `nk_draw_list_path_rect_to'::`2'::__LINE__Var
PUBLIC	?__LINE__Var@?1??nk_draw_list_path_curve_to@@9@9 ; `nk_draw_list_path_curve_to'::`2'::__LINE__Var
PUBLIC	?__LINE__Var@?1??nk_draw_list_path_fill@@9@9	; `nk_draw_list_path_fill'::`2'::__LINE__Var
PUBLIC	?__LINE__Var@?1??nk_draw_list_path_stroke@@9@9	; `nk_draw_list_path_stroke'::`2'::__LINE__Var
PUBLIC	?__LINE__Var@?1??nk_draw_list_stroke_line@@9@9	; `nk_draw_list_stroke_line'::`2'::__LINE__Var
PUBLIC	?__LINE__Var@?1??nk_draw_list_fill_rect@@9@9	; `nk_draw_list_fill_rect'::`2'::__LINE__Var
PUBLIC	?__LINE__Var@?1??nk_draw_list_stroke_rect@@9@9	; `nk_draw_list_stroke_rect'::`2'::__LINE__Var
PUBLIC	?__LINE__Var@?1??nk_draw_list_fill_rect_multi_color@@9@9 ; `nk_draw_list_fill_rect_multi_color'::`2'::__LINE__Var
PUBLIC	?__LINE__Var@?1??nk_draw_list_fill_triangle@@9@9 ; `nk_draw_list_fill_triangle'::`2'::__LINE__Var
PUBLIC	?__LINE__Var@?1??nk_draw_list_stroke_triangle@@9@9 ; `nk_draw_list_stroke_triangle'::`2'::__LINE__Var
PUBLIC	?__LINE__Var@?1??nk_draw_list_fill_circle@@9@9	; `nk_draw_list_fill_circle'::`2'::__LINE__Var
PUBLIC	?__LINE__Var@?1??nk_draw_list_stroke_circle@@9@9 ; `nk_draw_list_stroke_circle'::`2'::__LINE__Var
PUBLIC	?__LINE__Var@?1??nk_draw_list_stroke_curve@@9@9	; `nk_draw_list_stroke_curve'::`2'::__LINE__Var
PUBLIC	?__LINE__Var@?1??nk_draw_list_push_rect_uv@@9@9@ddf8d5d8 ; `nk_draw_list_push_rect_uv'::`2'::__LINE__Var
PUBLIC	?__LINE__Var@?1??nk_draw_list_add_image@@9@9	; `nk_draw_list_add_image'::`2'::__LINE__Var
PUBLIC	?__LINE__Var@?1??nk_draw_list_add_text@@9@9	; `nk_draw_list_add_text'::`2'::__LINE__Var
PUBLIC	?__LINE__Var@?1??nk_convert@@9@9		; `nk_convert'::`2'::__LINE__Var
PUBLIC	??_C@_17PKIBEAGK@?$AAc?$AAt?$AAx?$AA?$AA@	; `string'
PUBLIC	??_C@_1CM@DMOLPMEO@?$AAc?$AAo?$AAn?$AAf?$AAi?$AAg?$AA?9?$AA?$DO?$AAv?$AAe?$AAr?$AAt?$AAe?$AAx?$AA_?$AAl?$AAa?$AAy?$AAo?$AAu?$AAt?$AA?$AA@ ; `string'
PUBLIC	??_C@_1CI@EPGEFOHG@?$AAc?$AAo?$AAn?$AAf?$AAi?$AAg?$AA?9?$AA?$DO?$AAv?$AAe?$AAr?$AAt?$AAe?$AAx?$AA_?$AAs?$AAi?$AAz?$AAe?$AA?$AA@ ; `string'
PUBLIC	?__LINE__Var@?1??nk_rp_init_target@@9@9@ddf8d5d8 ; `nk_rp_init_target'::`2'::__LINE__Var
PUBLIC	??_C@_1EI@NNJKMECF@?$AAw?$AAi?$AAd?$AAt?$AAh?$AA?5?$AA?$DM?$AA?$DN?$AA?5?$AA0?$AAx?$AAf?$AAf?$AAf?$AAf?$AA?5?$AA?$CG?$AA?$CG?$AA?5?$AAh?$AAe?$AAi?$AAg?$AAh?$AAt?$AA?5?$AA?$DM?$AA?$DN?$AA?5?$AA0?$AAx?$AAf@ ; `string'
PUBLIC	?__LINE__Var@?1??nk_rp__skyline_find_min_y@@9@9@ddf8d5d8 ; `nk_rp__skyline_find_min_y'::`2'::__LINE__Var
PUBLIC	??_C@_1BO@KBODBKOH@?$AAf?$AAi?$AAr?$AAs?$AAt?$AA?9?$AA?$DO?$AAx?$AA?5?$AA?$DM?$AA?$DN?$AA?5?$AAx?$AA0?$AA?$AA@ ; `string'
PUBLIC	??_C@_1CG@BDIGDJGP@?$AAn?$AAo?$AAd?$AAe?$AA?9?$AA?$DO?$AAn?$AAe?$AAx?$AAt?$AA?9?$AA?$DO?$AAx?$AA?5?$AA?$DO?$AA?5?$AAx?$AA0?$AA?$AA@ ; `string'
PUBLIC	??_C@_1BM@JHJLEEND@?$AAn?$AAo?$AAd?$AAe?$AA?9?$AA?$DO?$AAx?$AA?5?$AA?$DM?$AA?$DN?$AA?5?$AAx?$AA0?$AA?$AA@ ; `string'
PUBLIC	?__LINE__Var@?1??nk_rp__skyline_find_best_pos@@9@9@ddf8d5d8 ; `nk_rp__skyline_find_best_pos'::`2'::__LINE__Var
PUBLIC	??_C@_1CM@LEHAODMI@?$AAw?$AAi?$AAd?$AAt?$AAh?$AA?5?$AA?$CF?$AA?5?$AAc?$AA?9?$AA?$DO?$AAa?$AAl?$AAi?$AAg?$AAn?$AA?5?$AA?$DN?$AA?$DN?$AA?5?$AA0?$AA?$AA@ ; `string'
PUBLIC	??_C@_1BE@MNLKNDNL@?$AAx?$AAp?$AAo?$AAs?$AA?5?$AA?$DO?$AA?$DN?$AA?5?$AA0?$AA?$AA@ ; `string'
PUBLIC	??_C@_1FA@GPDJEJHP@?$AAn?$AAo?$AAd?$AAe?$AA?9?$AA?$DO?$AAn?$AAe?$AAx?$AAt?$AA?9?$AA?$DO?$AAx?$AA?5?$AA?$DO?$AA?5?$AAx?$AAp?$AAo?$AAs?$AA?5?$AA?$CG?$AA?$CG?$AA?5?$AAn?$AAo?$AAd?$AAe?$AA?9?$AA?$DO?$AAx?$AA?5@ ; `string'
PUBLIC	??_C@_1BI@JNFMLHFF@?$AAy?$AA?5?$AA?$DM?$AA?$DN?$AA?5?$AAb?$AAe?$AAs?$AAt?$AA_?$AAy?$AA?$AA@ ; `string'
PUBLIC	??_C@_04EICJPCEA@cmap?$AA@			; `string'
PUBLIC	??_C@_04DACNFKGE@loca?$AA@			; `string'
PUBLIC	??_C@_04NEODDMOL@head?$AA@			; `string'
PUBLIC	??_C@_04LLIHEPK@glyf?$AA@			; `string'
PUBLIC	??_C@_04FMPHLIKP@hhea?$AA@			; `string'
PUBLIC	??_C@_04ONMNCIMC@hmtx?$AA@			; `string'
PUBLIC	??_C@_04HHMMLDJI@kern?$AA@			; `string'
PUBLIC	??_C@_04KODIGLGG@maxp?$AA@			; `string'
PUBLIC	?__LINE__Var@?1??nk_tt_FindGlyphIndex@@9@9@ddf8d5d8 ; `nk_tt_FindGlyphIndex'::`2'::__LINE__Var
PUBLIC	??_C@_13COJANIEC@?$AA0?$AA?$AA@			; `string'
PUBLIC	??_C@_1HG@DLDBBFCO@?$AAu?$AAn?$AAi?$AAc?$AAo?$AAd?$AAe?$AA_?$AAc?$AAo?$AAd?$AAe?$AAp?$AAo?$AAi?$AAn?$AAt?$AA?5?$AA?$DM?$AA?$DN?$AA?5?$AAn?$AAk?$AA_?$AAt?$AAt?$AAU?$AAS?$AAH?$AAO?$AAR?$AAT@ ; `string'
PUBLIC	?__LINE__Var@?1??nk_tt_GetGlyphShape@@9@9@ddf8d5d8 ; `nk_tt_GetGlyphShape'::`2'::__LINE__Var
PUBLIC	?__LINE__Var@?1??nk_tt__handle_clipped_edge@@9@9@ddf8d5d8 ; `nk_tt__handle_clipped_edge'::`2'::__LINE__Var
PUBLIC	??_C@_1BA@ENLNFFAM@?$AAy?$AA0?$AA?5?$AA?$DM?$AA?5?$AAy?$AA1?$AA?$AA@ ; `string'
PUBLIC	??_C@_1BO@JGPMADBG@?$AAe?$AA?9?$AA?$DO?$AAs?$AAy?$AA?5?$AA?$DM?$AA?$DN?$AA?5?$AAe?$AA?9?$AA?$DO?$AAe?$AAy?$AA?$AA@ ; `string'
PUBLIC	??_C@_1BE@DHAKMBPL@?$AAx?$AA1?$AA?5?$AA?$DM?$AA?$DN?$AA?5?$AAx?$AA?$CL?$AA1?$AA?$AA@ ; `string'
PUBLIC	??_C@_1BA@FAAMJPKE@?$AAx?$AA1?$AA?5?$AA?$DO?$AA?$DN?$AA?5?$AAx?$AA?$AA@ ; `string'
PUBLIC	??_C@_1BA@FEPJEPJJ@?$AAx?$AA1?$AA?5?$AA?$DM?$AA?$DN?$AA?5?$AAx?$AA?$AA@ ; `string'
PUBLIC	??_C@_1BE@NGGEAFFG@?$AAx?$AA1?$AA?5?$AA?$DO?$AA?$DN?$AA?5?$AAx?$AA?$CL?$AA1?$AA?$AA@ ; `string'
PUBLIC	??_C@_1CK@NILBPPPH@?$AAx?$AA1?$AA?5?$AA?$DO?$AA?$DN?$AA?5?$AAx?$AA?5?$AA?$CG?$AA?$CG?$AA?5?$AAx?$AA1?$AA?5?$AA?$DM?$AA?$DN?$AA?5?$AAx?$AA?$CL?$AA1?$AA?$AA@ ; `string'
PUBLIC	??_C@_1FK@JPMIPNJF@?$AAx?$AA0?$AA?5?$AA?$DO?$AA?$DN?$AA?5?$AAx?$AA?5?$AA?$CG?$AA?$CG?$AA?5?$AAx?$AA0?$AA?5?$AA?$DM?$AA?$DN?$AA?5?$AAx?$AA?$CL?$AA1?$AA?5?$AA?$CG?$AA?$CG?$AA?5?$AAx?$AA1?$AA?5?$AA?$DO?$AA?$DN?$AA?5?$AAx?$AA?5@ ; `string'
PUBLIC	?__LINE__Var@?1??nk_tt__fill_active_edges_new@@9@9@ddf8d5d8 ; `nk_tt__fill_active_edges_new'::`2'::__LINE__Var
PUBLIC	??_C@_1BO@MDBOACOJ@?$AAe?$AA?9?$AA?$DO?$AAe?$AAy?$AA?5?$AA?$DO?$AA?$DN?$AA?5?$AAy?$AA_?$AAt?$AAo?$AAp?$AA?$AA@ ; `string'
PUBLIC	??_C@_1EI@KOIFPDFH@?$AAe?$AA?9?$AA?$DO?$AAs?$AAy?$AA?5?$AA?$DM?$AA?$DN?$AA?5?$AAy?$AA_?$AAb?$AAo?$AAt?$AAt?$AAo?$AAm?$AA?5?$AA?$CG?$AA?$CG?$AA?5?$AAe?$AA?9?$AA?$DO?$AAe?$AAy?$AA?5?$AA?$DO?$AA?$DN?$AA?5?$AAy?$AA_@ ; `string'
PUBLIC	??_C@_1CE@GDDDMDCC@?$AAx?$AA?5?$AA?$DO?$AA?$DN?$AA?5?$AA0?$AA?5?$AA?$CG?$AA?$CG?$AA?5?$AAx?$AA?5?$AA?$DM?$AA?5?$AAl?$AAe?$AAn?$AA?$AA@ ; `string'
PUBLIC	?__LINE__Var@?1??nk_tt__rasterize_sorted_edges@@9@9@ddf8d5d8 ; `nk_tt__rasterize_sorted_edges'::`2'::__LINE__Var
PUBLIC	??_C@_1BK@LMAHJHLI@?$AAz?$AA?9?$AA?$DO?$AAd?$AAi?$AAr?$AAe?$AAc?$AAt?$AAi?$AAo?$AAn?$AA?$AA@ ; `string'
PUBLIC	??_C@_1CI@PMJHELI@?$AAz?$AA?9?$AA?$DO?$AAe?$AAy?$AA?5?$AA?$DO?$AA?$DN?$AA?5?$AAs?$AAc?$AAa?$AAn?$AA_?$AAy?$AA_?$AAt?$AAo?$AAp?$AA?$AA@ ; `string'
PUBLIC	?__LINE__Var@?1??nk_tt_Rasterize@@9@9@ddf8d5d8	; `nk_tt_Rasterize'::`2'::__LINE__Var
PUBLIC	?__LINE__Var@?1??nk_tt_PackSetOversampling@@9@9@ddf8d5d8 ; `nk_tt_PackSetOversampling'::`2'::__LINE__Var
PUBLIC	??_C@_1CE@OKIIJOOA@?$AAh?$AA_?$AAo?$AAv?$AAe?$AAr?$AAs?$AAa?$AAm?$AAp?$AAl?$AAe?$AA?5?$AA?$DM?$AA?$DN?$AA?5?$AA8?$AA?$AA@ ; `string'
PUBLIC	??_C@_1CE@LCKJLKGO@?$AAv?$AA_?$AAo?$AAv?$AAe?$AAr?$AAs?$AAa?$AAm?$AAp?$AAl?$AAe?$AA?5?$AA?$DM?$AA?$DN?$AA?5?$AA8?$AA?$AA@ ; `string'
PUBLIC	?__LINE__Var@?1??nk_tt__h_prefilter@@9@9@ddf8d5d8 ; `nk_tt__h_prefilter'::`2'::__LINE__Var
PUBLIC	??_C@_1BO@BDJAMAMF@?$AAp?$AAi?$AAx?$AAe?$AAl?$AAs?$AA?$FL?$AAi?$AA?$FN?$AA?5?$AA?$DN?$AA?$DN?$AA?5?$AA0?$AA?$AA@ ; `string'
PUBLIC	?__LINE__Var@?1??nk_tt__v_prefilter@@9@9@ddf8d5d8 ; `nk_tt__v_prefilter'::`2'::__LINE__Var
PUBLIC	??_C@_1DO@LAPBLJ@?$AAp?$AAi?$AAx?$AAe?$AAl?$AAs?$AA?$FL?$AAi?$AA?$CK?$AAs?$AAt?$AAr?$AAi?$AAd?$AAe?$AA_?$AAi?$AAn?$AA_?$AAb?$AAy?$AAt?$AAe?$AAs?$AA?$FN?$AA?5?$AA?$DN?$AA?$DN?$AA?5?$AA0?$AA?$AA@ ; `string'
PUBLIC	?__LINE__Var@?1??nk_range_count@@9@9@ddf8d5d8	; `nk_range_count'::`2'::__LINE__Var
PUBLIC	??_C@_1M@KOBGMDOP@?$AAr?$AAa?$AAn?$AAg?$AAe?$AA?$AA@ ; `string'
PUBLIC	?__LINE__Var@?1??nk_range_glyph_count@@9@9@ddf8d5d8 ; `nk_range_glyph_count'::`2'::__LINE__Var
PUBLIC	??_C@_1O@LEKFDIFA@?$AAt?$AA?5?$AA?$DO?$AA?$DN?$AA?5?$AAf?$AA?$AA@ ; `string'
PUBLIC	?__LINE__Var@?1??nk_font_baker_memory@@9@9@ddf8d5d8 ; `nk_font_baker_memory'::`2'::__LINE__Var
PUBLIC	??_C@_1BI@LDHLIKNE@?$AAc?$AAo?$AAn?$AAf?$AAi?$AAg?$AA_?$AAl?$AAi?$AAs?$AAt?$AA?$AA@ ; `string'
PUBLIC	??_C@_1BI@JKPHGKFE@?$AAg?$AAl?$AAy?$AAp?$AAh?$AA_?$AAc?$AAo?$AAu?$AAn?$AAt?$AA?$AA@ ; `string'
PUBLIC	?__LINE__Var@?1??nk_font_bake_pack@@9@9@ddf8d5d8 ; `nk_font_bake_pack'::`2'::__LINE__Var
PUBLIC	??_C@_1BK@GDOOMBLP@?$AAi?$AAm?$AAa?$AAg?$AAe?$AA_?$AAm?$AAe?$AAm?$AAo?$AAr?$AAy?$AA?$AA@ ; `string'
PUBLIC	??_C@_1M@MDIKEACL@?$AAw?$AAi?$AAd?$AAt?$AAh?$AA?$AA@ ; `string'
PUBLIC	??_C@_1O@NGBHDANL@?$AAh?$AAe?$AAi?$AAg?$AAh?$AAt?$AA?$AA@ ; `string'
PUBLIC	??_C@_1M@MJBJBOIA@?$AAc?$AAo?$AAu?$AAn?$AAt?$AA?$AA@ ; `string'
PUBLIC	??_C@_1DI@IJAOEFPO@?$AAr?$AAe?$AAc?$AAt?$AA_?$AAn?$AA?5?$AA?$DN?$AA?$DN?$AA?5?$AAt?$AAo?$AAt?$AAa?$AAl?$AA_?$AAg?$AAl?$AAy?$AAp?$AAh?$AA_?$AAc?$AAo?$AAu?$AAn?$AAt?$AA?$AA@ ; `string'
PUBLIC	??_C@_1DI@OBHIIPHI@?$AAc?$AAh?$AAa?$AAr?$AA_?$AAn?$AA?5?$AA?$DN?$AA?$DN?$AA?5?$AAt?$AAo?$AAt?$AAa?$AAl?$AA_?$AAg?$AAl?$AAy?$AAp?$AAh?$AA_?$AAc?$AAo?$AAu?$AAn?$AAt?$AA?$AA@ ; `string'
PUBLIC	??_C@_1DK@MJIDLFCD@?$AAr?$AAa?$AAn?$AAg?$AAe?$AA_?$AAn?$AA?5?$AA?$DN?$AA?$DN?$AA?5?$AAt?$AAo?$AAt?$AAa?$AAl?$AA_?$AAr?$AAa?$AAn?$AAg?$AAe?$AA_?$AAc?$AAo?$AAu?$AAn?$AAt?$AA?$AA@ ; `string'
PUBLIC	?__LINE__Var@?1??nk_font_bake@@9@9@ddf8d5d8	; `nk_font_bake'::`2'::__LINE__Var
PUBLIC	??_C@_1M@GKOIOOFK@?$AAb?$AAa?$AAk?$AAe?$AAr?$AA?$AA@ ; `string'
PUBLIC	??_C@_1BG@PNHAFIJL@?$AAf?$AAo?$AAn?$AAt?$AA_?$AAc?$AAo?$AAu?$AAn?$AAt?$AA?$AA@ ; `string'
PUBLIC	??_C@_1BK@BAMJJACG@?$AAg?$AAl?$AAy?$AAp?$AAh?$AAs?$AA_?$AAc?$AAo?$AAu?$AAn?$AAt?$AA?$AA@ ; `string'
PUBLIC	?__LINE__Var@?1??nk_font_bake_custom_data@@9@9@ddf8d5d8 ; `nk_font_bake_custom_data'::`2'::__LINE__Var
PUBLIC	??_C@_1BG@JELGLMGA@?$AAi?$AAm?$AAg?$AA_?$AAm?$AAe?$AAm?$AAo?$AAr?$AAy?$AA?$AA@ ; `string'
PUBLIC	??_C@_1BE@MBHFANAC@?$AAi?$AAm?$AAg?$AA_?$AAw?$AAi?$AAd?$AAt?$AAh?$AA?$AA@ ; `string'
PUBLIC	??_C@_1BG@JKDMJAOC@?$AAi?$AAm?$AAg?$AA_?$AAh?$AAe?$AAi?$AAg?$AAh?$AAt?$AA?$AA@ ; `string'
PUBLIC	??_C@_1CE@JMKMBGAG@?$AAt?$AAe?$AAx?$AAt?$AAu?$AAr?$AAe?$AA_?$AAd?$AAa?$AAt?$AAa?$AA_?$AAm?$AAa?$AAs?$AAk?$AA?$AA@ ; `string'
PUBLIC	?__LINE__Var@?1??nk_font_bake_convert@@9@9@ddf8d5d8 ; `nk_font_bake_convert'::`2'::__LINE__Var
PUBLIC	??_C@_1BG@FPHPBKAN@?$AAo?$AAu?$AAt?$AA_?$AAm?$AAe?$AAm?$AAo?$AAr?$AAy?$AA?$AA@ ; `string'
PUBLIC	??_C@_1BE@GJBOJGHN@?$AAi?$AAn?$AA_?$AAm?$AAe?$AAm?$AAo?$AAr?$AAy?$AA?$AA@ ; `string'
PUBLIC	?__LINE__Var@?1??nk_font_text_width@@9@9@ddf8d5d8 ; `nk_font_text_width'::`2'::__LINE__Var
PUBLIC	??_C@_1BK@JHIPEEHJ@?$AAf?$AAo?$AAn?$AAt?$AA?9?$AA?$DO?$AAg?$AAl?$AAy?$AAp?$AAh?$AAs?$AA?$AA@ ; `string'
PUBLIC	?__LINE__Var@?1??nk_font_query_font_glyph@@9@9@ddf8d5d8 ; `nk_font_query_font_glyph'::`2'::__LINE__Var
PUBLIC	??_C@_1M@FFJEAAHP@?$AAg?$AAl?$AAy?$AAp?$AAh?$AA?$AA@ ; `string'
PUBLIC	?__LINE__Var@?1??nk_font_find_glyph@@9@9	; `nk_font_find_glyph'::`2'::__LINE__Var
PUBLIC	??_C@_1CE@EGBHPFHC@?$AAf?$AAo?$AAn?$AAt?$AA?9?$AA?$DO?$AAi?$AAn?$AAf?$AAo?$AA?4?$AAr?$AAa?$AAn?$AAg?$AAe?$AAs?$AA?$AA@ ; `string'
PUBLIC	?__LINE__Var@?1??nk_font_init@@9@9@ddf8d5d8	; `nk_font_init'::`2'::__LINE__Var
PUBLIC	??_C@_1O@NBCNDPNP@?$AAg?$AAl?$AAy?$AAp?$AAh?$AAs?$AA?$AA@ ; `string'
PUBLIC	??_C@_1BG@PADPEMOB@?$AAb?$AAa?$AAk?$AAe?$AAd?$AA_?$AAf?$AAo?$AAn?$AAt?$AA?$AA@ ; `string'
PUBLIC	?__LINE__Var@?1??nk__match@@9@9@ddf8d5d8	; `nk__match'::`2'::__LINE__Var
PUBLIC	??_C@_1EC@MLCFIANA@?$AAn?$AAk?$AA_?$AA_?$AAd?$AAo?$AAu?$AAt?$AA?5?$AA?$CL?$AA?5?$AAl?$AAe?$AAn?$AAg?$AAt?$AAh?$AA?5?$AA?$DM?$AA?$DN?$AA?5?$AAn?$AAk?$AA_?$AA_?$AAb?$AAa?$AAr?$AAr?$AAi?$AAe?$AAr@ ; `string'
PUBLIC	?__LINE__Var@?1??nk__lit@@9@9@ddf8d5d8		; `nk__lit'::`2'::__LINE__Var
PUBLIC	?__LINE__Var@?1??nk_decompress@@9@9@ddf8d5d8	; `nk_decompress'::`2'::__LINE__Var
PUBLIC	??_C@_1DE@KBBHGLFN@?$AAn?$AAk?$AA_?$AA_?$AAd?$AAo?$AAu?$AAt?$AA?5?$AA?$DN?$AA?$DN?$AA?5?$AAo?$AAu?$AAt?$AAp?$AAu?$AAt?$AA?5?$AA?$CL?$AA?5?$AAo?$AAl?$AAe?$AAn?$AA?$AA@ ; `string'
PUBLIC	??_C@_1DE@IFJFDKGL@?$AAn?$AAk?$AA_?$AA_?$AAd?$AAo?$AAu?$AAt?$AA?5?$AA?$DM?$AA?$DN?$AA?5?$AAo?$AAu?$AAt?$AAp?$AAu?$AAt?$AA?5?$AA?$CL?$AA?5?$AAo?$AAl?$AAe?$AAn?$AA?$AA@ ; `string'
PUBLIC	?__LINE__Var@?1??nk_font_atlas_init_default@@9@9 ; `nk_font_atlas_init_default'::`2'::__LINE__Var
PUBLIC	??_C@_1M@PFBJFKGM@?$AAa?$AAt?$AAl?$AAa?$AAs?$AA?$AA@ ; `string'
PUBLIC	?__LINE__Var@?1??nk_font_atlas_init@@9@9	; `nk_font_atlas_init'::`2'::__LINE__Var
PUBLIC	?__LINE__Var@?1??nk_font_atlas_init_custom@@9@9	; `nk_font_atlas_init_custom'::`2'::__LINE__Var
PUBLIC	??_C@_1BE@GNEJBMGP@?$AAp?$AAe?$AAr?$AAm?$AAa?$AAn?$AAe?$AAn?$AAt?$AA?$AA@ ; `string'
PUBLIC	??_C@_1BE@EMLGEEBK@?$AAt?$AAe?$AAm?$AAp?$AAo?$AAr?$AAa?$AAr?$AAy?$AA?$AA@ ; `string'
PUBLIC	?__LINE__Var@?1??nk_font_atlas_begin@@9@9	; `nk_font_atlas_begin'::`2'::__LINE__Var
PUBLIC	??_C@_1GA@MNJGNIH@?$AAa?$AAt?$AAl?$AAa?$AAs?$AA?9?$AA?$DO?$AAt?$AAe?$AAm?$AAp?$AAo?$AAr?$AAa?$AAr?$AAy?$AA?4?$AAa?$AAl?$AAl?$AAo?$AAc?$AA?5?$AA?$CG?$AA?$CG?$AA?5?$AAa?$AAt?$AAl?$AAa?$AAs?$AA?9@ ; `string'
PUBLIC	??_C@_1GA@EALBBIL@?$AAa?$AAt?$AAl?$AAa?$AAs?$AA?9?$AA?$DO?$AAp?$AAe?$AAr?$AAm?$AAa?$AAn?$AAe?$AAn?$AAt?$AA?4?$AAa?$AAl?$AAl?$AAo?$AAc?$AA?5?$AA?$CG?$AA?$CG?$AA?5?$AAa?$AAt?$AAl?$AAa?$AAs?$AA?9@ ; `string'
PUBLIC	?__LINE__Var@?1??nk_font_atlas_add@@9@9		; `nk_font_atlas_add'::`2'::__LINE__Var
PUBLIC	??_C@_1CO@LNDLDAN@?$AAa?$AAt?$AAl?$AAa?$AAs?$AA?9?$AA?$DO?$AAp?$AAe?$AAr?$AAm?$AAa?$AAn?$AAe?$AAn?$AAt?$AA?4?$AAa?$AAl?$AAl?$AAo?$AAc?$AA?$AA@ ; `string'
PUBLIC	??_C@_1CM@IMJOFDOF@?$AAa?$AAt?$AAl?$AAa?$AAs?$AA?9?$AA?$DO?$AAp?$AAe?$AAr?$AAm?$AAa?$AAn?$AAe?$AAn?$AAt?$AA?4?$AAf?$AAr?$AAe?$AAe?$AA?$AA@ ; `string'
PUBLIC	??_C@_1CO@BIKDIHM@?$AAa?$AAt?$AAl?$AAa?$AAs?$AA?9?$AA?$DO?$AAt?$AAe?$AAm?$AAp?$AAo?$AAr?$AAa?$AAr?$AAy?$AA?4?$AAa?$AAl?$AAl?$AAo?$AAc?$AA?$AA@ ; `string'
PUBLIC	??_C@_1CM@BKPFMKJJ@?$AAa?$AAt?$AAl?$AAa?$AAs?$AA?9?$AA?$DO?$AAt?$AAe?$AAm?$AAp?$AAo?$AAr?$AAa?$AAr?$AAy?$AA?4?$AAf?$AAr?$AAe?$AAe?$AA?$AA@ ; `string'
PUBLIC	??_C@_1CC@EMLJIHOH@?$AAc?$AAo?$AAn?$AAf?$AAi?$AAg?$AA?9?$AA?$DO?$AAt?$AAt?$AAf?$AA_?$AAb?$AAl?$AAo?$AAb?$AA?$AA@ ; `string'
PUBLIC	??_C@_1CC@CPJMIME@?$AAc?$AAo?$AAn?$AAf?$AAi?$AAg?$AA?9?$AA?$DO?$AAt?$AAt?$AAf?$AA_?$AAs?$AAi?$AAz?$AAe?$AA?$AA@ ; `string'
PUBLIC	??_C@_1CI@EPKOFENI@?$AAc?$AAo?$AAn?$AAf?$AAi?$AAg?$AA?9?$AA?$DO?$AAs?$AAi?$AAz?$AAe?$AA?5?$AA?$DO?$AA?5?$AA0?$AA?4?$AA0?$AAf?$AA?$AA@ ; `string'
PUBLIC	??_C@_1CA@JLAHHNKC@?$AAa?$AAt?$AAl?$AAa?$AAs?$AA?9?$AA?$DO?$AAf?$AAo?$AAn?$AAt?$AA_?$AAn?$AAu?$AAm?$AA?$AA@ ; `string'
PUBLIC	??_C@_1BM@OLHJPPIM@?$AAc?$AAf?$AAg?$AA?9?$AA?$DO?$AAt?$AAt?$AAf?$AA_?$AAb?$AAl?$AAo?$AAb?$AA?$AA@ ; `string'
PUBLIC	?__LINE__Var@?1??nk_font_atlas_add_from_memory@@9@9 ; `nk_font_atlas_add_from_memory'::`2'::__LINE__Var
PUBLIC	??_C@_1O@NIJNBMFJ@?$AAm?$AAe?$AAm?$AAo?$AAr?$AAy?$AA?$AA@ ; `string'
PUBLIC	?__LINE__Var@?1??nk_font_atlas_add_from_file@@9@9 ; `nk_font_atlas_add_from_file'::`2'::__LINE__Var
PUBLIC	?__LINE__Var@?1??nk_font_atlas_add_compressed@@9@9 ; `nk_font_atlas_add_compressed'::`2'::__LINE__Var
PUBLIC	??_C@_1CA@NPEFJEMF@?$AAc?$AAo?$AAm?$AAp?$AAr?$AAe?$AAs?$AAs?$AAe?$AAd?$AA_?$AAd?$AAa?$AAt?$AAa?$AA?$AA@ ; `string'
PUBLIC	??_C@_1CA@HMLKODMG@?$AAc?$AAo?$AAm?$AAp?$AAr?$AAe?$AAs?$AAs?$AAe?$AAd?$AA_?$AAs?$AAi?$AAz?$AAe?$AA?$AA@ ; `string'
PUBLIC	??_C@_1CE@NFICCMAF@?$AAd?$AAe?$AAc?$AAo?$AAm?$AAp?$AAr?$AAe?$AAs?$AAs?$AAe?$AAd?$AA_?$AAd?$AAa?$AAt?$AAa?$AA?$AA@ ; `string'
PUBLIC	?__LINE__Var@?1??nk_font_atlas_add_compressed_base85@@9@9 ; `nk_font_atlas_add_compressed_base85'::`2'::__LINE__Var
PUBLIC	??_C@_1BI@DCDGNPB@?$AAd?$AAa?$AAt?$AAa?$AA_?$AAb?$AAa?$AAs?$AAe?$AA8?$AA5?$AA?$AA@ ; `string'
PUBLIC	?__LINE__Var@?1??nk_font_atlas_add_default@@9@9	; `nk_font_atlas_add_default'::`2'::__LINE__Var
PUBLIC	?__LINE__Var@?1??nk_font_atlas_bake@@9@9	; `nk_font_atlas_bake'::`2'::__LINE__Var
PUBLIC	??_C@_17GNJCADOE@?$AAt?$AAm?$AAp?$AA?$AA@	; `string'
PUBLIC	??_C@_1BM@DILOJDLD@?$AAa?$AAt?$AAl?$AAa?$AAs?$AA?9?$AA?$DO?$AAg?$AAl?$AAy?$AAp?$AAh?$AAs?$AA?$AA@ ; `string'
PUBLIC	??_C@_1BK@NNCEIJDJ@?$AAa?$AAt?$AAl?$AAa?$AAs?$AA?9?$AA?$DO?$AAp?$AAi?$AAx?$AAe?$AAl?$AA?$AA@ ; `string'
PUBLIC	??_C@_1BC@POOMANHF@?$AAi?$AAm?$AAg?$AA_?$AAr?$AAg?$AAb?$AAa?$AA?$AA@ ; `string'
PUBLIC	?__LINE__Var@?1??nk_font_atlas_end@@9@9		; `nk_font_atlas_end'::`2'::__LINE__Var
PUBLIC	?__LINE__Var@?1??nk_font_atlas_cleanup@@9@9	; `nk_font_atlas_cleanup'::`2'::__LINE__Var
PUBLIC	?__LINE__Var@?1??nk_font_atlas_clear@@9@9	; `nk_font_atlas_clear'::`2'::__LINE__Var
PUBLIC	?__LINE__Var@?1??nk_input_begin@@9@9		; `nk_input_begin'::`2'::__LINE__Var
PUBLIC	?__LINE__Var@?1??nk_input_end@@9@9		; `nk_input_end'::`2'::__LINE__Var
PUBLIC	?__LINE__Var@?1??nk_input_motion@@9@9		; `nk_input_motion'::`2'::__LINE__Var
PUBLIC	?__LINE__Var@?1??nk_input_key@@9@9		; `nk_input_key'::`2'::__LINE__Var
PUBLIC	?__LINE__Var@?1??nk_input_button@@9@9		; `nk_input_button'::`2'::__LINE__Var
PUBLIC	?__LINE__Var@?1??nk_input_scroll@@9@9		; `nk_input_scroll'::`2'::__LINE__Var
PUBLIC	?__LINE__Var@?1??nk_input_glyph@@9@9		; `nk_input_glyph'::`2'::__LINE__Var
PUBLIC	?__LINE__Var@?1??nk_input_char@@9@9		; `nk_input_char'::`2'::__LINE__Var
PUBLIC	?__LINE__Var@?1??nk_input_unicode@@9@9		; `nk_input_unicode'::`2'::__LINE__Var
PUBLIC	?__LINE__Var@?1??nk_textedit_text@@9@9		; `nk_textedit_text'::`2'::__LINE__Var
PUBLIC	??_C@_1M@KIFGKHLF@?$AAs?$AAt?$AAa?$AAt?$AAe?$AA?$AA@ ; `string'
PUBLIC	?__LINE__Var@?1??nk_textedit_init_fixed@@9@9	; `nk_textedit_init_fixed'::`2'::__LINE__Var
PUBLIC	?__LINE__Var@?1??nk_textedit_init@@9@9		; `nk_textedit_init'::`2'::__LINE__Var
PUBLIC	?__LINE__Var@?1??nk_textedit_init_default@@9@9	; `nk_textedit_init_default'::`2'::__LINE__Var
PUBLIC	?__LINE__Var@?1??nk_textedit_select_all@@9@9	; `nk_textedit_select_all'::`2'::__LINE__Var
PUBLIC	?__LINE__Var@?1??nk_textedit_free@@9@9		; `nk_textedit_free'::`2'::__LINE__Var
PUBLIC	?__LINE__Var@?1??nk_widget_text@@9@9@ddf8d5d8	; `nk_widget_text'::`2'::__LINE__Var
PUBLIC	??_C@_13LNPOMHLG@?$AAo?$AA?$AA@			; `string'
PUBLIC	??_C@_13DKOGBHCI@?$AAt?$AA?$AA@			; `string'
PUBLIC	?__LINE__Var@?1??nk_widget_text_wrap@@9@9@ddf8d5d8 ; `nk_widget_text_wrap'::`2'::__LINE__Var
PUBLIC	??_C@_01FJMABOPO@x?$AA@				; `string'
PUBLIC	??_C@_01IDAFKMJL@_?$AA@				; `string'
PUBLIC	??_C@_01MIFGBAGJ@?$CL?$AA@			; `string'
PUBLIC	??_C@_01JOAMLHOP@?9?$AA@			; `string'
PUBLIC	?__LINE__Var@?1??nk_do_button@@9@9@ddf8d5d8	; `nk_do_button'::`2'::__LINE__Var
PUBLIC	??_C@_1M@OIINANNN@?$AAs?$AAt?$AAy?$AAl?$AAe?$AA?$AA@ ; `string'
PUBLIC	??_C@_17CMKEDJDI@?$AAo?$AAu?$AAt?$AA?$AA@	; `string'
PUBLIC	?__LINE__Var@?1??nk_do_button_text@@9@9@ddf8d5d8 ; `nk_do_button_text'::`2'::__LINE__Var
PUBLIC	??_C@_1O@DGBBOFII@?$AAs?$AAt?$AAr?$AAi?$AAn?$AAg?$AA?$AA@ ; `string'
PUBLIC	?__LINE__Var@?1??nk_do_button_symbol@@9@9@ddf8d5d8 ; `nk_do_button_symbol'::`2'::__LINE__Var
PUBLIC	?__LINE__Var@?1??nk_do_button_image@@9@9@ddf8d5d8 ; `nk_do_button_image'::`2'::__LINE__Var
PUBLIC	?__LINE__Var@?1??nk_do_button_text_symbol@@9@9@ddf8d5d8 ; `nk_do_button_text_symbol'::`2'::__LINE__Var
PUBLIC	?__LINE__Var@?1??nk_do_button_text_image@@9@9@ddf8d5d8 ; `nk_do_button_text_image'::`2'::__LINE__Var
PUBLIC	?__LINE__Var@?1??nk_do_toggle@@9@9@ddf8d5d8	; `nk_do_toggle'::`2'::__LINE__Var
PUBLIC	?__LINE__Var@?1??nk_do_selectable@@9@9@ddf8d5d8	; `nk_do_selectable'::`2'::__LINE__Var
PUBLIC	??_C@_1M@KBCLFMHN@?$AAv?$AAa?$AAl?$AAu?$AAe?$AA?$AA@ ; `string'
PUBLIC	?__LINE__Var@?1??nk_do_selectable_image@@9@9@ddf8d5d8 ; `nk_do_selectable_image'::`2'::__LINE__Var
PUBLIC	?__LINE__Var@?1??nk_do_slider@@9@9@ddf8d5d8	; `nk_do_slider'::`2'::__LINE__Var
PUBLIC	?__LINE__Var@?1??nk_do_progress@@9@9@ddf8d5d8	; `nk_do_progress'::`2'::__LINE__Var
PUBLIC	?__LINE__Var@?1??nk_do_scrollbarv@@9@9@ddf8d5d8	; `nk_do_scrollbarv'::`2'::__LINE__Var
PUBLIC	?__LINE__Var@?1??nk_do_scrollbarh@@9@9@ddf8d5d8	; `nk_do_scrollbarh'::`2'::__LINE__Var
PUBLIC	?__LINE__Var@?1??nk_edit_draw_text@@9@9@ddf8d5d8 ; `nk_edit_draw_text'::`2'::__LINE__Var
PUBLIC	?__LINE__Var@?1??nk_do_edit@@9@9@ddf8d5d8	; `nk_do_edit'::`2'::__LINE__Var
PUBLIC	??_C@_01EEMJAFIK@?6?$AA@			; `string'
PUBLIC	??_C@_04PFOHOKJK@?5?5?5?5?$AA@			; `string'
PUBLIC	??_C@_1CC@DELOPEMK@?$AAs?$AAe?$AAl?$AAe?$AAc?$AAt?$AA_?$AAb?$AAe?$AAg?$AAi?$AAn?$AA_?$AAp?$AAt?$AAr?$AA?$AA@ ; `string'
PUBLIC	??_C@_1BO@GIIBLKDM@?$AAs?$AAe?$AAl?$AAe?$AAc?$AAt?$AA_?$AAe?$AAn?$AAd?$AA_?$AAp?$AAt?$AAr?$AA?$AA@ ; `string'
PUBLIC	??_C@_1BG@FFNHGOHN@?$AAc?$AAu?$AAr?$AAs?$AAo?$AAr?$AA_?$AAp?$AAt?$AAr?$AA?$AA@ ; `string'
PUBLIC	?__LINE__Var@?1??nk_color_picker_behavior@@9@9@ddf8d5d8 ; `nk_color_picker_behavior'::`2'::__LINE__Var
PUBLIC	??_C@_1O@DGDDDMMD@?$AAm?$AAa?$AAt?$AAr?$AAi?$AAx?$AA?$AA@ ; `string'
PUBLIC	??_C@_1BA@FPGEKOLJ@?$AAh?$AAu?$AAe?$AA_?$AAb?$AAa?$AAr?$AA?$AA@ ; `string'
PUBLIC	??_C@_1M@EENKLIPJ@?$AAc?$AAo?$AAl?$AAo?$AAr?$AA?$AA@ ; `string'
PUBLIC	?__LINE__Var@?1??nk_draw_color_picker@@9@9@ddf8d5d8 ; `nk_draw_color_picker'::`2'::__LINE__Var
PUBLIC	?__LINE__Var@?1??nk_do_color_picker@@9@9@ddf8d5d8 ; `nk_do_color_picker'::`2'::__LINE__Var
PUBLIC	?__LINE__Var@?1??nk_style_from_table@@9@9	; `nk_style_from_table'::`2'::__LINE__Var
PUBLIC	?__LINE__Var@?1??nk_style_set_font@@9@9		; `nk_style_set_font'::`2'::__LINE__Var
PUBLIC	?__LINE__Var@?1??nk_style_push_font@@9@9	; `nk_style_push_font'::`2'::__LINE__Var
PUBLIC	??_C@_1KO@LJHFLGDM@?$AAf?$AAo?$AAn?$AAt?$AA_?$AAs?$AAt?$AAa?$AAc?$AAk?$AA?9?$AA?$DO?$AAh?$AAe?$AAa?$AAd?$AA?5?$AA?$DM?$AA?5?$AA?$CI?$AAi?$AAn?$AAt?$AA?$CJ?$AA?$CI?$AAs?$AAi?$AAz?$AAe?$AAo?$AAf?$AA?$CI@ ; `string'
PUBLIC	?__LINE__Var@?1??nk_style_pop_font@@9@9		; `nk_style_pop_font'::`2'::__LINE__Var
PUBLIC	??_C@_1CK@NLHKOOOH@?$AAf?$AAo?$AAn?$AAt?$AA_?$AAs?$AAt?$AAa?$AAc?$AAk?$AA?9?$AA?$DO?$AAh?$AAe?$AAa?$AAd?$AA?5?$AA?$DO?$AA?5?$AA0?$AA?$AA@ ; `string'
PUBLIC	??_C@_1KO@JLDKBNHN@?$AAt?$AAy?$AAp?$AAe?$AA_?$AAs?$AAt?$AAa?$AAc?$AAk?$AA?9?$AA?$DO?$AAh?$AAe?$AAa?$AAd?$AA?5?$AA?$DM?$AA?5?$AA?$CI?$AAi?$AAn?$AAt?$AA?$CJ?$AA?$CI?$AAs?$AAi?$AAz?$AAe?$AAo?$AAf?$AA?$CI@ ; `string'
PUBLIC	??_C@_1CK@BNOCFFAG@?$AAt?$AAy?$AAp?$AAe?$AA_?$AAs?$AAt?$AAa?$AAc?$AAk?$AA?9?$AA?$DO?$AAh?$AAe?$AAa?$AAd?$AA?5?$AA?$DO?$AA?5?$AA0?$AA?$AA@ ; `string'
PUBLIC	?__LINE__Var@?1??nk_style_set_cursor@@9@9	; `nk_style_set_cursor'::`2'::__LINE__Var
PUBLIC	?__LINE__Var@?1??nk_style_load_cursor@@9@9	; `nk_style_load_cursor'::`2'::__LINE__Var
PUBLIC	?__LINE__Var@?1??nk_style_load_all_cursors@@9@9	; `nk_style_load_all_cursors'::`2'::__LINE__Var
PUBLIC	?__LINE__Var@?1??nk_pool_init_fixed@@9@9@ddf8d5d8 ; `nk_pool_init_fixed'::`2'::__LINE__Var
PUBLIC	??_C@_1DO@HIJNMCBA@?$AAs?$AAi?$AAz?$AAe?$AA?5?$AA?$DO?$AA?$DN?$AA?5?$AAs?$AAi?$AAz?$AAe?$AAo?$AAf?$AA?$CI?$AAs?$AAt?$AAr?$AAu?$AAc?$AAt?$AA?5?$AAn?$AAk?$AA_?$AAp?$AAa?$AAg?$AAe?$AA?$CJ?$AA?$AA@ ; `string'
PUBLIC	?__LINE__Var@?1??nk_pool_alloc@@9@9@ddf8d5d8	; `nk_pool_alloc'::`2'::__LINE__Var
PUBLIC	??_C@_1BI@FCHHCIJM@?$AAp?$AAo?$AAo?$AAl?$AA?9?$AA?$DO?$AAp?$AAa?$AAg?$AAe?$AAs?$AA?$AA@ ; `string'
PUBLIC	??_C@_1EG@GDCHEAAC@?$AAp?$AAo?$AAo?$AAl?$AA?9?$AA?$DO?$AAp?$AAa?$AAg?$AAe?$AAs?$AA?9?$AA?$DO?$AAs?$AAi?$AAz?$AAe?$AA?5?$AA?$DM?$AA?5?$AAp?$AAo?$AAo?$AAl?$AA?9?$AA?$DO?$AAc?$AAa?$AAp?$AAa?$AAc?$AAi@ ; `string'
PUBLIC	?__LINE__Var@?1??nk_setup@@9@9@ddf8d5d8		; `nk_setup'::`2'::__LINE__Var
PUBLIC	?__LINE__Var@?1??nk_init_fixed@@9@9		; `nk_init_fixed'::`2'::__LINE__Var
PUBLIC	?__LINE__Var@?1??nk_init_custom@@9@9		; `nk_init_custom'::`2'::__LINE__Var
PUBLIC	??_C@_19GLKFFFDC@?$AAp?$AAo?$AAo?$AAl?$AA?$AA@	; `string'
PUBLIC	?__LINE__Var@?1??nk_init@@9@9			; `nk_init'::`2'::__LINE__Var
PUBLIC	?__LINE__Var@?1??nk_free@@9@9			; `nk_free'::`2'::__LINE__Var
PUBLIC	?__LINE__Var@?1??nk_clear@@9@9			; `nk_clear'::`2'::__LINE__Var
PUBLIC	?__LINE__Var@?1??nk_start_buffer@@9@9@ddf8d5d8	; `nk_start_buffer'::`2'::__LINE__Var
PUBLIC	?__LINE__Var@?1??nk_start@@9@9@ddf8d5d8		; `nk_start'::`2'::__LINE__Var
PUBLIC	??_C@_17MIEKGGLN@?$AAw?$AAi?$AAn?$AA?$AA@	; `string'
PUBLIC	?__LINE__Var@?1??nk_start_popup@@9@9@ddf8d5d8	; `nk_start_popup'::`2'::__LINE__Var
PUBLIC	?__LINE__Var@?1??nk_finish_popup@@9@9@ddf8d5d8	; `nk_finish_popup'::`2'::__LINE__Var
PUBLIC	?__LINE__Var@?1??nk_finish_buffer@@9@9@ddf8d5d8	; `nk_finish_buffer'::`2'::__LINE__Var
PUBLIC	?__LINE__Var@?1??nk_finish@@9@9@ddf8d5d8	; `nk_finish'::`2'::__LINE__Var
PUBLIC	?__LINE__Var@?1??nk__begin@@9@9			; `nk__begin'::`2'::__LINE__Var
PUBLIC	?__LINE__Var@?1??nk__next@@9@9			; `nk__next'::`2'::__LINE__Var
PUBLIC	?__LINE__Var@?1??nk_panel_begin@@9@9@ddf8d5d8	; `nk_panel_begin'::`2'::__LINE__Var
PUBLIC	??_C@_1BK@LJAMLKOF@?$AAc?$AAt?$AAx?$AA?9?$AA?$DO?$AAc?$AAu?$AAr?$AAr?$AAe?$AAn?$AAt?$AA?$AA@ ; `string'
PUBLIC	??_C@_1CK@CGDEIPOI@?$AAc?$AAt?$AAx?$AA?9?$AA?$DO?$AAc?$AAu?$AAr?$AAr?$AAe?$AAn?$AAt?$AA?9?$AA?$DO?$AAl?$AAa?$AAy?$AAo?$AAu?$AAt?$AA?$AA@ ; `string'
PUBLIC	?__LINE__Var@?1??nk_panel_end@@9@9@ddf8d5d8	; `nk_panel_end'::`2'::__LINE__Var
PUBLIC	??_C@_1DA@PKJELGCB@?$AA?$CB?$AAl?$AAa?$AAy?$AAo?$AAu?$AAt?$AA?9?$AA?$DO?$AAr?$AAo?$AAw?$AA?4?$AAt?$AAr?$AAe?$AAe?$AA_?$AAd?$AAe?$AAp?$AAt?$AAh?$AA?$AA@ ; `string'
PUBLIC	?__LINE__Var@?1??nk_create_page_element@@9@9@ddf8d5d8 ; `nk_create_page_element'::`2'::__LINE__Var
PUBLIC	??_C@_19DNIKFMHO@?$AAe?$AAl?$AAe?$AAm?$AA?$AA@	; `string'
PUBLIC	?__LINE__Var@?1??nk_add_value@@9@9@ddf8d5d8	; `nk_add_value'::`2'::__LINE__Var
PUBLIC	??_C@_17IGALFJBG@?$AAt?$AAb?$AAl?$AA?$AA@	; `string'
PUBLIC	?__LINE__Var@?1??nk_find_window@@9@9@ddf8d5d8	; `nk_find_window'::`2'::__LINE__Var
PUBLIC	??_C@_1CG@NEBMOBMP@?$AAi?$AAt?$AAe?$AAr?$AA?5?$AA?$CB?$AA?$DN?$AA?5?$AAi?$AAt?$AAe?$AAr?$AA?9?$AA?$DO?$AAn?$AAe?$AAx?$AAt?$AA?$AA@ ; `string'
PUBLIC	?__LINE__Var@?1??nk_insert_window@@9@9@ddf8d5d8	; `nk_insert_window'::`2'::__LINE__Var
PUBLIC	??_C@_1BI@HILBEPMH@?$AAi?$AAt?$AAe?$AAr?$AA?5?$AA?$CB?$AA?$DN?$AA?5?$AAw?$AAi?$AAn?$AA?$AA@ ; `string'
PUBLIC	?__LINE__Var@?1??nk_begin_titled@@9@9		; `nk_begin_titled'::`2'::__LINE__Var
PUBLIC	??_C@_19HHIIBINK@?$AAn?$AAa?$AAm?$AAe?$AA?$AA@	; `string'
PUBLIC	??_C@_1M@NFEAPLNL@?$AAt?$AAi?$AAt?$AAl?$AAe?$AA?$AA@ ; `string'
PUBLIC	??_C@_0CK@BJLINOEN@if?5this?5triggers?5you?5forgot?5to?5a@ ; `string'
PUBLIC	??_C@_1LC@NJCFCJDB@?$AAc?$AAt?$AAx?$AA?9?$AA?$DO?$AAs?$AAt?$AAy?$AAl?$AAe?$AA?4?$AAf?$AAo?$AAn?$AAt?$AA?5?$AA?$CG?$AA?$CG?$AA?5?$AAc?$AAt?$AAx?$AA?9?$AA?$DO?$AAs?$AAt?$AAy?$AAl?$AAe?$AA?4?$AAf?$AAo@ ; `string'
PUBLIC	??_C@_0CM@NPLMGOOB@if?5this?5triggers?5you?5missed?5a?5?$GAn@ ; `string'
PUBLIC	??_C@_1HO@LCINIEJG@?$AA?$CB?$AAc?$AAt?$AAx?$AA?9?$AA?$DO?$AAc?$AAu?$AAr?$AAr?$AAe?$AAn?$AAt?$AA?5?$AA?$CG?$AA?$CG?$AA?5?$AA?$CC?$AAi?$AAf?$AA?5?$AAt?$AAh?$AAi?$AAs?$AA?5?$AAt?$AAr?$AAi?$AAg?$AAg?$AAe@ ; `string'
PUBLIC	??_C@_1CK@MJEFJAFE@?$AAw?$AAi?$AAn?$AA?9?$AA?$DO?$AAs?$AAe?$AAq?$AA?5?$AA?$CB?$AA?$DN?$AA?5?$AAc?$AAt?$AAx?$AA?9?$AA?$DO?$AAs?$AAe?$AAq?$AA?$AA@ ; `string'
PUBLIC	?__LINE__Var@?1??nk_end@@9@9			; `nk_end'::`2'::__LINE__Var
PUBLIC	??_C@_0CP@PKIBPAED@if?5this?5triggers?5you?5forgot?5to?5c@ ; `string'
PUBLIC	??_C@_1IC@IHIOPCBE@?$AAc?$AAt?$AAx?$AA?9?$AA?$DO?$AAc?$AAu?$AAr?$AAr?$AAe?$AAn?$AAt?$AA?5?$AA?$CG?$AA?$CG?$AA?5?$AA?$CC?$AAi?$AAf?$AA?5?$AAt?$AAh?$AAi?$AAs?$AA?5?$AAt?$AAr?$AAi?$AAg?$AAg?$AAe?$AAr@ ; `string'
PUBLIC	?__LINE__Var@?1??nk_window_get_bounds@@9@9	; `nk_window_get_bounds'::`2'::__LINE__Var
PUBLIC	?__LINE__Var@?1??nk_window_get_position@@9@9	; `nk_window_get_position'::`2'::__LINE__Var
PUBLIC	?__LINE__Var@?1??nk_window_get_size@@9@9	; `nk_window_get_size'::`2'::__LINE__Var
PUBLIC	?__LINE__Var@?1??nk_window_get_width@@9@9	; `nk_window_get_width'::`2'::__LINE__Var
PUBLIC	?__LINE__Var@?1??nk_window_get_height@@9@9	; `nk_window_get_height'::`2'::__LINE__Var
PUBLIC	?__LINE__Var@?1??nk_window_get_content_region@@9@9 ; `nk_window_get_content_region'::`2'::__LINE__Var
PUBLIC	?__LINE__Var@?1??nk_window_get_content_region_min@@9@9 ; `nk_window_get_content_region_min'::`2'::__LINE__Var
PUBLIC	?__LINE__Var@?1??nk_window_get_content_region_max@@9@9 ; `nk_window_get_content_region_max'::`2'::__LINE__Var
PUBLIC	?__LINE__Var@?1??nk_window_get_content_region_size@@9@9 ; `nk_window_get_content_region_size'::`2'::__LINE__Var
PUBLIC	?__LINE__Var@?1??nk_window_get_canvas@@9@9	; `nk_window_get_canvas'::`2'::__LINE__Var
PUBLIC	?__LINE__Var@?1??nk_window_get_panel@@9@9	; `nk_window_get_panel'::`2'::__LINE__Var
PUBLIC	?__LINE__Var@?1??nk_window_has_focus@@9@9	; `nk_window_has_focus'::`2'::__LINE__Var
PUBLIC	?__LINE__Var@?1??nk_window_is_hovered@@9@9	; `nk_window_is_hovered'::`2'::__LINE__Var
PUBLIC	?__LINE__Var@?1??nk_window_is_any_hovered@@9@9	; `nk_window_is_any_hovered'::`2'::__LINE__Var
PUBLIC	?__LINE__Var@?1??nk_window_is_collapsed@@9@9	; `nk_window_is_collapsed'::`2'::__LINE__Var
PUBLIC	?__LINE__Var@?1??nk_window_is_closed@@9@9	; `nk_window_is_closed'::`2'::__LINE__Var
PUBLIC	?__LINE__Var@?1??nk_window_is_hidden@@9@9	; `nk_window_is_hidden'::`2'::__LINE__Var
PUBLIC	?__LINE__Var@?1??nk_window_is_active@@9@9	; `nk_window_is_active'::`2'::__LINE__Var
PUBLIC	?__LINE__Var@?1??nk_window_close@@9@9		; `nk_window_close'::`2'::__LINE__Var
PUBLIC	??_C@_0CL@POGABMMP@You?5cannot?5close?5a?5currently?5act@ ; `string'
PUBLIC	??_C@_1II@KEHDGIEG@?$AAc?$AAt?$AAx?$AA?9?$AA?$DO?$AAc?$AAu?$AAr?$AAr?$AAe?$AAn?$AAt?$AA?5?$AA?$CB?$AA?$DN?$AA?5?$AAw?$AAi?$AAn?$AA?5?$AA?$CG?$AA?$CG?$AA?5?$AA?$CC?$AAY?$AAo?$AAu?$AA?5?$AAc?$AAa?$AAn?$AAn@ ; `string'
PUBLIC	?__LINE__Var@?1??nk_window_set_bounds@@9@9	; `nk_window_set_bounds'::`2'::__LINE__Var
PUBLIC	?__LINE__Var@?1??nk_window_set_position@@9@9	; `nk_window_set_position'::`2'::__LINE__Var
PUBLIC	?__LINE__Var@?1??nk_window_set_size@@9@9	; `nk_window_set_size'::`2'::__LINE__Var
PUBLIC	?__LINE__Var@?1??nk_window_collapse@@9@9	; `nk_window_collapse'::`2'::__LINE__Var
PUBLIC	?__LINE__Var@?1??nk_window_collapse_if@@9@9	; `nk_window_collapse_if'::`2'::__LINE__Var
PUBLIC	?__LINE__Var@?1??nk_window_show@@9@9		; `nk_window_show'::`2'::__LINE__Var
PUBLIC	?__LINE__Var@?1??nk_window_show_if@@9@9		; `nk_window_show_if'::`2'::__LINE__Var
PUBLIC	?__LINE__Var@?1??nk_window_set_focus@@9@9	; `nk_window_set_focus'::`2'::__LINE__Var
PUBLIC	?__LINE__Var@?1??nk_menubar_begin@@9@9		; `nk_menubar_begin'::`2'::__LINE__Var
PUBLIC	??_C@_1EC@NJLDBDNI@?$AAl?$AAa?$AAy?$AAo?$AAu?$AAt?$AA?9?$AA?$DO?$AAa?$AAt?$AA_?$AAy?$AA?5?$AA?$DN?$AA?$DN?$AA?5?$AAl?$AAa?$AAy?$AAo?$AAu?$AAt?$AA?9?$AA?$DO?$AAb?$AAo?$AAu?$AAn?$AAd?$AAs?$AA?4?$AAy@ ; `string'
PUBLIC	?__LINE__Var@?1??nk_menubar_end@@9@9		; `nk_menubar_end'::`2'::__LINE__Var
PUBLIC	?__LINE__Var@?1??nk_layout_set_min_row_height@@9@9 ; `nk_layout_set_min_row_height'::`2'::__LINE__Var
PUBLIC	?__LINE__Var@?1??nk_layout_reset_min_row_height@@9@9 ; `nk_layout_reset_min_row_height'::`2'::__LINE__Var
PUBLIC	?__LINE__Var@?1??nk_panel_layout@@9@9@ddf8d5d8	; `nk_panel_layout'::`2'::__LINE__Var
PUBLIC	??_C@_1EO@JPIFGEEN@?$AA?$CB?$AA?$CI?$AAl?$AAa?$AAy?$AAo?$AAu?$AAt?$AA?9?$AA?$DO?$AAf?$AAl?$AAa?$AAg?$AAs?$AA?5?$AA?$CG?$AA?5?$AAN?$AAK?$AA_?$AAW?$AAI?$AAN?$AAD?$AAO?$AAW?$AA_?$AAM?$AAI?$AAN?$AAI@ ; `string'
PUBLIC	??_C@_1EI@DELDILCF@?$AA?$CB?$AA?$CI?$AAl?$AAa?$AAy?$AAo?$AAu?$AAt?$AA?9?$AA?$DO?$AAf?$AAl?$AAa?$AAg?$AAs?$AA?5?$AA?$CG?$AA?5?$AAN?$AAK?$AA_?$AAW?$AAI?$AAN?$AAD?$AAO?$AAW?$AA_?$AAH?$AAI?$AAD?$AAD@ ; `string'
PUBLIC	??_C@_1EI@PPLANDAM@?$AA?$CB?$AA?$CI?$AAl?$AAa?$AAy?$AAo?$AAu?$AAt?$AA?9?$AA?$DO?$AAf?$AAl?$AAa?$AAg?$AAs?$AA?5?$AA?$CG?$AA?5?$AAN?$AAK?$AA_?$AAW?$AAI?$AAN?$AAD?$AAO?$AAW?$AA_?$AAC?$AAL?$AAO?$AAS@ ; `string'
PUBLIC	?__LINE__Var@?1??nk_row_layout@@9@9@ddf8d5d8	; `nk_row_layout'::`2'::__LINE__Var
PUBLIC	?__LINE__Var@?1??nk_layout_ratio_from_pixel@@9@9 ; `nk_layout_ratio_from_pixel'::`2'::__LINE__Var
PUBLIC	??_C@_1BI@OOJBMBEL@?$AAp?$AAi?$AAx?$AAe?$AAl?$AA_?$AAw?$AAi?$AAd?$AAt?$AAh?$AA?$AA@ ; `string'
PUBLIC	?__LINE__Var@?1??nk_layout_row_begin@@9@9	; `nk_layout_row_begin'::`2'::__LINE__Var
PUBLIC	?__LINE__Var@?1??nk_layout_row_push@@9@9	; `nk_layout_row_push'::`2'::__LINE__Var
PUBLIC	??_C@_1KM@KNMABCOH@?$AAl?$AAa?$AAy?$AAo?$AAu?$AAt?$AA?9?$AA?$DO?$AAr?$AAo?$AAw?$AA?4?$AAt?$AAy?$AAp?$AAe?$AA?5?$AA?$DN?$AA?$DN?$AA?5?$AAN?$AAK?$AA_?$AAL?$AAA?$AAY?$AAO?$AAU?$AAT?$AA_?$AAS?$AAT@ ; `string'
PUBLIC	?__LINE__Var@?1??nk_layout_row_end@@9@9		; `nk_layout_row_end'::`2'::__LINE__Var
PUBLIC	?__LINE__Var@?1??nk_layout_row@@9@9		; `nk_layout_row'::`2'::__LINE__Var
PUBLIC	?__LINE__Var@?1??nk_layout_row_template_begin@@9@9 ; `nk_layout_row_template_begin'::`2'::__LINE__Var
PUBLIC	?__LINE__Var@?1??nk_layout_row_template_push_dynamic@@9@9 ; `nk_layout_row_template_push_dynamic'::`2'::__LINE__Var
PUBLIC	??_C@_1EO@MCBIGAOG@?$AAl?$AAa?$AAy?$AAo?$AAu?$AAt?$AA?9?$AA?$DO?$AAr?$AAo?$AAw?$AA?4?$AAt?$AAy?$AAp?$AAe?$AA?5?$AA?$DN?$AA?$DN?$AA?5?$AAN?$AAK?$AA_?$AAL?$AAA?$AAY?$AAO?$AAU?$AAT?$AA_?$AAT?$AAE@ ; `string'
PUBLIC	??_C@_1DC@ELAOKKAE@?$AAl?$AAa?$AAy?$AAo?$AAu?$AAt?$AA?9?$AA?$DO?$AAr?$AAo?$AAw?$AA?4?$AAc?$AAo?$AAl?$AAu?$AAm?$AAn?$AAs?$AA?5?$AA?$DM?$AA?5?$AA1?$AA6?$AA?$AA@ ; `string'
PUBLIC	?__LINE__Var@?1??nk_layout_row_template_push_variable@@9@9 ; `nk_layout_row_template_push_variable'::`2'::__LINE__Var
PUBLIC	?__LINE__Var@?1??nk_layout_row_template_push_static@@9@9 ; `nk_layout_row_template_push_static'::`2'::__LINE__Var
PUBLIC	?__LINE__Var@?1??nk_layout_row_template_end@@9@9 ; `nk_layout_row_template_end'::`2'::__LINE__Var
PUBLIC	?__LINE__Var@?1??nk_layout_space_begin@@9@9	; `nk_layout_space_begin'::`2'::__LINE__Var
PUBLIC	?__LINE__Var@?1??nk_layout_space_end@@9@9	; `nk_layout_space_end'::`2'::__LINE__Var
PUBLIC	?__LINE__Var@?1??nk_layout_space_push@@9@9	; `nk_layout_space_push'::`2'::__LINE__Var
PUBLIC	?__LINE__Var@?1??nk_layout_space_bounds@@9@9	; `nk_layout_space_bounds'::`2'::__LINE__Var
PUBLIC	?__LINE__Var@?1??nk_layout_widget_bounds@@9@9	; `nk_layout_widget_bounds'::`2'::__LINE__Var
PUBLIC	?__LINE__Var@?1??nk_layout_space_to_screen@@9@9	; `nk_layout_space_to_screen'::`2'::__LINE__Var
PUBLIC	?__LINE__Var@?1??nk_layout_space_to_local@@9@9	; `nk_layout_space_to_local'::`2'::__LINE__Var
PUBLIC	?__LINE__Var@?1??nk_layout_space_rect_to_screen@@9@9 ; `nk_layout_space_rect_to_screen'::`2'::__LINE__Var
PUBLIC	?__LINE__Var@?1??nk_layout_space_rect_to_local@@9@9 ; `nk_layout_space_rect_to_local'::`2'::__LINE__Var
PUBLIC	?__LINE__Var@?1??nk_layout_widget_space@@9@9@ddf8d5d8 ; `nk_layout_widget_space'::`2'::__LINE__Var
PUBLIC	??_C@_1O@CGNPIAKO@?$AAb?$AAo?$AAu?$AAn?$AAd?$AAs?$AA?$AA@ ; `string'
PUBLIC	??_C@_1CE@DKKICNJC@?$AAl?$AAa?$AAy?$AAo?$AAu?$AAt?$AA?9?$AA?$DO?$AAr?$AAo?$AAw?$AA?4?$AAr?$AAa?$AAt?$AAi?$AAo?$AA?$AA@ ; `string'
PUBLIC	??_C@_1FA@JKACIFKJ@?$AAl?$AAa?$AAy?$AAo?$AAu?$AAt?$AA?9?$AA?$DO?$AAr?$AAo?$AAw?$AA?4?$AAi?$AAn?$AAd?$AAe?$AAx?$AA?5?$AA?$DM?$AA?5?$AAl?$AAa?$AAy?$AAo?$AAu?$AAt?$AA?9?$AA?$DO?$AAr?$AAo?$AAw?$AA?4@ ; `string'
PUBLIC	??_C@_1CO@JFBIDLDE@?$AAl?$AAa?$AAy?$AAo?$AAu?$AAt?$AA?9?$AA?$DO?$AAr?$AAo?$AAw?$AA?4?$AAi?$AAn?$AAd?$AAe?$AAx?$AA?5?$AA?$DM?$AA?5?$AA1?$AA6?$AA?$AA@ ; `string'
PUBLIC	?__LINE__Var@?1??nk_panel_alloc_space@@9@9@ddf8d5d8 ; `nk_panel_alloc_space'::`2'::__LINE__Var
PUBLIC	?__LINE__Var@?1??nk_layout_peek@@9@9@ddf8d5d8	; `nk_layout_peek'::`2'::__LINE__Var
PUBLIC	?__LINE__Var@?1??nk_tree_state_base@@9@9@ddf8d5d8 ; `nk_tree_state_base'::`2'::__LINE__Var
PUBLIC	?__LINE__Var@?1??nk_tree_state_pop@@9@9		; `nk_tree_state_pop'::`2'::__LINE__Var
PUBLIC	??_C@_1CO@ONCLGDAH@?$AAl?$AAa?$AAy?$AAo?$AAu?$AAt?$AA?9?$AA?$DO?$AAr?$AAo?$AAw?$AA?4?$AAt?$AAr?$AAe?$AAe?$AA_?$AAd?$AAe?$AAp?$AAt?$AAh?$AA?$AA@ ; `string'
PUBLIC	?__LINE__Var@?1??nk_widget_bounds@@9@9		; `nk_widget_bounds'::`2'::__LINE__Var
PUBLIC	?__LINE__Var@?1??nk_widget_position@@9@9	; `nk_widget_position'::`2'::__LINE__Var
PUBLIC	?__LINE__Var@?1??nk_widget_size@@9@9		; `nk_widget_size'::`2'::__LINE__Var
PUBLIC	?__LINE__Var@?1??nk_widget_width@@9@9		; `nk_widget_width'::`2'::__LINE__Var
PUBLIC	?__LINE__Var@?1??nk_widget_height@@9@9		; `nk_widget_height'::`2'::__LINE__Var
PUBLIC	?__LINE__Var@?1??nk_widget_is_hovered@@9@9	; `nk_widget_is_hovered'::`2'::__LINE__Var
PUBLIC	?__LINE__Var@?1??nk_widget_is_mouse_clicked@@9@9 ; `nk_widget_is_mouse_clicked'::`2'::__LINE__Var
PUBLIC	?__LINE__Var@?1??nk_widget_has_mouse_click_down@@9@9 ; `nk_widget_has_mouse_click_down'::`2'::__LINE__Var
PUBLIC	?__LINE__Var@?1??nk_widget@@9@9			; `nk_widget'::`2'::__LINE__Var
PUBLIC	?__LINE__Var@?1??nk_widget_fitting@@9@9		; `nk_widget_fitting'::`2'::__LINE__Var
PUBLIC	?__LINE__Var@?1??nk_spacing@@9@9		; `nk_spacing'::`2'::__LINE__Var
PUBLIC	?__LINE__Var@?1??nk_text_colored@@9@9		; `nk_text_colored'::`2'::__LINE__Var
PUBLIC	?__LINE__Var@?1??nk_text_wrap_colored@@9@9	; `nk_text_wrap_colored'::`2'::__LINE__Var
PUBLIC	??_C@_04LOAJBDKD@true?$AA@			; `string'
PUBLIC	??_C@_05LAPONLG@false?$AA@			; `string'
PUBLIC	??_C@_06DJHOIPC@?$CFs?3?5?$CFs?$AA@		; `string'
PUBLIC	??_C@_06GBEGMGE@?$CFs?3?5?$CFd?$AA@		; `string'
PUBLIC	??_C@_06FFMNEPHE@?$CFs?3?5?$CFu?$AA@		; `string'
PUBLIC	??_C@_08KELGKKHF@?$CFs?3?5?$CF?43f?$AA@		; `string'
PUBLIC	??_C@_0BF@LMCNFMJH@?$CFs?3?5?$CI?$CFd?0?5?$CFd?0?5?$CFd?0?5?$CFd?$CJ?$AA@ ; `string'
PUBLIC	??_C@_0BN@KPPADBIM@?$CFs?3?5?$CI?$CF?42f?0?5?$CF?42f?0?5?$CF?42f?0?5?$CF?42f?$CJ?$AA@ ; `string'
PUBLIC	?__LINE__Var@?1??nk_text@@9@9			; `nk_text'::`2'::__LINE__Var
PUBLIC	?__LINE__Var@?1??nk_text_wrap@@9@9		; `nk_text_wrap'::`2'::__LINE__Var
PUBLIC	?__LINE__Var@?1??nk_image@@9@9			; `nk_image'::`2'::__LINE__Var
PUBLIC	?__LINE__Var@?1??nk_button_set_behavior@@9@9	; `nk_button_set_behavior'::`2'::__LINE__Var
PUBLIC	?__LINE__Var@?1??nk_button_push_behavior@@9@9	; `nk_button_push_behavior'::`2'::__LINE__Var
PUBLIC	??_C@_1LK@JEBCHHPP@?$AAb?$AAu?$AAt?$AAt?$AAo?$AAn?$AA_?$AAs?$AAt?$AAa?$AAc?$AAk?$AA?9?$AA?$DO?$AAh?$AAe?$AAa?$AAd?$AA?5?$AA?$DM?$AA?5?$AA?$CI?$AAi?$AAn?$AAt?$AA?$CJ?$AA?$CI?$AAs?$AAi?$AAz?$AAe?$AAo@ ; `string'
PUBLIC	?__LINE__Var@?1??nk_button_pop_behavior@@9@9	; `nk_button_pop_behavior'::`2'::__LINE__Var
PUBLIC	??_C@_1CO@FDFLJFOK@?$AAb?$AAu?$AAt?$AAt?$AAo?$AAn?$AA_?$AAs?$AAt?$AAa?$AAc?$AAk?$AA?9?$AA?$DO?$AAh?$AAe?$AAa?$AAd?$AA?5?$AA?$DO?$AA?5?$AA0?$AA?$AA@ ; `string'
PUBLIC	?__LINE__Var@?1??nk_button_text_styled@@9@9	; `nk_button_text_styled'::`2'::__LINE__Var
PUBLIC	?__LINE__Var@?1??nk_button_text@@9@9		; `nk_button_text'::`2'::__LINE__Var
PUBLIC	?__LINE__Var@?1??nk_button_color@@9@9		; `nk_button_color'::`2'::__LINE__Var
PUBLIC	?__LINE__Var@?1??nk_button_symbol_styled@@9@9	; `nk_button_symbol_styled'::`2'::__LINE__Var
PUBLIC	?__LINE__Var@?1??nk_button_symbol@@9@9		; `nk_button_symbol'::`2'::__LINE__Var
PUBLIC	?__LINE__Var@?1??nk_button_image_styled@@9@9	; `nk_button_image_styled'::`2'::__LINE__Var
PUBLIC	?__LINE__Var@?1??nk_button_image@@9@9		; `nk_button_image'::`2'::__LINE__Var
PUBLIC	?__LINE__Var@?1??nk_button_symbol_text_styled@@9@9 ; `nk_button_symbol_text_styled'::`2'::__LINE__Var
PUBLIC	?__LINE__Var@?1??nk_button_symbol_text@@9@9	; `nk_button_symbol_text'::`2'::__LINE__Var
PUBLIC	?__LINE__Var@?1??nk_button_image_text_styled@@9@9 ; `nk_button_image_text_styled'::`2'::__LINE__Var
PUBLIC	?__LINE__Var@?1??nk_selectable_text@@9@9	; `nk_selectable_text'::`2'::__LINE__Var
PUBLIC	?__LINE__Var@?1??nk_selectable_image_text@@9@9	; `nk_selectable_image_text'::`2'::__LINE__Var
PUBLIC	?__LINE__Var@?1??nk_check_text@@9@9		; `nk_check_text'::`2'::__LINE__Var
PUBLIC	?__LINE__Var@?1??nk_check_flags_text@@9@9	; `nk_check_flags_text'::`2'::__LINE__Var
PUBLIC	?__LINE__Var@?1??nk_checkbox_text@@9@9		; `nk_checkbox_text'::`2'::__LINE__Var
PUBLIC	??_C@_1O@IBNPCBAA@?$AAa?$AAc?$AAt?$AAi?$AAv?$AAe?$AA?$AA@ ; `string'
PUBLIC	?__LINE__Var@?1??nk_checkbox_flags_text@@9@9	; `nk_checkbox_flags_text'::`2'::__LINE__Var
PUBLIC	??_C@_1M@PIKEIEDD@?$AAf?$AAl?$AAa?$AAg?$AAs?$AA?$AA@ ; `string'
PUBLIC	?__LINE__Var@?1??nk_option_text@@9@9		; `nk_option_text'::`2'::__LINE__Var
PUBLIC	?__LINE__Var@?1??nk_radio_text@@9@9		; `nk_radio_text'::`2'::__LINE__Var
PUBLIC	?__LINE__Var@?1??nk_slider_float@@9@9		; `nk_slider_float'::`2'::__LINE__Var
PUBLIC	?__LINE__Var@?1??nk_progress@@9@9		; `nk_progress'::`2'::__LINE__Var
PUBLIC	??_C@_17FOGAHDKL@?$AAc?$AAu?$AAr?$AA?$AA@	; `string'
PUBLIC	?__LINE__Var@?1??nk_edit_focus@@9@9		; `nk_edit_focus'::`2'::__LINE__Var
PUBLIC	?__LINE__Var@?1??nk_edit_unfocus@@9@9		; `nk_edit_unfocus'::`2'::__LINE__Var
PUBLIC	?__LINE__Var@?1??nk_edit_string@@9@9		; `nk_edit_string'::`2'::__LINE__Var
PUBLIC	?__LINE__Var@?1??nk_edit_buffer@@9@9		; `nk_edit_buffer'::`2'::__LINE__Var
PUBLIC	??_C@_19LELMJPKF@?$AAe?$AAd?$AAi?$AAt?$AA?$AA@	; `string'
PUBLIC	?__LINE__Var@?1??nk_property@@9@9@ddf8d5d8	; `nk_property'::`2'::__LINE__Var
PUBLIC	?__LINE__Var@?1??nk_property_int@@9@9		; `nk_property_int'::`2'::__LINE__Var
PUBLIC	??_C@_17ECLKCMMF@?$AAv?$AAa?$AAl?$AA?$AA@	; `string'
PUBLIC	?__LINE__Var@?1??nk_property_float@@9@9		; `nk_property_float'::`2'::__LINE__Var
PUBLIC	?__LINE__Var@?1??nk_property_double@@9@9	; `nk_property_double'::`2'::__LINE__Var
PUBLIC	?__LINE__Var@?1??nk_propertyi@@9@9		; `nk_propertyi'::`2'::__LINE__Var
PUBLIC	?__LINE__Var@?1??nk_propertyf@@9@9		; `nk_propertyf'::`2'::__LINE__Var
PUBLIC	?__LINE__Var@?1??nk_propertyd@@9@9		; `nk_propertyd'::`2'::__LINE__Var
PUBLIC	?__LINE__Var@?1??nk_color_pick@@9@9		; `nk_color_pick'::`2'::__LINE__Var
PUBLIC	?__LINE__Var@?1??nk_chart_begin_colored@@9@9	; `nk_chart_begin_colored'::`2'::__LINE__Var
PUBLIC	?__LINE__Var@?1??nk_chart_add_slot_colored@@9@9	; `nk_chart_add_slot_colored'::`2'::__LINE__Var
PUBLIC	??_C@_1EK@IHPMBODD@?$AAc?$AAt?$AAx?$AA?9?$AA?$DO?$AAc?$AAu?$AAr?$AAr?$AAe?$AAn?$AAt?$AA?9?$AA?$DO?$AAl?$AAa?$AAy?$AAo?$AAu?$AAt?$AA?9?$AA?$DO?$AAc?$AAh?$AAa?$AAr?$AAt?$AA?4?$AAs?$AAl?$AAo?$AAt@ ; `string'
PUBLIC	?__LINE__Var@?1??nk_chart_push_line@@9@9@ddf8d5d8 ; `nk_chart_push_line'::`2'::__LINE__Var
PUBLIC	??_C@_1CM@OFPHFACA@?$AAs?$AAl?$AAo?$AAt?$AA?5?$AA?$DO?$AA?$DN?$AA?5?$AA0?$AA?5?$AA?$CG?$AA?$CG?$AA?5?$AAs?$AAl?$AAo?$AAt?$AA?5?$AA?$DM?$AA?5?$AA4?$AA?$AA@ ; `string'
PUBLIC	?__LINE__Var@?1??nk_chart_push_column@@9@9@ddf8d5d8 ; `nk_chart_push_column'::`2'::__LINE__Var
PUBLIC	?__LINE__Var@?1??nk_chart_push_slot@@9@9	; `nk_chart_push_slot'::`2'::__LINE__Var
PUBLIC	??_C@_1FA@NCCAOEEL@?$AAs?$AAl?$AAo?$AAt?$AA?5?$AA?$DM?$AA?5?$AAc?$AAt?$AAx?$AA?9?$AA?$DO?$AAc?$AAu?$AAr?$AAr?$AAe?$AAn?$AAt?$AA?9?$AA?$DO?$AAl?$AAa?$AAy?$AAo?$AAu?$AAt?$AA?9?$AA?$DO?$AAc?$AAh?$AAa@ ; `string'
PUBLIC	?__LINE__Var@?1??nk_chart_end@@9@9		; `nk_chart_end'::`2'::__LINE__Var
PUBLIC	?__LINE__Var@?1??nk_plot@@9@9			; `nk_plot'::`2'::__LINE__Var
PUBLIC	??_C@_1O@IBMGLEDN@?$AAv?$AAa?$AAl?$AAu?$AAe?$AAs?$AA?$AA@ ; `string'
PUBLIC	?__LINE__Var@?1??nk_plot_function@@9@9		; `nk_plot_function'::`2'::__LINE__Var
PUBLIC	??_C@_1BK@MGBAIKDD@?$AAv?$AAa?$AAl?$AAu?$AAe?$AA_?$AAg?$AAe?$AAt?$AAt?$AAe?$AAr?$AA?$AA@ ; `string'
PUBLIC	?__LINE__Var@?1??nk_group_scrolled_end@@9@9	; `nk_group_scrolled_end'::`2'::__LINE__Var
PUBLIC	??_C@_1BI@MGIMHMOI@?$AAw?$AAi?$AAn?$AA?9?$AA?$DO?$AAl?$AAa?$AAy?$AAo?$AAu?$AAt?$AA?$AA@ ; `string'
PUBLIC	??_C@_1BE@KEJBMHNG@?$AAg?$AA?9?$AA?$DO?$AAp?$AAa?$AAr?$AAe?$AAn?$AAt?$AA?$AA@ ; `string'
PUBLIC	?__LINE__Var@?1??nk_group_begin@@9@9		; `nk_group_begin'::`2'::__LINE__Var
PUBLIC	??_C@_1BC@FPAKBMPJ@?$AAx?$AA_?$AAo?$AAf?$AAf?$AAs?$AAe?$AAt?$AA?$AA@ ; `string'
PUBLIC	??_C@_1BC@LAFIKKBI@?$AAy?$AA_?$AAo?$AAf?$AAf?$AAs?$AAe?$AAt?$AA?$AA@ ; `string'
PUBLIC	?__LINE__Var@?1??nk_list_view_begin@@9@9	; `nk_list_view_begin'::`2'::__LINE__Var
PUBLIC	??_C@_19IGFHNPAK@?$AAv?$AAi?$AAe?$AAw?$AA?$AA@	; `string'
PUBLIC	?__LINE__Var@?1??nk_list_view_end@@9@9		; `nk_list_view_end'::`2'::__LINE__Var
PUBLIC	??_C@_1BE@PIEBDDFH@?$AAv?$AAi?$AAe?$AAw?$AA?9?$AA?$DO?$AAc?$AAt?$AAx?$AA?$AA@ ; `string'
PUBLIC	??_C@_1CK@PJMKKIBM@?$AAv?$AAi?$AAe?$AAw?$AA?9?$AA?$DO?$AAs?$AAc?$AAr?$AAo?$AAl?$AAl?$AA_?$AAp?$AAo?$AAi?$AAn?$AAt?$AAe?$AAr?$AA?$AA@ ; `string'
PUBLIC	?__LINE__Var@?1??nk_popup_begin@@9@9		; `nk_popup_begin'::`2'::__LINE__Var
PUBLIC	??_C@_0CG@PGMENGHG@popups?5are?5not?5allowed?5to?5have?5p@ ; `string'
PUBLIC	??_C@_1JO@DBBBPONP@?$AA?$CB?$AA?$CI?$AAp?$AAa?$AAn?$AAe?$AAl?$AA?9?$AA?$DO?$AAt?$AAy?$AAp?$AAe?$AA?5?$AA?$CG?$AA?5?$AAN?$AAK?$AA_?$AAP?$AAA?$AAN?$AAE?$AAL?$AA_?$AAS?$AAE?$AAT?$AA_?$AAP?$AAO?$AAP@ ; `string'
PUBLIC	?__LINE__Var@?1??nk_nonblock_begin@@9@9@ddf8d5d8 ; `nk_nonblock_begin'::`2'::__LINE__Var
PUBLIC	??_C@_1EI@JEAJFHEO@?$AA?$CB?$AA?$CI?$AAp?$AAa?$AAn?$AAe?$AAl?$AA?9?$AA?$DO?$AAt?$AAy?$AAp?$AAe?$AA?5?$AA?$CG?$AA?5?$AAN?$AAK?$AA_?$AAP?$AAA?$AAN?$AAE?$AAL?$AA_?$AAS?$AAE?$AAT?$AA_?$AAP?$AAO?$AAP@ ; `string'
PUBLIC	??_C@_1BM@OHHEFNGN@?$AAp?$AAo?$AAp?$AAu?$AAp?$AA?9?$AA?$DO?$AAl?$AAa?$AAy?$AAo?$AAu?$AAt?$AA?$AA@ ; `string'
PUBLIC	?__LINE__Var@?1??nk_popup_close@@9@9		; `nk_popup_close'::`2'::__LINE__Var
PUBLIC	??_C@_1BM@KLACOFEL@?$AAp?$AAo?$AAp?$AAu?$AAp?$AA?9?$AA?$DO?$AAp?$AAa?$AAr?$AAe?$AAn?$AAt?$AA?$AA@ ; `string'
PUBLIC	??_C@_1FC@NEPNGFGJ@?$AAp?$AAo?$AAp?$AAu?$AAp?$AA?9?$AA?$DO?$AAl?$AAa?$AAy?$AAo?$AAu?$AAt?$AA?9?$AA?$DO?$AAt?$AAy?$AAp?$AAe?$AA?5?$AA?$CG?$AA?5?$AAN?$AAK?$AA_?$AAP?$AAA?$AAN?$AAE?$AAL?$AA_?$AAS@ ; `string'
PUBLIC	?__LINE__Var@?1??nk_popup_end@@9@9		; `nk_popup_end'::`2'::__LINE__Var
PUBLIC	?__LINE__Var@?1??nk_tooltip_begin@@9@9		; `nk_tooltip_begin'::`2'::__LINE__Var
PUBLIC	??_C@_0BA@FIOIOCM@__?$CD?$CDTooltip?$CD?$CD__?$AA@ ; `string'
PUBLIC	?__LINE__Var@?1??nk_tooltip_end@@9@9		; `nk_tooltip_end'::`2'::__LINE__Var
PUBLIC	?__LINE__Var@?1??nk_tooltip@@9@9		; `nk_tooltip'::`2'::__LINE__Var
PUBLIC	?__LINE__Var@?1??nk_contextual_begin@@9@9	; `nk_contextual_begin'::`2'::__LINE__Var
PUBLIC	?__LINE__Var@?1??nk_contextual_item_text@@9@9	; `nk_contextual_item_text'::`2'::__LINE__Var
PUBLIC	?__LINE__Var@?1??nk_contextual_item_image_text@@9@9 ; `nk_contextual_item_image_text'::`2'::__LINE__Var
PUBLIC	?__LINE__Var@?1??nk_contextual_item_symbol_text@@9@9 ; `nk_contextual_item_symbol_text'::`2'::__LINE__Var
PUBLIC	?__LINE__Var@?1??nk_contextual_close@@9@9	; `nk_contextual_close'::`2'::__LINE__Var
PUBLIC	?__LINE__Var@?1??nk_contextual_end@@9@9		; `nk_contextual_end'::`2'::__LINE__Var
PUBLIC	??_C@_1EC@DJLEFCBF@?$AAp?$AAa?$AAn?$AAe?$AAl?$AA?9?$AA?$DO?$AAt?$AAy?$AAp?$AAe?$AA?5?$AA?$CG?$AA?5?$AAN?$AAK?$AA_?$AAP?$AAA?$AAN?$AAE?$AAL?$AA_?$AAS?$AAE?$AAT?$AA_?$AAP?$AAO?$AAP?$AAU?$AAP@ ; `string'
PUBLIC	?__LINE__Var@?1??nk_combo_begin@@9@9@ddf8d5d8	; `nk_combo_begin'::`2'::__LINE__Var
PUBLIC	?__LINE__Var@?1??nk_combo_begin_text@@9@9	; `nk_combo_begin_text'::`2'::__LINE__Var
PUBLIC	??_C@_1BC@BAHMPCLB@?$AAs?$AAe?$AAl?$AAe?$AAc?$AAt?$AAe?$AAd?$AA?$AA@ ; `string'
PUBLIC	?__LINE__Var@?1??nk_combo_begin_color@@9@9	; `nk_combo_begin_color'::`2'::__LINE__Var
PUBLIC	?__LINE__Var@?1??nk_combo_begin_symbol@@9@9	; `nk_combo_begin_symbol'::`2'::__LINE__Var
PUBLIC	?__LINE__Var@?1??nk_combo_begin_symbol_text@@9@9 ; `nk_combo_begin_symbol_text'::`2'::__LINE__Var
PUBLIC	?__LINE__Var@?1??nk_combo_begin_image@@9@9	; `nk_combo_begin_image'::`2'::__LINE__Var
PUBLIC	?__LINE__Var@?1??nk_combo_begin_image_text@@9@9	; `nk_combo_begin_image_text'::`2'::__LINE__Var
PUBLIC	?__LINE__Var@?1??nk_combo@@9@9			; `nk_combo'::`2'::__LINE__Var
PUBLIC	??_C@_1M@JLJIPHMC@?$AAi?$AAt?$AAe?$AAm?$AAs?$AA?$AA@ ; `string'
PUBLIC	?__LINE__Var@?1??nk_combo_separator@@9@9	; `nk_combo_separator'::`2'::__LINE__Var
PUBLIC	??_C@_1DK@MJNAGHOF@?$AAi?$AAt?$AAe?$AAm?$AAs?$AA_?$AAs?$AAe?$AAp?$AAa?$AAr?$AAa?$AAt?$AAe?$AAd?$AA_?$AAb?$AAy?$AA_?$AAs?$AAe?$AAp?$AAa?$AAr?$AAa?$AAt?$AAo?$AAr?$AA?$AA@ ; `string'
PUBLIC	?__LINE__Var@?1??nk_combo_callback@@9@9		; `nk_combo_callback'::`2'::__LINE__Var
PUBLIC	??_C@_1BI@CBJAPKKM@?$AAi?$AAt?$AAe?$AAm?$AA_?$AAg?$AAe?$AAt?$AAt?$AAe?$AAr?$AA?$AA@ ; `string'
PUBLIC	?__LINE__Var@?1??nk_menu_begin@@9@9@ddf8d5d8	; `nk_menu_begin'::`2'::__LINE__Var
PUBLIC	?__LINE__Var@?1??nk_menu_begin_text@@9@9	; `nk_menu_begin_text'::`2'::__LINE__Var
PUBLIC	?__LINE__Var@?1??nk_menu_begin_image@@9@9	; `nk_menu_begin_image'::`2'::__LINE__Var
PUBLIC	?__LINE__Var@?1??nk_menu_begin_symbol@@9@9	; `nk_menu_begin_symbol'::`2'::__LINE__Var
PUBLIC	?__LINE__Var@?1??nk_menu_begin_image_text@@9@9	; `nk_menu_begin_image_text'::`2'::__LINE__Var
PUBLIC	?__LINE__Var@?1??nk_menu_begin_symbol_text@@9@9	; `nk_menu_begin_symbol_text'::`2'::__LINE__Var
PUBLIC	?__LINE__Var@?1??nk_sdl_device_create@@9@9	; `nk_sdl_device_create'::`2'::__LINE__Var
PUBLIC	??_C@_1HM@DKHOBLCB@?$AAc?$AA?3?$AA?2?$AAu?$AAs?$AAe?$AAr?$AAs?$AA?2?$AAm?$AAa?$AAr?$AAc?$AAo?$AAs?$AA?2?$AAd?$AAe?$AAs?$AAk?$AAt?$AAo?$AAp?$AA?2?$AAp?$AAr?$AAj?$AA?2?$AAm?$AAg?$AAe?$AAa@ ; `string'
PUBLIC	??_C@_1CE@FPHDOHKN@?$AAs?$AAt?$AAa?$AAt?$AAu?$AAs?$AA?5?$AA?$DN?$AA?$DN?$AA?5?$AAG?$AAL?$AA_?$AAT?$AAR?$AAU?$AAE?$AA?$AA@ ; `string'
PUBLIC	??_C@_07GKACAEDJ@Texture?$AA@			; `string'
PUBLIC	??_C@_07EDEMHDKD@ProjMtx?$AA@			; `string'
PUBLIC	??_C@_08GCJNLIKG@Position?$AA@			; `string'
PUBLIC	??_C@_08NGMLKGCO@TexCoord?$AA@			; `string'
PUBLIC	??_C@_05PDOBBJNA@Color?$AA@			; `string'
PUBLIC	??_C@_01NOFIACDB@w?$AA@				; `string'
PUBLIC	??_C@_0N@DBJPLNLE@settings?4cfg?$AA@		; `string'
PUBLIC	??_C@_0O@JOAMFABP@ScreenX?5?$DN?5?$CFd?6?$AA@	; `string'
PUBLIC	??_C@_0O@FCKGFAIB@ScreenY?5?$DN?5?$CFd?6?$AA@	; `string'
PUBLIC	??_C@_0BB@PFGCCBAA@FullScreen?5?$DN?5?$CFd?6?$AA@ ; `string'
PUBLIC	??_C@_0BA@CCGGOMJJ@ScreenBPP?5?$DN?5?$CFd?6?$AA@ ; `string'
PUBLIC	??_C@_0BF@LFBKPFPE@AudioFrequency?5?$DN?5?$CFd?6?$AA@ ; `string'
PUBLIC	??_C@_0BE@OAMPIJBI@AudioChannels?5?$DN?5?$CFd?6?$AA@ ; `string'
PUBLIC	??_C@_0M@OCOMPIPE@VSync?5?$DN?5?$CFd?6?$AA@	; `string'
PUBLIC	??_C@_01KDCPPGHE@r?$AA@				; `string'
PUBLIC	??_C@_07DHPDHKIF@?$CFs?5?$DN?5?$CFd?$AA@	; `string'
PUBLIC	??_C@_07NAMBOAHL@ScreenX?$AA@			; `string'
PUBLIC	??_C@_07MJNKNBDK@ScreenY?$AA@			; `string'
PUBLIC	??_C@_09IFGCFGJL@ScreenBPP?$AA@			; `string'
PUBLIC	??_C@_0L@CBCDGBIF@FullScreen?$AA@		; `string'
PUBLIC	??_C@_0P@HHDALPEH@AudioFrequency?$AA@		; `string'
PUBLIC	??_C@_0O@OBADIEME@AudioChannels?$AA@		; `string'
PUBLIC	??_C@_05PBPHDBPF@VSync?$AA@			; `string'
PUBLIC	??_C@_0M@PGCPLEOJ@CurrentPath?$AA@		; `string'
PUBLIC	??_C@_01BJJEKLCA@?$CC?$AA@			; `string'
PUBLIC	??_C@_0BK@DEPFCNDH@Coulnd?5not?5open?5directory?$AA@ ; `string'
PUBLIC	??_C@_02EKCPACEK@R?3?$AA@			; `string'
PUBLIC	??_C@_02FAMCGDNB@G?3?$AA@			; `string'
PUBLIC	??_C@_02FGAJKBDK@B?3?$AA@			; `string'
PUBLIC	??_C@_0N@DPGJHAPF@File?5Browser?$AA@		; `string'
PUBLIC	??_C@_01MNNFJEPP@?$DM?$AA@			; `string'
PUBLIC	??_C@_01PPODPGHN@?$DO?$AA@			; `string'
PUBLIC	??_C@_01JKBOJNNK@?$FO?$AA@			; `string'
PUBLIC	??_C@_0L@CPNGGKOP@New?5Folder?$AA@		; `string'
PUBLIC	??_C@_07ICAJMOAO@content?$AA@			; `string'
PUBLIC	??_C@_04DNCDCIAE@Open?$AA@			; `string'
PUBLIC	??_C@_01KICIPPFI@?2?$AA@			; `string'
PUBLIC	??_C@_06FMBNCPDL@Cancel?$AA@			; `string'
PUBLIC	??_C@_0DC@KBKJHOEA@Image?5Files?$AA?$CK?4png?$DL?$CK?4jpg?$DL?$CK?4tga?$DL?$CK?4@ ; `string'
PUBLIC	??_C@_0BK@HHEIJDCK@Select?5textures?5to?5import?$AA@ ; `string'
PUBLIC	??_C@_0BH@CIGIGAMK@Create?5new?5MGG?5project?$AA@ ; `string'
PUBLIC	??_C@_06FEFKNJEJ@Browse?$AA@			; `string'
PUBLIC	??_C@_0BL@HJHOAKN@Select?5your?5project?5folder?$AA@ ; `string'
PUBLIC	??_C@_0BA@JEDADDEO@Import?5textures?$AA@	; `string'
PUBLIC	??_C@_01CLKCMJKC@?5?$AA@			; `string'
PUBLIC	??_C@_0BP@IDPDHAJP@Import?5normal?5mapping?5textures?$AA@ ; `string'
PUBLIC	??_C@_0CJ@HPCPPJKE@Select?5normal?5mapping?5textures?5t@ ; `string'
PUBLIC	??_C@_0BC@NLPHFHFE@Selected?5textures?$AA@	; `string'
PUBLIC	??_C@_02DPKJAMEF@?$CFd?$AA@			; `string'
PUBLIC	??_C@_0BF@DCHLKLBM@Selected?5normal?5maps?$AA@	; `string'
PUBLIC	??_C@_0BE@PFCBBNJE@Texture?5compression?$AA@	; `string'
PUBLIC	??_C@_04OHJIHAFH@None?$AA@			; `string'
PUBLIC	??_C@_0N@NIDFKEBJ@RLE?5?$CIfaster?$CJ?$AA@	; `string'
PUBLIC	??_C@_0BI@KFCNKMHJ@Texture?5mipmap?5?$CIfilter?$CJ?$AA@ ; `string'
PUBLIC	??_C@_07COOCJBJB@Nearest?$AA@			; `string'
PUBLIC	??_C@_06LACFBFGA@Linear?$AA@			; `string'
PUBLIC	??_C@_06MIKANEJK@Create?$AA@			; `string'
PUBLIC	??_C@_04IFEHPILC@Menu?$AA@			; `string'
PUBLIC	??_C@_04PBAHLACE@File?$AA@			; `string'
PUBLIC	??_C@_07LDBEDBB@New?5MGG?$AA@			; `string'
PUBLIC	??_C@_0BC@FLINIBDA@Open?5MGG?5txt?5file?$AA@	; `string'
PUBLIC	??_C@_04INACKGJP@Save?$AA@			; `string'
PUBLIC	??_C@_0L@JLONELEP@Save?5as?4?4?4?$AA@		; `string'
PUBLIC	??_C@_0M@GNJIJMPA@Compile?5MGG?$AA@		; `string'
PUBLIC	??_C@_04LBABLPF@Exit?$AA@			; `string'
PUBLIC	??_C@_04BBNPPDNC@Edit?$AA@			; `string'
PUBLIC	??_C@_0M@PIPCPMLP@Preferences?$AA@		; `string'
PUBLIC	??_C@_0P@FOGACOBA@MGG?5properties?$AA@		; `string'
PUBLIC	??_C@_04DDFEFHOJ@Help?$AA@			; `string'
PUBLIC	??_C@_05BDOHFCKE@About?$AA@			; `string'
PUBLIC	??_C@_0BB@FGHOOFIP@Sprite?5Selection?$AA@	; `string'
PUBLIC	??_C@_06MNNGKIJJ@SPRSEL?$AA@			; `string'
PUBLIC	??_C@_0M@ICNCCMBH@Left?5Pannel?$AA@		; `string'
PUBLIC	??_C@_04OFFCAMCD@Test?$AA@			; `string'
PUBLIC	??_C@_06PBIJCONE@Canvas?$AA@			; `string'
PUBLIC	??_C@_0O@GPCDBPIH@Animation?5Box?$AA@		; `string'
PUBLIC	??_C@_1HG@JKFDANAL@?$AAE?$AAr?$AAr?$AAo?$AAr?$AA?5?$AAw?$AAh?$AAi?$AAl?$AAe?$AA?5?$AAt?$AAr?$AAy?$AAi?$AAn?$AAg?$AA?5?$AAt?$AAo?$AA?5?$AAr?$AAe?$AAa?$AAd?$AA?5?$AAo?$AAr?$AA?5?$AAw?$AAr@ ; `string'
PUBLIC	??_C@_09PJHAHPG@Tex?5ALPHA?$AA@			; `string'
PUBLIC	??_C@_05MIPEAMDJ@arial?$AA@			; `string'
PUBLIC	??_C@_0BI@HHEBJCKC@font?1Roboto?9Regular?4ttf?$AA@ ; `string'
PUBLIC	??_C@_0L@JAEOLJKM@arial?5bold?$AA@		; `string'
PUBLIC	??_C@_0BF@DCPHDOKH@font?1Roboto?9Bold?4ttf?$AA@	; `string'
PUBLIC	??_C@_0BA@GLINHHCI@data?1mEngUI?4mgg?$AA@	; `string'
PUBLIC	??_C@_0BG@KBDHGKMD@Could?5not?5open?5UI?5mgg?$AA@ ; `string'
PUBLIC	??_C@_0L@EMLOAAHA@UI_Sys?4cfg?$AA@		; `string'
PUBLIC	__real@00000000
PUBLIC	__real@0000000000000000
PUBLIC	__real@1e3ce508
PUBLIC	__real@358637bd
PUBLIC	__real@3ba3d70a
PUBLIC	__real@3c23d70a
PUBLIC	__real@3d06849b86a12b9b
PUBLIC	__real@3d4ccccd
PUBLIC	__real@3da3d70a
PUBLIC	__real@3db851ec
PUBLIC	__real@3dcccccd
PUBLIC	__real@3e19999a
PUBLIC	__real@3e2aaaab
PUBLIC	__real@3e3851ec
PUBLIC	__real@3e4ccccd
PUBLIC	__real@3e800000
PUBLIC	__real@3e8a3d71
PUBLIC	__real@3eb33333
PUBLIC	__real@3f000000
PUBLIC	__real@3f333333
PUBLIC	__real@3f4ccccd
PUBLIC	__real@3f59999a
PUBLIC	__real@3f666666
PUBLIC	__real@3f6b851f
PUBLIC	__real@3f7d70a4
PUBLIC	__real@3f800000
PUBLIC	__real@3fb999999999999a
PUBLIC	__real@3fc00000
PUBLIC	__real@3ff0000000000000
PUBLIC	__real@40000000
PUBLIC	__real@4024000000000000
PUBLIC	__real@40400000
PUBLIC	__real@40490fdb
PUBLIC	__real@40800000
PUBLIC	__real@40c00000
PUBLIC	__real@40c90fdb
PUBLIC	__real@40e00000
PUBLIC	__real@41000000
PUBLIC	__real@41200000
PUBLIC	__real@41400000
PUBLIC	__real@41500000
PUBLIC	__real@41700000
PUBLIC	__real@41800000
PUBLIC	__real@41c80000
PUBLIC	__real@41f00000
PUBLIC	__real@42340000
PUBLIC	__real@42800000
PUBLIC	__real@42c80000
PUBLIC	__real@42f00000
PUBLIC	__real@42fe0000
PUBLIC	__real@43480000
PUBLIC	__real@43520000
PUBLIC	__real@437a0000
PUBLIC	__real@437f0000
PUBLIC	__real@43800000
PUBLIC	__real@43c30000
PUBLIC	__real@43e10000
PUBLIC	__real@44000000
PUBLIC	__real@4400c000
PUBLIC	__real@44160000
PUBLIC	__real@44480000
PUBLIC	__real@46800000
PUBLIC	__real@46fffe00
PUBLIC	__real@47000000
PUBLIC	__real@477fff00
PUBLIC	__real@4f000000
PUBLIC	__real@4f800000
PUBLIC	__real@beaaaaab
PUBLIC	__real@bf800000
PUBLIC	__real@bff0000000000000
PUBLIC	__real@c0000000
PUBLIC	__real@c2fe0000
PUBLIC	__real@c6fffe00
PUBLIC	__real@cf000000
PUBLIC	__xmm@41f00000000000000000000000000000
PUBLIC	__xmm@80000000000000008000000000000000
PUBLIC	__xmm@80000000800000008000000080000000
EXTRN	___report_rangecheckfailure:PROC
EXTRN	_memcpy:PROC
EXTRN	_memset:PROC
EXTRN	_strcpy:PROC
EXTRN	_strcat:PROC
EXTRN	_strcmp:PROC
EXTRN	_strlen:PROC
EXTRN	_strtok:PROC
EXTRN	__imp__FindClose@4:PROC
EXTRN	__imp__FindFirstFileW@8:PROC
EXTRN	__imp__FindNextFileW@8:PROC
EXTRN	__imp__GetFullPathNameW@16:PROC
EXTRN	__imp__MessageBoxA@16:PROC
EXTRN	__set_errno:PROC
EXTRN	_mbstowcs_s:PROC
EXTRN	_wcstombs_s:PROC
EXTRN	_free:PROC
EXTRN	_malloc:PROC
EXTRN	__imp__GetOpenFileNameA@4:PROC
EXTRN	__imp__SHGetPathFromIDListA@8:PROC
EXTRN	__imp__SHBrowseForFolderA@4:PROC
EXTRN	__imp__glBindTexture@8:PROC
EXTRN	__imp__glDeleteTextures@8:PROC
EXTRN	__imp__glDisable@4:PROC
EXTRN	__imp__glDrawElements@16:PROC
EXTRN	__imp__glEnable@4:PROC
EXTRN	__imp__glGenTextures@8:PROC
EXTRN	__imp__glScissor@16:PROC
EXTRN	__imp__glTexImage2D@36:PROC
EXTRN	__imp__glTexParameteri@12:PROC
EXTRN	__imp__glViewport@16:PROC
EXTRN	_SDL_SetClipboardText:PROC
EXTRN	_SDL_GetClipboardText:PROC
EXTRN	_SDL_GetWindowSize:PROC
EXTRN	_SDL_GL_GetDrawableSize:PROC
EXTRN	_SDL_GL_SwapWindow:PROC
EXTRN	_SDL_GetKeyboardState:PROC
EXTRN	_SDL_PollEvent:PROC
EXTRN	_SDL_Log:PROC
EXTRN	_SDL_GetTicks:PROC
EXTRN	_fclose:PROC
EXTRN	_feof:PROC
EXTRN	_fgets:PROC
EXTRN	_fopen:PROC
EXTRN	_fprintf:PROC
EXTRN	_fread:PROC
EXTRN	_fseek:PROC
EXTRN	_ftell:PROC
EXTRN	_sscanf:PROC
EXTRN	_sprintf:PROC
EXTRN	_vsprintf:PROC
EXTRN	_Init:PROC
EXTRN	_OpenFont:PROC
EXTRN	_Quit:PROC
EXTRN	_LoadMGG:PROC
EXTRN	_InitMGG:PROC
EXTRN	@SetTimerM@8:PROC
EXTRN	@GetTimerM@0:PROC
EXTRN	_FPSCounter:PROC
EXTRN	_BASICBKD:PROC
EXTRN	_Renderer:PROC
EXTRN	_Finish:PROC
EXTRN	_DrawSys:PROC
EXTRN	_ceil:PROC
EXTRN	_UIMain_DrawSystem:PROC
EXTRN	_UILoadSystem:PROC
EXTRN	_SetDirContent:PROC
EXTRN	__wassert:PROC
EXTRN	_WindowEvents:PROC
EXTRN	@_RTC_CheckStackVars@8:PROC
EXTRN	@__security_check_cookie@4:PROC
EXTRN	__RTC_CheckEsp:PROC
EXTRN	__RTC_InitBase:PROC
EXTRN	__RTC_Shutdown:PROC
EXTRN	__chkstk:PROC
EXTRN	__ftoui3:PROC
EXTRN	_GLeeFuncPtr_glActiveTexture:DWORD
EXTRN	_GLeeFuncPtr_glBindBuffer:DWORD
EXTRN	_GLeeFuncPtr_glDeleteBuffers:DWORD
EXTRN	_GLeeFuncPtr_glGenBuffers:DWORD
EXTRN	_GLeeFuncPtr_glBufferData:DWORD
EXTRN	_GLeeFuncPtr_glMapBuffer:DWORD
EXTRN	_GLeeFuncPtr_glUnmapBuffer:DWORD
EXTRN	_GLeeFuncPtr_glAttachShader:DWORD
EXTRN	_GLeeFuncPtr_glCompileShader:DWORD
EXTRN	_GLeeFuncPtr_glCreateProgram:DWORD
EXTRN	_GLeeFuncPtr_glCreateShader:DWORD
EXTRN	_GLeeFuncPtr_glDeleteProgram:DWORD
EXTRN	_GLeeFuncPtr_glDeleteShader:DWORD
EXTRN	_GLeeFuncPtr_glDetachShader:DWORD
EXTRN	_GLeeFuncPtr_glEnableVertexAttribArray:DWORD
EXTRN	_GLeeFuncPtr_glGetAttribLocation:DWORD
EXTRN	_GLeeFuncPtr_glGetProgramiv:DWORD
EXTRN	_GLeeFuncPtr_glGetShaderiv:DWORD
EXTRN	_GLeeFuncPtr_glGetUniformLocation:DWORD
EXTRN	_GLeeFuncPtr_glLinkProgram:DWORD
EXTRN	_GLeeFuncPtr_glShaderSource:DWORD
EXTRN	_GLeeFuncPtr_glUseProgram:DWORD
EXTRN	_GLeeFuncPtr_glUniform1i:DWORD
EXTRN	_GLeeFuncPtr_glUniformMatrix4fv:DWORD
EXTRN	_GLeeFuncPtr_glVertexAttribPointer:DWORD
EXTRN	_GLeeFuncPtr_glBindVertexArray:DWORD
EXTRN	_GLeeFuncPtr_glGenVertexArrays:DWORD
EXTRN	_st:BYTE
EXTRN	_events:BYTE
EXTRN	_mgg_sys:BYTE
EXTRN	_mgg_game:BYTE
EXTRN	_wn:DWORD
EXTRN	_UI_Sys:BYTE
EXTRN	___security_cookie:DWORD
EXTRN	__fltused:DWORD
_BSS	SEGMENT
_nk__barrier DD	01H DUP (?)
_nk__barrier2 DD 01H DUP (?)
_nk__barrier3 DD 01H DUP (?)
_nk__barrier4 DD 01H DUP (?)
_nk__dout DD	01H DUP (?)
_sdl	DB	0343cH DUP (?)
?lenpath@?1??FileBrowser@@9@9 DD 01H DUP (?)		; `FileBrowser'::`2'::lenpath
?backpath@?1??FileBrowser@@9@9 DB 0800H DUP (?)		; `FileBrowser'::`2'::backpath
?fowardpath@?1??FileBrowser@@9@9 DB 0800H DUP (?)	; `FileBrowser'::`2'::fowardpath
?temp@?1??FileBrowser@@9@9 DB 0800H DUP (?)		; `FileBrowser'::`2'::temp
?path2@?1??NewMGGBox@@9@9 DB 0104H DUP (?)		; `NewMGGBox'::`2'::path2
?tex@?1??NewMGGBox@@9@9 DB 020800H DUP (?)		; `NewMGGBox'::`2'::tex
?tex_n@?1??NewMGGBox@@9@9 DB 020800H DUP (?)		; `NewMGGBox'::`2'::tex_n
?path3@?1??NewMGGBox@@9@9 DB 0104H DUP (?)		; `NewMGGBox'::`2'::path3
?str@?1??NewMGGBox@@9@9 DB 020H DUP (?)			; `NewMGGBox'::`2'::str
?tex_names@?1??NewMGGBox@@9@9 DB 04000H DUP (?)		; `NewMGGBox'::`2'::tex_names
?tex_n_names@?1??NewMGGBox@@9@9 DB 04020H DUP (?)	; `NewMGGBox'::`2'::tex_n_names
?len@?1??NewMGGBox@@9@9 DD 01H DUP (?)			; `NewMGGBox'::`2'::len
?pidl@?1??NewMGGBox@@9@9 DD 01H DUP (?)			; `NewMGGBox'::`2'::pidl
?path@?1??MenuBar@@9@9 DB 0104H DUP (?)			; `MenuBar'::`2'::path
?pidl@?1??MenuBar@@9@9 DD 01H DUP (?)			; `MenuBar'::`2'::pidl
_BSS	ENDS
;	COMDAT __xmm@80000000800000008000000080000000
CONST	SEGMENT
__xmm@80000000800000008000000080000000 DB 00H, 00H, 00H, 080H, 00H, 00H, 00H
	DB	080H, 00H, 00H, 00H, 080H, 00H, 00H, 00H, 080H
CONST	ENDS
;	COMDAT __xmm@80000000000000008000000000000000
CONST	SEGMENT
__xmm@80000000000000008000000000000000 DB 00H, 00H, 00H, 00H, 00H, 00H, 00H
	DB	080H, 00H, 00H, 00H, 00H, 00H, 00H, 00H, 080H
CONST	ENDS
;	COMDAT __xmm@41f00000000000000000000000000000
CONST	SEGMENT
__xmm@41f00000000000000000000000000000 DB 00H, 00H, 00H, 00H, 00H, 00H, 00H
	DB	00H, 00H, 00H, 00H, 00H, 00H, 00H, 0f0H, 'A'
CONST	ENDS
;	COMDAT __real@cf000000
CONST	SEGMENT
__real@cf000000 DD 0cf000000r			; -2.14748e+009
CONST	ENDS
;	COMDAT __real@c6fffe00
CONST	SEGMENT
__real@c6fffe00 DD 0c6fffe00r			; -32767
CONST	ENDS
;	COMDAT __real@c2fe0000
CONST	SEGMENT
__real@c2fe0000 DD 0c2fe0000r			; -127
CONST	ENDS
;	COMDAT __real@c0000000
CONST	SEGMENT
__real@c0000000 DD 0c0000000r			; -2
CONST	ENDS
;	COMDAT __real@bff0000000000000
CONST	SEGMENT
__real@bff0000000000000 DQ 0bff0000000000000r	; -1
CONST	ENDS
;	COMDAT __real@bf800000
CONST	SEGMENT
__real@bf800000 DD 0bf800000r			; -1
CONST	ENDS
;	COMDAT __real@beaaaaab
CONST	SEGMENT
__real@beaaaaab DD 0beaaaaabr			; -0.333333
CONST	ENDS
;	COMDAT __real@4f800000
CONST	SEGMENT
__real@4f800000 DD 04f800000r			; 4.29497e+009
CONST	ENDS
;	COMDAT __real@4f000000
CONST	SEGMENT
__real@4f000000 DD 04f000000r			; 2.14748e+009
CONST	ENDS
;	COMDAT __real@477fff00
CONST	SEGMENT
__real@477fff00 DD 0477fff00r			; 65535
CONST	ENDS
;	COMDAT __real@47000000
CONST	SEGMENT
__real@47000000 DD 047000000r			; 32768
CONST	ENDS
;	COMDAT __real@46fffe00
CONST	SEGMENT
__real@46fffe00 DD 046fffe00r			; 32767
CONST	ENDS
;	COMDAT __real@46800000
CONST	SEGMENT
__real@46800000 DD 046800000r			; 16384
CONST	ENDS
;	COMDAT __real@44480000
CONST	SEGMENT
__real@44480000 DD 044480000r			; 800
CONST	ENDS
;	COMDAT __real@44160000
CONST	SEGMENT
__real@44160000 DD 044160000r			; 600
CONST	ENDS
;	COMDAT __real@4400c000
CONST	SEGMENT
__real@4400c000 DD 04400c000r			; 515
CONST	ENDS
;	COMDAT __real@44000000
CONST	SEGMENT
__real@44000000 DD 044000000r			; 512
CONST	ENDS
;	COMDAT __real@43e10000
CONST	SEGMENT
__real@43e10000 DD 043e10000r			; 450
CONST	ENDS
;	COMDAT __real@43c30000
CONST	SEGMENT
__real@43c30000 DD 043c30000r			; 390
CONST	ENDS
;	COMDAT __real@43800000
CONST	SEGMENT
__real@43800000 DD 043800000r			; 256
CONST	ENDS
;	COMDAT __real@437f0000
CONST	SEGMENT
__real@437f0000 DD 0437f0000r			; 255
CONST	ENDS
;	COMDAT __real@437a0000
CONST	SEGMENT
__real@437a0000 DD 0437a0000r			; 250
CONST	ENDS
;	COMDAT __real@43520000
CONST	SEGMENT
__real@43520000 DD 043520000r			; 210
CONST	ENDS
;	COMDAT __real@43480000
CONST	SEGMENT
__real@43480000 DD 043480000r			; 200
CONST	ENDS
;	COMDAT __real@42fe0000
CONST	SEGMENT
__real@42fe0000 DD 042fe0000r			; 127
CONST	ENDS
;	COMDAT __real@42f00000
CONST	SEGMENT
__real@42f00000 DD 042f00000r			; 120
CONST	ENDS
;	COMDAT __real@42c80000
CONST	SEGMENT
__real@42c80000 DD 042c80000r			; 100
CONST	ENDS
;	COMDAT __real@42800000
CONST	SEGMENT
__real@42800000 DD 042800000r			; 64
CONST	ENDS
;	COMDAT __real@42340000
CONST	SEGMENT
__real@42340000 DD 042340000r			; 45
CONST	ENDS
;	COMDAT __real@41f00000
CONST	SEGMENT
__real@41f00000 DD 041f00000r			; 30
CONST	ENDS
;	COMDAT __real@41c80000
CONST	SEGMENT
__real@41c80000 DD 041c80000r			; 25
CONST	ENDS
;	COMDAT __real@41800000
CONST	SEGMENT
__real@41800000 DD 041800000r			; 16
CONST	ENDS
;	COMDAT __real@41700000
CONST	SEGMENT
__real@41700000 DD 041700000r			; 15
CONST	ENDS
;	COMDAT __real@41500000
CONST	SEGMENT
__real@41500000 DD 041500000r			; 13
CONST	ENDS
;	COMDAT __real@41400000
CONST	SEGMENT
__real@41400000 DD 041400000r			; 12
CONST	ENDS
;	COMDAT __real@41200000
CONST	SEGMENT
__real@41200000 DD 041200000r			; 10
CONST	ENDS
;	COMDAT __real@41000000
CONST	SEGMENT
__real@41000000 DD 041000000r			; 8
CONST	ENDS
;	COMDAT __real@40e00000
CONST	SEGMENT
__real@40e00000 DD 040e00000r			; 7
CONST	ENDS
;	COMDAT __real@40c90fdb
CONST	SEGMENT
__real@40c90fdb DD 040c90fdbr			; 6.28319
CONST	ENDS
;	COMDAT __real@40c00000
CONST	SEGMENT
__real@40c00000 DD 040c00000r			; 6
CONST	ENDS
;	COMDAT __real@40800000
CONST	SEGMENT
__real@40800000 DD 040800000r			; 4
CONST	ENDS
;	COMDAT __real@40490fdb
CONST	SEGMENT
__real@40490fdb DD 040490fdbr			; 3.14159
CONST	ENDS
;	COMDAT __real@40400000
CONST	SEGMENT
__real@40400000 DD 040400000r			; 3
CONST	ENDS
;	COMDAT __real@4024000000000000
CONST	SEGMENT
__real@4024000000000000 DQ 04024000000000000r	; 10
CONST	ENDS
;	COMDAT __real@40000000
CONST	SEGMENT
__real@40000000 DD 040000000r			; 2
CONST	ENDS
;	COMDAT __real@3ff0000000000000
CONST	SEGMENT
__real@3ff0000000000000 DQ 03ff0000000000000r	; 1
CONST	ENDS
;	COMDAT __real@3fc00000
CONST	SEGMENT
__real@3fc00000 DD 03fc00000r			; 1.5
CONST	ENDS
;	COMDAT __real@3fb999999999999a
CONST	SEGMENT
__real@3fb999999999999a DQ 03fb999999999999ar	; 0.1
CONST	ENDS
;	COMDAT __real@3f800000
CONST	SEGMENT
__real@3f800000 DD 03f800000r			; 1
CONST	ENDS
;	COMDAT __real@3f7d70a4
CONST	SEGMENT
__real@3f7d70a4 DD 03f7d70a4r			; 0.99
CONST	ENDS
;	COMDAT __real@3f6b851f
CONST	SEGMENT
__real@3f6b851f DD 03f6b851fr			; 0.92
CONST	ENDS
;	COMDAT __real@3f666666
CONST	SEGMENT
__real@3f666666 DD 03f666666r			; 0.9
CONST	ENDS
;	COMDAT __real@3f59999a
CONST	SEGMENT
__real@3f59999a DD 03f59999ar			; 0.85
CONST	ENDS
;	COMDAT __real@3f4ccccd
CONST	SEGMENT
__real@3f4ccccd DD 03f4ccccdr			; 0.8
CONST	ENDS
;	COMDAT __real@3f333333
CONST	SEGMENT
__real@3f333333 DD 03f333333r			; 0.7
CONST	ENDS
;	COMDAT __real@3f000000
CONST	SEGMENT
__real@3f000000 DD 03f000000r			; 0.5
CONST	ENDS
;	COMDAT __real@3eb33333
CONST	SEGMENT
__real@3eb33333 DD 03eb33333r			; 0.35
CONST	ENDS
;	COMDAT __real@3e8a3d71
CONST	SEGMENT
__real@3e8a3d71 DD 03e8a3d71r			; 0.27
CONST	ENDS
;	COMDAT __real@3e800000
CONST	SEGMENT
__real@3e800000 DD 03e800000r			; 0.25
CONST	ENDS
;	COMDAT __real@3e4ccccd
CONST	SEGMENT
__real@3e4ccccd DD 03e4ccccdr			; 0.2
CONST	ENDS
;	COMDAT __real@3e3851ec
CONST	SEGMENT
__real@3e3851ec DD 03e3851ecr			; 0.18
CONST	ENDS
;	COMDAT __real@3e2aaaab
CONST	SEGMENT
__real@3e2aaaab DD 03e2aaaabr			; 0.166667
CONST	ENDS
;	COMDAT __real@3e19999a
CONST	SEGMENT
__real@3e19999a DD 03e19999ar			; 0.15
CONST	ENDS
;	COMDAT __real@3dcccccd
CONST	SEGMENT
__real@3dcccccd DD 03dcccccdr			; 0.1
CONST	ENDS
;	COMDAT __real@3db851ec
CONST	SEGMENT
__real@3db851ec DD 03db851ecr			; 0.09
CONST	ENDS
;	COMDAT __real@3da3d70a
CONST	SEGMENT
__real@3da3d70a DD 03da3d70ar			; 0.08
CONST	ENDS
;	COMDAT __real@3d4ccccd
CONST	SEGMENT
__real@3d4ccccd DD 03d4ccccdr			; 0.05
CONST	ENDS
;	COMDAT __real@3d06849b86a12b9b
CONST	SEGMENT
__real@3d06849b86a12b9b DQ 03d06849b86a12b9br	; 1e-014
CONST	ENDS
;	COMDAT __real@3c23d70a
CONST	SEGMENT
__real@3c23d70a DD 03c23d70ar			; 0.01
CONST	ENDS
;	COMDAT __real@3ba3d70a
CONST	SEGMENT
__real@3ba3d70a DD 03ba3d70ar			; 0.005
CONST	ENDS
;	COMDAT __real@358637bd
CONST	SEGMENT
__real@358637bd DD 0358637bdr			; 1e-006
CONST	ENDS
;	COMDAT __real@1e3ce508
CONST	SEGMENT
__real@1e3ce508 DD 01e3ce508r			; 1e-020
CONST	ENDS
;	COMDAT __real@0000000000000000
CONST	SEGMENT
__real@0000000000000000 DQ 00000000000000000r	; 0
CONST	ENDS
;	COMDAT __real@00000000
CONST	SEGMENT
__real@00000000 DD 000000000r			; 0
CONST	ENDS
;	COMDAT rtc$TMZ
rtc$TMZ	SEGMENT
__RTC_Shutdown.rtc$TMZ DD FLAT:__RTC_Shutdown
rtc$TMZ	ENDS
;	COMDAT rtc$IMZ
rtc$IMZ	SEGMENT
__RTC_InitBase.rtc$IMZ DD FLAT:__RTC_InitBase
rtc$IMZ	ENDS
;	COMDAT ??_C@_0L@EMLOAAHA@UI_Sys?4cfg?$AA@
CONST	SEGMENT
??_C@_0L@EMLOAAHA@UI_Sys?4cfg?$AA@ DB 'UI_Sys.cfg', 00H	; `string'
CONST	ENDS
;	COMDAT ??_C@_0BG@KBDHGKMD@Could?5not?5open?5UI?5mgg?$AA@
CONST	SEGMENT
??_C@_0BG@KBDHGKMD@Could?5not?5open?5UI?5mgg?$AA@ DB 'Could not open UI m'
	DB	'gg', 00H					; `string'
CONST	ENDS
;	COMDAT ??_C@_0BA@GLINHHCI@data?1mEngUI?4mgg?$AA@
CONST	SEGMENT
??_C@_0BA@GLINHHCI@data?1mEngUI?4mgg?$AA@ DB 'data/mEngUI.mgg', 00H ; `string'
CONST	ENDS
;	COMDAT ??_C@_0BF@DCPHDOKH@font?1Roboto?9Bold?4ttf?$AA@
CONST	SEGMENT
??_C@_0BF@DCPHDOKH@font?1Roboto?9Bold?4ttf?$AA@ DB 'font/Roboto-Bold.ttf', 00H ; `string'
CONST	ENDS
;	COMDAT ??_C@_0L@JAEOLJKM@arial?5bold?$AA@
CONST	SEGMENT
??_C@_0L@JAEOLJKM@arial?5bold?$AA@ DB 'arial bold', 00H	; `string'
CONST	ENDS
;	COMDAT ??_C@_0BI@HHEBJCKC@font?1Roboto?9Regular?4ttf?$AA@
CONST	SEGMENT
??_C@_0BI@HHEBJCKC@font?1Roboto?9Regular?4ttf?$AA@ DB 'font/Roboto-Regula'
	DB	'r.ttf', 00H					; `string'
CONST	ENDS
;	COMDAT ??_C@_05MIPEAMDJ@arial?$AA@
CONST	SEGMENT
??_C@_05MIPEAMDJ@arial?$AA@ DB 'arial', 00H		; `string'
CONST	ENDS
;	COMDAT ??_C@_09PJHAHPG@Tex?5ALPHA?$AA@
CONST	SEGMENT
??_C@_09PJHAHPG@Tex?5ALPHA?$AA@ DB 'Tex ALPHA', 00H	; `string'
CONST	ENDS
;	COMDAT ??_C@_1HG@JKFDANAL@?$AAE?$AAr?$AAr?$AAo?$AAr?$AA?5?$AAw?$AAh?$AAi?$AAl?$AAe?$AA?5?$AAt?$AAr?$AAy?$AAi?$AAn?$AAg?$AA?5?$AAt?$AAo?$AA?5?$AAr?$AAe?$AAa?$AAd?$AA?5?$AAo?$AAr?$AA?5?$AAw?$AAr@
CONST	SEGMENT
??_C@_1HG@JKFDANAL@?$AAE?$AAr?$AAr?$AAo?$AAr?$AA?5?$AAw?$AAh?$AAi?$AAl?$AAe?$AA?5?$AAt?$AAr?$AAy?$AAi?$AAn?$AAg?$AA?5?$AAt?$AAo?$AA?5?$AAr?$AAe?$AAa?$AAd?$AA?5?$AAo?$AAr?$AA?5?$AAw?$AAr@ DB 'E'
	DB	00H, 'r', 00H, 'r', 00H, 'o', 00H, 'r', 00H, ' ', 00H, 'w', 00H
	DB	'h', 00H, 'i', 00H, 'l', 00H, 'e', 00H, ' ', 00H, 't', 00H, 'r'
	DB	00H, 'y', 00H, 'i', 00H, 'n', 00H, 'g', 00H, ' ', 00H, 't', 00H
	DB	'o', 00H, ' ', 00H, 'r', 00H, 'e', 00H, 'a', 00H, 'd', 00H, ' '
	DB	00H, 'o', 00H, 'r', 00H, ' ', 00H, 'w', 00H, 'r', 00H, 'i', 00H
	DB	't', 00H, 'e', 00H, ' ', 00H, 't', 00H, 'h', 00H, 'e', 00H, ' '
	DB	00H, 'c', 00H, 'o', 00H, 'n', 00H, 'f', 00H, 'i', 00H, 'g', 00H
	DB	'u', 00H, 'r', 00H, 'a', 00H, 't', 00H, 'i', 00H, 'o', 00H, 'n'
	DB	00H, ' ', 00H, 'f', 00H, 'i', 00H, 'l', 00H, 'e', 00H, 00H, 00H ; `string'
CONST	ENDS
;	COMDAT ??_C@_0O@GPCDBPIH@Animation?5Box?$AA@
CONST	SEGMENT
??_C@_0O@GPCDBPIH@Animation?5Box?$AA@ DB 'Animation Box', 00H ; `string'
CONST	ENDS
;	COMDAT ??_C@_06PBIJCONE@Canvas?$AA@
CONST	SEGMENT
??_C@_06PBIJCONE@Canvas?$AA@ DB 'Canvas', 00H		; `string'
CONST	ENDS
;	COMDAT ??_C@_04OFFCAMCD@Test?$AA@
CONST	SEGMENT
??_C@_04OFFCAMCD@Test?$AA@ DB 'Test', 00H		; `string'
CONST	ENDS
;	COMDAT ??_C@_0M@ICNCCMBH@Left?5Pannel?$AA@
CONST	SEGMENT
??_C@_0M@ICNCCMBH@Left?5Pannel?$AA@ DB 'Left Pannel', 00H ; `string'
CONST	ENDS
;	COMDAT ??_C@_06MNNGKIJJ@SPRSEL?$AA@
CONST	SEGMENT
??_C@_06MNNGKIJJ@SPRSEL?$AA@ DB 'SPRSEL', 00H		; `string'
CONST	ENDS
;	COMDAT ??_C@_0BB@FGHOOFIP@Sprite?5Selection?$AA@
CONST	SEGMENT
??_C@_0BB@FGHOOFIP@Sprite?5Selection?$AA@ DB 'Sprite Selection', 00H ; `string'
CONST	ENDS
;	COMDAT ??_C@_05BDOHFCKE@About?$AA@
CONST	SEGMENT
??_C@_05BDOHFCKE@About?$AA@ DB 'About', 00H		; `string'
CONST	ENDS
;	COMDAT ??_C@_04DDFEFHOJ@Help?$AA@
CONST	SEGMENT
??_C@_04DDFEFHOJ@Help?$AA@ DB 'Help', 00H		; `string'
CONST	ENDS
;	COMDAT ??_C@_0P@FOGACOBA@MGG?5properties?$AA@
CONST	SEGMENT
??_C@_0P@FOGACOBA@MGG?5properties?$AA@ DB 'MGG properties', 00H ; `string'
CONST	ENDS
;	COMDAT ??_C@_0M@PIPCPMLP@Preferences?$AA@
CONST	SEGMENT
??_C@_0M@PIPCPMLP@Preferences?$AA@ DB 'Preferences', 00H ; `string'
CONST	ENDS
;	COMDAT ??_C@_04BBNPPDNC@Edit?$AA@
CONST	SEGMENT
??_C@_04BBNPPDNC@Edit?$AA@ DB 'Edit', 00H		; `string'
CONST	ENDS
;	COMDAT ??_C@_04LBABLPF@Exit?$AA@
CONST	SEGMENT
??_C@_04LBABLPF@Exit?$AA@ DB 'Exit', 00H		; `string'
CONST	ENDS
;	COMDAT ??_C@_0M@GNJIJMPA@Compile?5MGG?$AA@
CONST	SEGMENT
??_C@_0M@GNJIJMPA@Compile?5MGG?$AA@ DB 'Compile MGG', 00H ; `string'
CONST	ENDS
;	COMDAT ??_C@_0L@JLONELEP@Save?5as?4?4?4?$AA@
CONST	SEGMENT
??_C@_0L@JLONELEP@Save?5as?4?4?4?$AA@ DB 'Save as...', 00H ; `string'
CONST	ENDS
;	COMDAT ??_C@_04INACKGJP@Save?$AA@
CONST	SEGMENT
??_C@_04INACKGJP@Save?$AA@ DB 'Save', 00H		; `string'
CONST	ENDS
;	COMDAT ??_C@_0BC@FLINIBDA@Open?5MGG?5txt?5file?$AA@
CONST	SEGMENT
??_C@_0BC@FLINIBDA@Open?5MGG?5txt?5file?$AA@ DB 'Open MGG txt file', 00H ; `string'
CONST	ENDS
;	COMDAT ??_C@_07LDBEDBB@New?5MGG?$AA@
CONST	SEGMENT
??_C@_07LDBEDBB@New?5MGG?$AA@ DB 'New MGG', 00H		; `string'
CONST	ENDS
;	COMDAT ??_C@_04PBAHLACE@File?$AA@
CONST	SEGMENT
??_C@_04PBAHLACE@File?$AA@ DB 'File', 00H		; `string'
CONST	ENDS
;	COMDAT ??_C@_04IFEHPILC@Menu?$AA@
CONST	SEGMENT
??_C@_04IFEHPILC@Menu?$AA@ DB 'Menu', 00H		; `string'
CONST	ENDS
;	COMDAT ??_C@_06MIKANEJK@Create?$AA@
CONST	SEGMENT
??_C@_06MIKANEJK@Create?$AA@ DB 'Create', 00H		; `string'
CONST	ENDS
;	COMDAT ??_C@_06LACFBFGA@Linear?$AA@
CONST	SEGMENT
??_C@_06LACFBFGA@Linear?$AA@ DB 'Linear', 00H		; `string'
CONST	ENDS
;	COMDAT ??_C@_07COOCJBJB@Nearest?$AA@
CONST	SEGMENT
??_C@_07COOCJBJB@Nearest?$AA@ DB 'Nearest', 00H		; `string'
CONST	ENDS
;	COMDAT ??_C@_0BI@KFCNKMHJ@Texture?5mipmap?5?$CIfilter?$CJ?$AA@
CONST	SEGMENT
??_C@_0BI@KFCNKMHJ@Texture?5mipmap?5?$CIfilter?$CJ?$AA@ DB 'Texture mipma'
	DB	'p (filter)', 00H				; `string'
CONST	ENDS
;	COMDAT ??_C@_0N@NIDFKEBJ@RLE?5?$CIfaster?$CJ?$AA@
CONST	SEGMENT
??_C@_0N@NIDFKEBJ@RLE?5?$CIfaster?$CJ?$AA@ DB 'RLE (faster)', 00H ; `string'
CONST	ENDS
;	COMDAT ??_C@_04OHJIHAFH@None?$AA@
CONST	SEGMENT
??_C@_04OHJIHAFH@None?$AA@ DB 'None', 00H		; `string'
CONST	ENDS
;	COMDAT ??_C@_0BE@PFCBBNJE@Texture?5compression?$AA@
CONST	SEGMENT
??_C@_0BE@PFCBBNJE@Texture?5compression?$AA@ DB 'Texture compression', 00H ; `string'
CONST	ENDS
;	COMDAT ??_C@_0BF@DCHLKLBM@Selected?5normal?5maps?$AA@
CONST	SEGMENT
??_C@_0BF@DCHLKLBM@Selected?5normal?5maps?$AA@ DB 'Selected normal maps', 00H ; `string'
CONST	ENDS
;	COMDAT ??_C@_02DPKJAMEF@?$CFd?$AA@
CONST	SEGMENT
??_C@_02DPKJAMEF@?$CFd?$AA@ DB '%d', 00H		; `string'
CONST	ENDS
;	COMDAT ??_C@_0BC@NLPHFHFE@Selected?5textures?$AA@
CONST	SEGMENT
??_C@_0BC@NLPHFHFE@Selected?5textures?$AA@ DB 'Selected textures', 00H ; `string'
CONST	ENDS
;	COMDAT ??_C@_0CJ@HPCPPJKE@Select?5normal?5mapping?5textures?5t@
CONST	SEGMENT
??_C@_0CJ@HPCPPJKE@Select?5normal?5mapping?5textures?5t@ DB 'Select norma'
	DB	'l mapping textures to import', 00H		; `string'
CONST	ENDS
;	COMDAT ??_C@_0BP@IDPDHAJP@Import?5normal?5mapping?5textures?$AA@
CONST	SEGMENT
??_C@_0BP@IDPDHAJP@Import?5normal?5mapping?5textures?$AA@ DB 'Import norm'
	DB	'al mapping textures', 00H			; `string'
CONST	ENDS
;	COMDAT ??_C@_01CLKCMJKC@?5?$AA@
CONST	SEGMENT
??_C@_01CLKCMJKC@?5?$AA@ DB ' ', 00H			; `string'
CONST	ENDS
;	COMDAT ??_C@_0BA@JEDADDEO@Import?5textures?$AA@
CONST	SEGMENT
??_C@_0BA@JEDADDEO@Import?5textures?$AA@ DB 'Import textures', 00H ; `string'
CONST	ENDS
;	COMDAT ??_C@_0BL@HJHOAKN@Select?5your?5project?5folder?$AA@
CONST	SEGMENT
??_C@_0BL@HJHOAKN@Select?5your?5project?5folder?$AA@ DB 'Select your proj'
	DB	'ect folder', 00H				; `string'
CONST	ENDS
;	COMDAT ??_C@_06FEFKNJEJ@Browse?$AA@
CONST	SEGMENT
??_C@_06FEFKNJEJ@Browse?$AA@ DB 'Browse', 00H		; `string'
CONST	ENDS
;	COMDAT ??_C@_0BH@CIGIGAMK@Create?5new?5MGG?5project?$AA@
CONST	SEGMENT
??_C@_0BH@CIGIGAMK@Create?5new?5MGG?5project?$AA@ DB 'Create new MGG proj'
	DB	'ect', 00H					; `string'
CONST	ENDS
;	COMDAT ??_C@_0BK@HHEIJDCK@Select?5textures?5to?5import?$AA@
CONST	SEGMENT
??_C@_0BK@HHEIJDCK@Select?5textures?5to?5import?$AA@ DB 'Select textures '
	DB	'to import', 00H				; `string'
CONST	ENDS
;	COMDAT ??_C@_0DC@KBKJHOEA@Image?5Files?$AA?$CK?4png?$DL?$CK?4jpg?$DL?$CK?4tga?$DL?$CK?4@
CONST	SEGMENT
??_C@_0DC@KBKJHOEA@Image?5Files?$AA?$CK?4png?$DL?$CK?4jpg?$DL?$CK?4tga?$DL?$CK?4@ DB 'I'
	DB	'mage Files', 00H, '*.png;*.jpg;*.tga;*.bmp', 00H, 'Any File', 00H
	DB	'*.*', 00H, 00H				; `string'
CONST	ENDS
;	COMDAT ??_C@_06FMBNCPDL@Cancel?$AA@
CONST	SEGMENT
??_C@_06FMBNCPDL@Cancel?$AA@ DB 'Cancel', 00H		; `string'
CONST	ENDS
;	COMDAT ??_C@_01KICIPPFI@?2?$AA@
CONST	SEGMENT
??_C@_01KICIPPFI@?2?$AA@ DB '\', 00H			; `string'
CONST	ENDS
;	COMDAT ??_C@_04DNCDCIAE@Open?$AA@
CONST	SEGMENT
??_C@_04DNCDCIAE@Open?$AA@ DB 'Open', 00H		; `string'
CONST	ENDS
;	COMDAT ??_C@_07ICAJMOAO@content?$AA@
CONST	SEGMENT
??_C@_07ICAJMOAO@content?$AA@ DB 'content', 00H		; `string'
CONST	ENDS
;	COMDAT ??_C@_0L@CPNGGKOP@New?5Folder?$AA@
CONST	SEGMENT
??_C@_0L@CPNGGKOP@New?5Folder?$AA@ DB 'New Folder', 00H	; `string'
CONST	ENDS
;	COMDAT ??_C@_01JKBOJNNK@?$FO?$AA@
CONST	SEGMENT
??_C@_01JKBOJNNK@?$FO?$AA@ DB '^', 00H			; `string'
CONST	ENDS
;	COMDAT ??_C@_01PPODPGHN@?$DO?$AA@
CONST	SEGMENT
??_C@_01PPODPGHN@?$DO?$AA@ DB '>', 00H			; `string'
CONST	ENDS
;	COMDAT ??_C@_01MNNFJEPP@?$DM?$AA@
CONST	SEGMENT
??_C@_01MNNFJEPP@?$DM?$AA@ DB '<', 00H			; `string'
CONST	ENDS
;	COMDAT ??_C@_0N@DPGJHAPF@File?5Browser?$AA@
CONST	SEGMENT
??_C@_0N@DPGJHAPF@File?5Browser?$AA@ DB 'File Browser', 00H ; `string'
CONST	ENDS
;	COMDAT ??_C@_02FGAJKBDK@B?3?$AA@
CONST	SEGMENT
??_C@_02FGAJKBDK@B?3?$AA@ DB 'B:', 00H			; `string'
CONST	ENDS
;	COMDAT ??_C@_02FAMCGDNB@G?3?$AA@
CONST	SEGMENT
??_C@_02FAMCGDNB@G?3?$AA@ DB 'G:', 00H			; `string'
CONST	ENDS
;	COMDAT ??_C@_02EKCPACEK@R?3?$AA@
CONST	SEGMENT
??_C@_02EKCPACEK@R?3?$AA@ DB 'R:', 00H			; `string'
CONST	ENDS
;	COMDAT ??_C@_0BK@DEPFCNDH@Coulnd?5not?5open?5directory?$AA@
CONST	SEGMENT
??_C@_0BK@DEPFCNDH@Coulnd?5not?5open?5directory?$AA@ DB 'Coulnd not open '
	DB	'directory', 00H				; `string'
CONST	ENDS
;	COMDAT ??_C@_01BJJEKLCA@?$CC?$AA@
CONST	SEGMENT
??_C@_01BJJEKLCA@?$CC?$AA@ DB '"', 00H			; `string'
CONST	ENDS
;	COMDAT ??_C@_0M@PGCPLEOJ@CurrentPath?$AA@
CONST	SEGMENT
??_C@_0M@PGCPLEOJ@CurrentPath?$AA@ DB 'CurrentPath', 00H ; `string'
CONST	ENDS
;	COMDAT ??_C@_05PBPHDBPF@VSync?$AA@
CONST	SEGMENT
??_C@_05PBPHDBPF@VSync?$AA@ DB 'VSync', 00H		; `string'
CONST	ENDS
;	COMDAT ??_C@_0O@OBADIEME@AudioChannels?$AA@
CONST	SEGMENT
??_C@_0O@OBADIEME@AudioChannels?$AA@ DB 'AudioChannels', 00H ; `string'
CONST	ENDS
;	COMDAT ??_C@_0P@HHDALPEH@AudioFrequency?$AA@
CONST	SEGMENT
??_C@_0P@HHDALPEH@AudioFrequency?$AA@ DB 'AudioFrequency', 00H ; `string'
CONST	ENDS
;	COMDAT ??_C@_0L@CBCDGBIF@FullScreen?$AA@
CONST	SEGMENT
??_C@_0L@CBCDGBIF@FullScreen?$AA@ DB 'FullScreen', 00H	; `string'
CONST	ENDS
;	COMDAT ??_C@_09IFGCFGJL@ScreenBPP?$AA@
CONST	SEGMENT
??_C@_09IFGCFGJL@ScreenBPP?$AA@ DB 'ScreenBPP', 00H	; `string'
CONST	ENDS
;	COMDAT ??_C@_07MJNKNBDK@ScreenY?$AA@
CONST	SEGMENT
??_C@_07MJNKNBDK@ScreenY?$AA@ DB 'ScreenY', 00H		; `string'
CONST	ENDS
;	COMDAT ??_C@_07NAMBOAHL@ScreenX?$AA@
CONST	SEGMENT
??_C@_07NAMBOAHL@ScreenX?$AA@ DB 'ScreenX', 00H		; `string'
CONST	ENDS
;	COMDAT ??_C@_07DHPDHKIF@?$CFs?5?$DN?5?$CFd?$AA@
CONST	SEGMENT
??_C@_07DHPDHKIF@?$CFs?5?$DN?5?$CFd?$AA@ DB '%s = %d', 00H ; `string'
CONST	ENDS
;	COMDAT ??_C@_01KDCPPGHE@r?$AA@
CONST	SEGMENT
??_C@_01KDCPPGHE@r?$AA@ DB 'r', 00H			; `string'
CONST	ENDS
;	COMDAT ??_C@_0M@OCOMPIPE@VSync?5?$DN?5?$CFd?6?$AA@
CONST	SEGMENT
??_C@_0M@OCOMPIPE@VSync?5?$DN?5?$CFd?6?$AA@ DB 'VSync = %d', 0aH, 00H ; `string'
CONST	ENDS
;	COMDAT ??_C@_0BE@OAMPIJBI@AudioChannels?5?$DN?5?$CFd?6?$AA@
CONST	SEGMENT
??_C@_0BE@OAMPIJBI@AudioChannels?5?$DN?5?$CFd?6?$AA@ DB 'AudioChannels = '
	DB	'%d', 0aH, 00H				; `string'
CONST	ENDS
;	COMDAT ??_C@_0BF@LFBKPFPE@AudioFrequency?5?$DN?5?$CFd?6?$AA@
CONST	SEGMENT
??_C@_0BF@LFBKPFPE@AudioFrequency?5?$DN?5?$CFd?6?$AA@ DB 'AudioFrequency '
	DB	'= %d', 0aH, 00H				; `string'
CONST	ENDS
;	COMDAT ??_C@_0BA@CCGGOMJJ@ScreenBPP?5?$DN?5?$CFd?6?$AA@
CONST	SEGMENT
??_C@_0BA@CCGGOMJJ@ScreenBPP?5?$DN?5?$CFd?6?$AA@ DB 'ScreenBPP = %d', 0aH
	DB	00H						; `string'
CONST	ENDS
;	COMDAT ??_C@_0BB@PFGCCBAA@FullScreen?5?$DN?5?$CFd?6?$AA@
CONST	SEGMENT
??_C@_0BB@PFGCCBAA@FullScreen?5?$DN?5?$CFd?6?$AA@ DB 'FullScreen = %d', 0aH
	DB	00H						; `string'
CONST	ENDS
;	COMDAT ??_C@_0O@FCKGFAIB@ScreenY?5?$DN?5?$CFd?6?$AA@
CONST	SEGMENT
??_C@_0O@FCKGFAIB@ScreenY?5?$DN?5?$CFd?6?$AA@ DB 'ScreenY = %d', 0aH, 00H ; `string'
CONST	ENDS
;	COMDAT ??_C@_0O@JOAMFABP@ScreenX?5?$DN?5?$CFd?6?$AA@
CONST	SEGMENT
??_C@_0O@JOAMFABP@ScreenX?5?$DN?5?$CFd?6?$AA@ DB 'ScreenX = %d', 0aH, 00H ; `string'
CONST	ENDS
;	COMDAT ??_C@_0N@DBJPLNLE@settings?4cfg?$AA@
CONST	SEGMENT
??_C@_0N@DBJPLNLE@settings?4cfg?$AA@ DB 'settings.cfg', 00H ; `string'
CONST	ENDS
;	COMDAT ??_C@_01NOFIACDB@w?$AA@
CONST	SEGMENT
??_C@_01NOFIACDB@w?$AA@ DB 'w', 00H			; `string'
CONST	ENDS
;	COMDAT ??_C@_05PDOBBJNA@Color?$AA@
CONST	SEGMENT
??_C@_05PDOBBJNA@Color?$AA@ DB 'Color', 00H		; `string'
CONST	ENDS
;	COMDAT ??_C@_08NGMLKGCO@TexCoord?$AA@
CONST	SEGMENT
??_C@_08NGMLKGCO@TexCoord?$AA@ DB 'TexCoord', 00H	; `string'
CONST	ENDS
;	COMDAT ??_C@_08GCJNLIKG@Position?$AA@
CONST	SEGMENT
??_C@_08GCJNLIKG@Position?$AA@ DB 'Position', 00H	; `string'
CONST	ENDS
;	COMDAT ??_C@_07EDEMHDKD@ProjMtx?$AA@
CONST	SEGMENT
??_C@_07EDEMHDKD@ProjMtx?$AA@ DB 'ProjMtx', 00H		; `string'
CONST	ENDS
;	COMDAT ??_C@_07GKACAEDJ@Texture?$AA@
CONST	SEGMENT
??_C@_07GKACAEDJ@Texture?$AA@ DB 'Texture', 00H		; `string'
CONST	ENDS
;	COMDAT ??_C@_1CE@FPHDOHKN@?$AAs?$AAt?$AAa?$AAt?$AAu?$AAs?$AA?5?$AA?$DN?$AA?$DN?$AA?5?$AAG?$AAL?$AA_?$AAT?$AAR?$AAU?$AAE?$AA?$AA@
CONST	SEGMENT
??_C@_1CE@FPHDOHKN@?$AAs?$AAt?$AAa?$AAt?$AAu?$AAs?$AA?5?$AA?$DN?$AA?$DN?$AA?5?$AAG?$AAL?$AA_?$AAT?$AAR?$AAU?$AAE?$AA?$AA@ DB 's'
	DB	00H, 't', 00H, 'a', 00H, 't', 00H, 'u', 00H, 's', 00H, ' ', 00H
	DB	'=', 00H, '=', 00H, ' ', 00H, 'G', 00H, 'L', 00H, '_', 00H, 'T'
	DB	00H, 'R', 00H, 'U', 00H, 'E', 00H, 00H, 00H	; `string'
CONST	ENDS
;	COMDAT ??_C@_1HM@DKHOBLCB@?$AAc?$AA?3?$AA?2?$AAu?$AAs?$AAe?$AAr?$AAs?$AA?2?$AAm?$AAa?$AAr?$AAc?$AAo?$AAs?$AA?2?$AAd?$AAe?$AAs?$AAk?$AAt?$AAo?$AAp?$AA?2?$AAp?$AAr?$AAj?$AA?2?$AAm?$AAg?$AAe?$AAa@
CONST	SEGMENT
??_C@_1HM@DKHOBLCB@?$AAc?$AA?3?$AA?2?$AAu?$AAs?$AAe?$AAr?$AAs?$AA?2?$AAm?$AAa?$AAr?$AAc?$AAo?$AAs?$AA?2?$AAd?$AAe?$AAs?$AAk?$AAt?$AAo?$AAp?$AA?2?$AAp?$AAr?$AAj?$AA?2?$AAm?$AAg?$AAe?$AAa@ DB 'c'
	DB	00H, ':', 00H, '\', 00H, 'u', 00H, 's', 00H, 'e', 00H, 'r', 00H
	DB	's', 00H, '\', 00H, 'm', 00H, 'a', 00H, 'r', 00H, 'c', 00H, 'o'
	DB	00H, 's', 00H, '\', 00H, 'd', 00H, 'e', 00H, 's', 00H, 'k', 00H
	DB	't', 00H, 'o', 00H, 'p', 00H, '\', 00H, 'p', 00H, 'r', 00H, 'j'
	DB	00H, '\', 00H, 'm', 00H, 'g', 00H, 'e', 00H, 'a', 00H, 'r', 00H
	DB	'-', 00H, '1', 00H, '\', 00H, 'm', 00H, 'g', 00H, 'e', 00H, 'a'
	DB	00H, 'r', 00H, '-', 00H, '1', 00H, '\', 00H, 'n', 00H, 'u', 00H
	DB	'k', 00H, 'l', 00H, 'e', 00H, 'a', 00H, 'r', 00H, '_', 00H, 's'
	DB	00H, 'd', 00H, 'l', 00H, '_', 00H, 'g', 00H, 'l', 00H, '3', 00H
	DB	'.', 00H, 'h', 00H, 00H, 00H			; `string'
CONST	ENDS
;	COMDAT ?__LINE__Var@?1??nk_sdl_device_create@@9@9
_DATA	SEGMENT
?__LINE__Var@?1??nk_sdl_device_create@@9@9 DD 04cH	; `nk_sdl_device_create'::`2'::__LINE__Var
_DATA	ENDS
;	COMDAT ?__LINE__Var@?1??nk_menu_begin_symbol_text@@9@9
_DATA	SEGMENT
?__LINE__Var@?1??nk_menu_begin_symbol_text@@9@9 DD 05c1aH ; `nk_menu_begin_symbol_text'::`2'::__LINE__Var
_DATA	ENDS
;	COMDAT ?__LINE__Var@?1??nk_menu_begin_image_text@@9@9
_DATA	SEGMENT
?__LINE__Var@?1??nk_menu_begin_image_text@@9@9 DD 05bfbH ; `nk_menu_begin_image_text'::`2'::__LINE__Var
_DATA	ENDS
;	COMDAT ?__LINE__Var@?1??nk_menu_begin_symbol@@9@9
_DATA	SEGMENT
?__LINE__Var@?1??nk_menu_begin_symbol@@9@9 DD 05be1H	; `nk_menu_begin_symbol'::`2'::__LINE__Var
_DATA	ENDS
;	COMDAT ?__LINE__Var@?1??nk_menu_begin_image@@9@9
_DATA	SEGMENT
?__LINE__Var@?1??nk_menu_begin_image@@9@9 DD 05bc7H	; `nk_menu_begin_image'::`2'::__LINE__Var
_DATA	ENDS
;	COMDAT ?__LINE__Var@?1??nk_menu_begin_text@@9@9
_DATA	SEGMENT
?__LINE__Var@?1??nk_menu_begin_text@@9@9 DD 05ba9H	; `nk_menu_begin_text'::`2'::__LINE__Var
_DATA	ENDS
;	COMDAT ?__LINE__Var@?1??nk_menu_begin@@9@9@ddf8d5d8
_DATA	SEGMENT
?__LINE__Var@?1??nk_menu_begin@@9@9@ddf8d5d8 DD 05b87H	; `nk_menu_begin'::`2'::__LINE__Var
_DATA	ENDS
;	COMDAT ??_C@_1BI@CBJAPKKM@?$AAi?$AAt?$AAe?$AAm?$AA_?$AAg?$AAe?$AAt?$AAt?$AAe?$AAr?$AA?$AA@
CONST	SEGMENT
??_C@_1BI@CBJAPKKM@?$AAi?$AAt?$AAe?$AAm?$AA_?$AAg?$AAe?$AAt?$AAt?$AAe?$AAr?$AA?$AA@ DB 'i'
	DB	00H, 't', 00H, 'e', 00H, 'm', 00H, '_', 00H, 'g', 00H, 'e', 00H
	DB	't', 00H, 't', 00H, 'e', 00H, 'r', 00H, 00H, 00H ; `string'
CONST	ENDS
;	COMDAT ?__LINE__Var@?1??nk_combo_callback@@9@9
_DATA	SEGMENT
?__LINE__Var@?1??nk_combo_callback@@9@9 DD 05b4bH	; `nk_combo_callback'::`2'::__LINE__Var
_DATA	ENDS
;	COMDAT ??_C@_1DK@MJNAGHOF@?$AAi?$AAt?$AAe?$AAm?$AAs?$AA_?$AAs?$AAe?$AAp?$AAa?$AAr?$AAa?$AAt?$AAe?$AAd?$AA_?$AAb?$AAy?$AA_?$AAs?$AAe?$AAp?$AAa?$AAr?$AAa?$AAt?$AAo?$AAr?$AA?$AA@
CONST	SEGMENT
??_C@_1DK@MJNAGHOF@?$AAi?$AAt?$AAe?$AAm?$AAs?$AA_?$AAs?$AAe?$AAp?$AAa?$AAr?$AAa?$AAt?$AAe?$AAd?$AA_?$AAb?$AAy?$AA_?$AAs?$AAe?$AAp?$AAa?$AAr?$AAa?$AAt?$AAo?$AAr?$AA?$AA@ DB 'i'
	DB	00H, 't', 00H, 'e', 00H, 'm', 00H, 's', 00H, '_', 00H, 's', 00H
	DB	'e', 00H, 'p', 00H, 'a', 00H, 'r', 00H, 'a', 00H, 't', 00H, 'e'
	DB	00H, 'd', 00H, '_', 00H, 'b', 00H, 'y', 00H, '_', 00H, 's', 00H
	DB	'e', 00H, 'p', 00H, 'a', 00H, 'r', 00H, 'a', 00H, 't', 00H, 'o'
	DB	00H, 'r', 00H, 00H, 00H			; `string'
CONST	ENDS
;	COMDAT ?__LINE__Var@?1??nk_combo_separator@@9@9
_DATA	SEGMENT
?__LINE__Var@?1??nk_combo_separator@@9@9 DD 05b14H	; `nk_combo_separator'::`2'::__LINE__Var
_DATA	ENDS
;	COMDAT ??_C@_1M@JLJIPHMC@?$AAi?$AAt?$AAe?$AAm?$AAs?$AA?$AA@
CONST	SEGMENT
??_C@_1M@JLJIPHMC@?$AAi?$AAt?$AAe?$AAm?$AAs?$AA?$AA@ DB 'i', 00H, 't', 00H
	DB	'e', 00H, 'm', 00H, 's', 00H, 00H, 00H	; `string'
CONST	ENDS
;	COMDAT ?__LINE__Var@?1??nk_combo@@9@9
_DATA	SEGMENT
?__LINE__Var@?1??nk_combo@@9@9 DD 05af5H		; `nk_combo'::`2'::__LINE__Var
_DATA	ENDS
;	COMDAT ?__LINE__Var@?1??nk_combo_begin_image_text@@9@9
_DATA	SEGMENT
?__LINE__Var@?1??nk_combo_begin_image_text@@9@9 DD 05a75H ; `nk_combo_begin_image_text'::`2'::__LINE__Var
_DATA	ENDS
;	COMDAT ?__LINE__Var@?1??nk_combo_begin_image@@9@9
_DATA	SEGMENT
?__LINE__Var@?1??nk_combo_begin_image@@9@9 DD 05a26H	; `nk_combo_begin_image'::`2'::__LINE__Var
_DATA	ENDS
;	COMDAT ?__LINE__Var@?1??nk_combo_begin_symbol_text@@9@9
_DATA	SEGMENT
?__LINE__Var@?1??nk_combo_begin_symbol_text@@9@9 DD 059c6H ; `nk_combo_begin_symbol_text'::`2'::__LINE__Var
_DATA	ENDS
;	COMDAT ?__LINE__Var@?1??nk_combo_begin_symbol@@9@9
_DATA	SEGMENT
?__LINE__Var@?1??nk_combo_begin_symbol@@9@9 DD 0596dH	; `nk_combo_begin_symbol'::`2'::__LINE__Var
_DATA	ENDS
;	COMDAT ?__LINE__Var@?1??nk_combo_begin_color@@9@9
_DATA	SEGMENT
?__LINE__Var@?1??nk_combo_begin_color@@9@9 DD 0591fH	; `nk_combo_begin_color'::`2'::__LINE__Var
_DATA	ENDS
;	COMDAT ??_C@_1BC@BAHMPCLB@?$AAs?$AAe?$AAl?$AAe?$AAc?$AAt?$AAe?$AAd?$AA?$AA@
CONST	SEGMENT
??_C@_1BC@BAHMPCLB@?$AAs?$AAe?$AAl?$AAe?$AAc?$AAt?$AAe?$AAd?$AA?$AA@ DB 's'
	DB	00H, 'e', 00H, 'l', 00H, 'e', 00H, 'c', 00H, 't', 00H, 'e', 00H
	DB	'd', 00H, 00H, 00H				; `string'
CONST	ENDS
;	COMDAT ?__LINE__Var@?1??nk_combo_begin_text@@9@9
_DATA	SEGMENT
?__LINE__Var@?1??nk_combo_begin_text@@9@9 DD 058c3H	; `nk_combo_begin_text'::`2'::__LINE__Var
_DATA	ENDS
;	COMDAT ?__LINE__Var@?1??nk_combo_begin@@9@9@ddf8d5d8
_DATA	SEGMENT
?__LINE__Var@?1??nk_combo_begin@@9@9@ddf8d5d8 DD 058a0H	; `nk_combo_begin'::`2'::__LINE__Var
_DATA	ENDS
;	COMDAT ??_C@_1EC@DJLEFCBF@?$AAp?$AAa?$AAn?$AAe?$AAl?$AA?9?$AA?$DO?$AAt?$AAy?$AAp?$AAe?$AA?5?$AA?$CG?$AA?5?$AAN?$AAK?$AA_?$AAP?$AAA?$AAN?$AAE?$AAL?$AA_?$AAS?$AAE?$AAT?$AA_?$AAP?$AAO?$AAP?$AAU?$AAP@
CONST	SEGMENT
??_C@_1EC@DJLEFCBF@?$AAp?$AAa?$AAn?$AAe?$AAl?$AA?9?$AA?$DO?$AAt?$AAy?$AAp?$AAe?$AA?5?$AA?$CG?$AA?5?$AAN?$AAK?$AA_?$AAP?$AAA?$AAN?$AAE?$AAL?$AA_?$AAS?$AAE?$AAT?$AA_?$AAP?$AAO?$AAP?$AAU?$AAP@ DB 'p'
	DB	00H, 'a', 00H, 'n', 00H, 'e', 00H, 'l', 00H, '-', 00H, '>', 00H
	DB	't', 00H, 'y', 00H, 'p', 00H, 'e', 00H, ' ', 00H, '&', 00H, ' '
	DB	00H, 'N', 00H, 'K', 00H, '_', 00H, 'P', 00H, 'A', 00H, 'N', 00H
	DB	'E', 00H, 'L', 00H, '_', 00H, 'S', 00H, 'E', 00H, 'T', 00H, '_'
	DB	00H, 'P', 00H, 'O', 00H, 'P', 00H, 'U', 00H, 'P', 00H, 00H, 00H ; `string'
CONST	ENDS
;	COMDAT ?__LINE__Var@?1??nk_contextual_end@@9@9
_DATA	SEGMENT
?__LINE__Var@?1??nk_contextual_end@@9@9 DD 05875H	; `nk_contextual_end'::`2'::__LINE__Var
_DATA	ENDS
;	COMDAT ?__LINE__Var@?1??nk_contextual_close@@9@9
_DATA	SEGMENT
?__LINE__Var@?1??nk_contextual_close@@9@9 DD 0586bH	; `nk_contextual_close'::`2'::__LINE__Var
_DATA	ENDS
;	COMDAT ?__LINE__Var@?1??nk_contextual_item_symbol_text@@9@9
_DATA	SEGMENT
?__LINE__Var@?1??nk_contextual_item_symbol_text@@9@9 DD 05849H ; `nk_contextual_item_symbol_text'::`2'::__LINE__Var
_DATA	ENDS
;	COMDAT ?__LINE__Var@?1??nk_contextual_item_image_text@@9@9
_DATA	SEGMENT
?__LINE__Var@?1??nk_contextual_item_image_text@@9@9 DD 05826H ; `nk_contextual_item_image_text'::`2'::__LINE__Var
_DATA	ENDS
;	COMDAT ?__LINE__Var@?1??nk_contextual_item_text@@9@9
_DATA	SEGMENT
?__LINE__Var@?1??nk_contextual_item_text@@9@9 DD 05804H	; `nk_contextual_item_text'::`2'::__LINE__Var
_DATA	ENDS
;	COMDAT ?__LINE__Var@?1??nk_contextual_begin@@9@9
_DATA	SEGMENT
?__LINE__Var@?1??nk_contextual_begin@@9@9 DD 057ccH	; `nk_contextual_begin'::`2'::__LINE__Var
_DATA	ENDS
;	COMDAT ?__LINE__Var@?1??nk_tooltip@@9@9
_DATA	SEGMENT
?__LINE__Var@?1??nk_tooltip@@9@9 DD 057a3H		; `nk_tooltip'::`2'::__LINE__Var
_DATA	ENDS
;	COMDAT ?__LINE__Var@?1??nk_tooltip_end@@9@9
_DATA	SEGMENT
?__LINE__Var@?1??nk_tooltip_end@@9@9 DD 05798H		; `nk_tooltip_end'::`2'::__LINE__Var
_DATA	ENDS
;	COMDAT ??_C@_0BA@FIOIOCM@__?$CD?$CDTooltip?$CD?$CD__?$AA@
CONST	SEGMENT
??_C@_0BA@FIOIOCM@__?$CD?$CDTooltip?$CD?$CD__?$AA@ DB '__##Tooltip##__', 00H ; `string'
CONST	ENDS
;	COMDAT ?__LINE__Var@?1??nk_tooltip_begin@@9@9
_DATA	SEGMENT
?__LINE__Var@?1??nk_tooltip_begin@@9@9 DD 05777H	; `nk_tooltip_begin'::`2'::__LINE__Var
_DATA	ENDS
;	COMDAT ?__LINE__Var@?1??nk_popup_end@@9@9
_DATA	SEGMENT
?__LINE__Var@?1??nk_popup_end@@9@9 DD 05752H		; `nk_popup_end'::`2'::__LINE__Var
_DATA	ENDS
;	COMDAT ??_C@_1FC@NEPNGFGJ@?$AAp?$AAo?$AAp?$AAu?$AAp?$AA?9?$AA?$DO?$AAl?$AAa?$AAy?$AAo?$AAu?$AAt?$AA?9?$AA?$DO?$AAt?$AAy?$AAp?$AAe?$AA?5?$AA?$CG?$AA?5?$AAN?$AAK?$AA_?$AAP?$AAA?$AAN?$AAE?$AAL?$AA_?$AAS@
CONST	SEGMENT
??_C@_1FC@NEPNGFGJ@?$AAp?$AAo?$AAp?$AAu?$AAp?$AA?9?$AA?$DO?$AAl?$AAa?$AAy?$AAo?$AAu?$AAt?$AA?9?$AA?$DO?$AAt?$AAy?$AAp?$AAe?$AA?5?$AA?$CG?$AA?5?$AAN?$AAK?$AA_?$AAP?$AAA?$AAN?$AAE?$AAL?$AA_?$AAS@ DB 'p'
	DB	00H, 'o', 00H, 'p', 00H, 'u', 00H, 'p', 00H, '-', 00H, '>', 00H
	DB	'l', 00H, 'a', 00H, 'y', 00H, 'o', 00H, 'u', 00H, 't', 00H, '-'
	DB	00H, '>', 00H, 't', 00H, 'y', 00H, 'p', 00H, 'e', 00H, ' ', 00H
	DB	'&', 00H, ' ', 00H, 'N', 00H, 'K', 00H, '_', 00H, 'P', 00H, 'A'
	DB	00H, 'N', 00H, 'E', 00H, 'L', 00H, '_', 00H, 'S', 00H, 'E', 00H
	DB	'T', 00H, '_', 00H, 'P', 00H, 'O', 00H, 'P', 00H, 'U', 00H, 'P'
	DB	00H, 00H, 00H				; `string'
CONST	ENDS
;	COMDAT ??_C@_1BM@KLACOFEL@?$AAp?$AAo?$AAp?$AAu?$AAp?$AA?9?$AA?$DO?$AAp?$AAa?$AAr?$AAe?$AAn?$AAt?$AA?$AA@
CONST	SEGMENT
??_C@_1BM@KLACOFEL@?$AAp?$AAo?$AAp?$AAu?$AAp?$AA?9?$AA?$DO?$AAp?$AAa?$AAr?$AAe?$AAn?$AAt?$AA?$AA@ DB 'p'
	DB	00H, 'o', 00H, 'p', 00H, 'u', 00H, 'p', 00H, '-', 00H, '>', 00H
	DB	'p', 00H, 'a', 00H, 'r', 00H, 'e', 00H, 'n', 00H, 't', 00H, 00H
	DB	00H						; `string'
CONST	ENDS
;	COMDAT ?__LINE__Var@?1??nk_popup_close@@9@9
_DATA	SEGMENT
?__LINE__Var@?1??nk_popup_close@@9@9 DD 05745H		; `nk_popup_close'::`2'::__LINE__Var
_DATA	ENDS
;	COMDAT ??_C@_1BM@OHHEFNGN@?$AAp?$AAo?$AAp?$AAu?$AAp?$AA?9?$AA?$DO?$AAl?$AAa?$AAy?$AAo?$AAu?$AAt?$AA?$AA@
CONST	SEGMENT
??_C@_1BM@OHHEFNGN@?$AAp?$AAo?$AAp?$AAu?$AAp?$AA?9?$AA?$DO?$AAl?$AAa?$AAy?$AAo?$AAu?$AAt?$AA?$AA@ DB 'p'
	DB	00H, 'o', 00H, 'p', 00H, 'u', 00H, 'p', 00H, '-', 00H, '>', 00H
	DB	'l', 00H, 'a', 00H, 'y', 00H, 'o', 00H, 'u', 00H, 't', 00H, 00H
	DB	00H						; `string'
CONST	ENDS
;	COMDAT ??_C@_1EI@JEAJFHEO@?$AA?$CB?$AA?$CI?$AAp?$AAa?$AAn?$AAe?$AAl?$AA?9?$AA?$DO?$AAt?$AAy?$AAp?$AAe?$AA?5?$AA?$CG?$AA?5?$AAN?$AAK?$AA_?$AAP?$AAA?$AAN?$AAE?$AAL?$AA_?$AAS?$AAE?$AAT?$AA_?$AAP?$AAO?$AAP@
CONST	SEGMENT
??_C@_1EI@JEAJFHEO@?$AA?$CB?$AA?$CI?$AAp?$AAa?$AAn?$AAe?$AAl?$AA?9?$AA?$DO?$AAt?$AAy?$AAp?$AAe?$AA?5?$AA?$CG?$AA?5?$AAN?$AAK?$AA_?$AAP?$AAA?$AAN?$AAE?$AAL?$AA_?$AAS?$AAE?$AAT?$AA_?$AAP?$AAO?$AAP@ DB '!'
	DB	00H, '(', 00H, 'p', 00H, 'a', 00H, 'n', 00H, 'e', 00H, 'l', 00H
	DB	'-', 00H, '>', 00H, 't', 00H, 'y', 00H, 'p', 00H, 'e', 00H, ' '
	DB	00H, '&', 00H, ' ', 00H, 'N', 00H, 'K', 00H, '_', 00H, 'P', 00H
	DB	'A', 00H, 'N', 00H, 'E', 00H, 'L', 00H, '_', 00H, 'S', 00H, 'E'
	DB	00H, 'T', 00H, '_', 00H, 'P', 00H, 'O', 00H, 'P', 00H, 'U', 00H
	DB	'P', 00H, ')', 00H, 00H, 00H			; `string'
CONST	ENDS
;	COMDAT ?__LINE__Var@?1??nk_nonblock_begin@@9@9@ddf8d5d8
_DATA	SEGMENT
?__LINE__Var@?1??nk_nonblock_begin@@9@9@ddf8d5d8 DD 056f6H ; `nk_nonblock_begin'::`2'::__LINE__Var
_DATA	ENDS
;	COMDAT ??_C@_1JO@DBBBPONP@?$AA?$CB?$AA?$CI?$AAp?$AAa?$AAn?$AAe?$AAl?$AA?9?$AA?$DO?$AAt?$AAy?$AAp?$AAe?$AA?5?$AA?$CG?$AA?5?$AAN?$AAK?$AA_?$AAP?$AAA?$AAN?$AAE?$AAL?$AA_?$AAS?$AAE?$AAT?$AA_?$AAP?$AAO?$AAP@
CONST	SEGMENT
??_C@_1JO@DBBBPONP@?$AA?$CB?$AA?$CI?$AAp?$AAa?$AAn?$AAe?$AAl?$AA?9?$AA?$DO?$AAt?$AAy?$AAp?$AAe?$AA?5?$AA?$CG?$AA?5?$AAN?$AAK?$AA_?$AAP?$AAA?$AAN?$AAE?$AAL?$AA_?$AAS?$AAE?$AAT?$AA_?$AAP?$AAO?$AAP@ DB '!'
	DB	00H, '(', 00H, 'p', 00H, 'a', 00H, 'n', 00H, 'e', 00H, 'l', 00H
	DB	'-', 00H, '>', 00H, 't', 00H, 'y', 00H, 'p', 00H, 'e', 00H, ' '
	DB	00H, '&', 00H, ' ', 00H, 'N', 00H, 'K', 00H, '_', 00H, 'P', 00H
	DB	'A', 00H, 'N', 00H, 'E', 00H, 'L', 00H, '_', 00H, 'S', 00H, 'E'
	DB	00H, 'T', 00H, '_', 00H, 'P', 00H, 'O', 00H, 'P', 00H, 'U', 00H
	DB	'P', 00H, ')', 00H, ' ', 00H, '&', 00H, '&', 00H, ' ', 00H, '"'
	DB	00H, 'p', 00H, 'o', 00H, 'p', 00H, 'u', 00H, 'p', 00H, 's', 00H
	DB	' ', 00H, 'a', 00H, 'r', 00H, 'e', 00H, ' ', 00H, 'n', 00H, 'o'
	DB	00H, 't', 00H, ' ', 00H, 'a', 00H, 'l', 00H, 'l', 00H, 'o', 00H
	DB	'w', 00H, 'e', 00H, 'd', 00H, ' ', 00H, 't', 00H, 'o', 00H, ' '
	DB	00H, 'h', 00H, 'a', 00H, 'v', 00H, 'e', 00H, ' ', 00H, 'p', 00H
	DB	'o', 00H, 'p', 00H, 'u', 00H, 'p', 00H, 's', 00H, '"', 00H, 00H
	DB	00H						; `string'
CONST	ENDS
;	COMDAT ??_C@_0CG@PGMENGHG@popups?5are?5not?5allowed?5to?5have?5p@
CONST	SEGMENT
??_C@_0CG@PGMENGHG@popups?5are?5not?5allowed?5to?5have?5p@ DB 'popups are'
	DB	' not allowed to have popups', 00H		; `string'
CONST	ENDS
;	COMDAT ?__LINE__Var@?1??nk_popup_begin@@9@9
_DATA	SEGMENT
?__LINE__Var@?1??nk_popup_begin@@9@9 DD 05694H		; `nk_popup_begin'::`2'::__LINE__Var
_DATA	ENDS
;	COMDAT ??_C@_1CK@PJMKKIBM@?$AAv?$AAi?$AAe?$AAw?$AA?9?$AA?$DO?$AAs?$AAc?$AAr?$AAo?$AAl?$AAl?$AA_?$AAp?$AAo?$AAi?$AAn?$AAt?$AAe?$AAr?$AA?$AA@
CONST	SEGMENT
??_C@_1CK@PJMKKIBM@?$AAv?$AAi?$AAe?$AAw?$AA?9?$AA?$DO?$AAs?$AAc?$AAr?$AAo?$AAl?$AAl?$AA_?$AAp?$AAo?$AAi?$AAn?$AAt?$AAe?$AAr?$AA?$AA@ DB 'v'
	DB	00H, 'i', 00H, 'e', 00H, 'w', 00H, '-', 00H, '>', 00H, 's', 00H
	DB	'c', 00H, 'r', 00H, 'o', 00H, 'l', 00H, 'l', 00H, '_', 00H, 'p'
	DB	00H, 'o', 00H, 'i', 00H, 'n', 00H, 't', 00H, 'e', 00H, 'r', 00H
	DB	00H, 00H					; `string'
CONST	ENDS
;	COMDAT ??_C@_1BE@PIEBDDFH@?$AAv?$AAi?$AAe?$AAw?$AA?9?$AA?$DO?$AAc?$AAt?$AAx?$AA?$AA@
CONST	SEGMENT
??_C@_1BE@PIEBDDFH@?$AAv?$AAi?$AAe?$AAw?$AA?9?$AA?$DO?$AAc?$AAt?$AAx?$AA?$AA@ DB 'v'
	DB	00H, 'i', 00H, 'e', 00H, 'w', 00H, '-', 00H, '>', 00H, 'c', 00H
	DB	't', 00H, 'x', 00H, 00H, 00H			; `string'
CONST	ENDS
;	COMDAT ?__LINE__Var@?1??nk_list_view_end@@9@9
_DATA	SEGMENT
?__LINE__Var@?1??nk_list_view_end@@9@9 DD 0567aH	; `nk_list_view_end'::`2'::__LINE__Var
_DATA	ENDS
;	COMDAT ??_C@_19IGFHNPAK@?$AAv?$AAi?$AAe?$AAw?$AA?$AA@
CONST	SEGMENT
??_C@_19IGFHNPAK@?$AAv?$AAi?$AAe?$AAw?$AA?$AA@ DB 'v', 00H, 'i', 00H, 'e', 00H
	DB	'w', 00H, 00H, 00H				; `string'
CONST	ENDS
;	COMDAT ?__LINE__Var@?1??nk_list_view_begin@@9@9
_DATA	SEGMENT
?__LINE__Var@?1??nk_list_view_begin@@9@9 DD 05645H	; `nk_list_view_begin'::`2'::__LINE__Var
_DATA	ENDS
;	COMDAT ??_C@_1BC@LAFIKKBI@?$AAy?$AA_?$AAo?$AAf?$AAf?$AAs?$AAe?$AAt?$AA?$AA@
CONST	SEGMENT
??_C@_1BC@LAFIKKBI@?$AAy?$AA_?$AAo?$AAf?$AAf?$AAs?$AAe?$AAt?$AA?$AA@ DB 'y'
	DB	00H, '_', 00H, 'o', 00H, 'f', 00H, 'f', 00H, 's', 00H, 'e', 00H
	DB	't', 00H, 00H, 00H				; `string'
CONST	ENDS
;	COMDAT ??_C@_1BC@FPAKBMPJ@?$AAx?$AA_?$AAo?$AAf?$AAf?$AAs?$AAe?$AAt?$AA?$AA@
CONST	SEGMENT
??_C@_1BC@FPAKBMPJ@?$AAx?$AA_?$AAo?$AAf?$AAf?$AAs?$AAe?$AAt?$AA?$AA@ DB 'x'
	DB	00H, '_', 00H, 'o', 00H, 'f', 00H, 'f', 00H, 's', 00H, 'e', 00H
	DB	't', 00H, 00H, 00H				; `string'
CONST	ENDS
;	COMDAT ?__LINE__Var@?1??nk_group_begin@@9@9
_DATA	SEGMENT
?__LINE__Var@?1??nk_group_begin@@9@9 DD 0561fH		; `nk_group_begin'::`2'::__LINE__Var
_DATA	ENDS
;	COMDAT ??_C@_1BE@KEJBMHNG@?$AAg?$AA?9?$AA?$DO?$AAp?$AAa?$AAr?$AAe?$AAn?$AAt?$AA?$AA@
CONST	SEGMENT
??_C@_1BE@KEJBMHNG@?$AAg?$AA?9?$AA?$DO?$AAp?$AAa?$AAr?$AAe?$AAn?$AAt?$AA?$AA@ DB 'g'
	DB	00H, '-', 00H, '>', 00H, 'p', 00H, 'a', 00H, 'r', 00H, 'e', 00H
	DB	'n', 00H, 't', 00H, 00H, 00H			; `string'
CONST	ENDS
;	COMDAT ??_C@_1BI@MGIMHMOI@?$AAw?$AAi?$AAn?$AA?9?$AA?$DO?$AAl?$AAa?$AAy?$AAo?$AAu?$AAt?$AA?$AA@
CONST	SEGMENT
??_C@_1BI@MGIMHMOI@?$AAw?$AAi?$AAn?$AA?9?$AA?$DO?$AAl?$AAa?$AAy?$AAo?$AAu?$AAt?$AA?$AA@ DB 'w'
	DB	00H, 'i', 00H, 'n', 00H, '-', 00H, '>', 00H, 'l', 00H, 'a', 00H
	DB	'y', 00H, 'o', 00H, 'u', 00H, 't', 00H, 00H, 00H ; `string'
CONST	ENDS
;	COMDAT ?__LINE__Var@?1??nk_group_scrolled_end@@9@9
_DATA	SEGMENT
?__LINE__Var@?1??nk_group_scrolled_end@@9@9 DD 055dbH	; `nk_group_scrolled_end'::`2'::__LINE__Var
_DATA	ENDS
;	COMDAT ??_C@_1BK@MGBAIKDD@?$AAv?$AAa?$AAl?$AAu?$AAe?$AA_?$AAg?$AAe?$AAt?$AAt?$AAe?$AAr?$AA?$AA@
CONST	SEGMENT
??_C@_1BK@MGBAIKDD@?$AAv?$AAa?$AAl?$AAu?$AAe?$AA_?$AAg?$AAe?$AAt?$AAt?$AAe?$AAr?$AA?$AA@ DB 'v'
	DB	00H, 'a', 00H, 'l', 00H, 'u', 00H, 'e', 00H, '_', 00H, 'g', 00H
	DB	'e', 00H, 't', 00H, 't', 00H, 'e', 00H, 'r', 00H, 00H, 00H ; `string'
CONST	ENDS
;	COMDAT ?__LINE__Var@?1??nk_plot_function@@9@9
_DATA	SEGMENT
?__LINE__Var@?1??nk_plot_function@@9@9 DD 0558bH	; `nk_plot_function'::`2'::__LINE__Var
_DATA	ENDS
;	COMDAT ??_C@_1O@IBMGLEDN@?$AAv?$AAa?$AAl?$AAu?$AAe?$AAs?$AA?$AA@
CONST	SEGMENT
??_C@_1O@IBMGLEDN@?$AAv?$AAa?$AAl?$AAu?$AAe?$AAs?$AA?$AA@ DB 'v', 00H, 'a'
	DB	00H, 'l', 00H, 'u', 00H, 'e', 00H, 's', 00H, 00H, 00H ; `string'
CONST	ENDS
;	COMDAT ?__LINE__Var@?1??nk_plot@@9@9
_DATA	SEGMENT
?__LINE__Var@?1??nk_plot@@9@9 DD 05571H			; `nk_plot'::`2'::__LINE__Var
_DATA	ENDS
;	COMDAT ?__LINE__Var@?1??nk_chart_end@@9@9
_DATA	SEGMENT
?__LINE__Var@?1??nk_chart_end@@9@9 DD 0555fH		; `nk_chart_end'::`2'::__LINE__Var
_DATA	ENDS
;	COMDAT ??_C@_1FA@NCCAOEEL@?$AAs?$AAl?$AAo?$AAt?$AA?5?$AA?$DM?$AA?5?$AAc?$AAt?$AAx?$AA?9?$AA?$DO?$AAc?$AAu?$AAr?$AAr?$AAe?$AAn?$AAt?$AA?9?$AA?$DO?$AAl?$AAa?$AAy?$AAo?$AAu?$AAt?$AA?9?$AA?$DO?$AAc?$AAh?$AAa@
CONST	SEGMENT
??_C@_1FA@NCCAOEEL@?$AAs?$AAl?$AAo?$AAt?$AA?5?$AA?$DM?$AA?5?$AAc?$AAt?$AAx?$AA?9?$AA?$DO?$AAc?$AAu?$AAr?$AAr?$AAe?$AAn?$AAt?$AA?9?$AA?$DO?$AAl?$AAa?$AAy?$AAo?$AAu?$AAt?$AA?9?$AA?$DO?$AAc?$AAh?$AAa@ DB 's'
	DB	00H, 'l', 00H, 'o', 00H, 't', 00H, ' ', 00H, '<', 00H, ' ', 00H
	DB	'c', 00H, 't', 00H, 'x', 00H, '-', 00H, '>', 00H, 'c', 00H, 'u'
	DB	00H, 'r', 00H, 'r', 00H, 'e', 00H, 'n', 00H, 't', 00H, '-', 00H
	DB	'>', 00H, 'l', 00H, 'a', 00H, 'y', 00H, 'o', 00H, 'u', 00H, 't'
	DB	00H, '-', 00H, '>', 00H, 'c', 00H, 'h', 00H, 'a', 00H, 'r', 00H
	DB	't', 00H, '.', 00H, 's', 00H, 'l', 00H, 'o', 00H, 't', 00H, 00H
	DB	00H						; `string'
CONST	ENDS
;	COMDAT ?__LINE__Var@?1??nk_chart_push_slot@@9@9
_DATA	SEGMENT
?__LINE__Var@?1??nk_chart_push_slot@@9@9 DD 05540H	; `nk_chart_push_slot'::`2'::__LINE__Var
_DATA	ENDS
;	COMDAT ?__LINE__Var@?1??nk_chart_push_column@@9@9@ddf8d5d8
_DATA	SEGMENT
?__LINE__Var@?1??nk_chart_push_column@@9@9@ddf8d5d8 DD 05512H ; `nk_chart_push_column'::`2'::__LINE__Var
_DATA	ENDS
;	COMDAT ??_C@_1CM@OFPHFACA@?$AAs?$AAl?$AAo?$AAt?$AA?5?$AA?$DO?$AA?$DN?$AA?5?$AA0?$AA?5?$AA?$CG?$AA?$CG?$AA?5?$AAs?$AAl?$AAo?$AAt?$AA?5?$AA?$DM?$AA?5?$AA4?$AA?$AA@
CONST	SEGMENT
??_C@_1CM@OFPHFACA@?$AAs?$AAl?$AAo?$AAt?$AA?5?$AA?$DO?$AA?$DN?$AA?5?$AA0?$AA?5?$AA?$CG?$AA?$CG?$AA?5?$AAs?$AAl?$AAo?$AAt?$AA?5?$AA?$DM?$AA?5?$AA4?$AA?$AA@ DB 's'
	DB	00H, 'l', 00H, 'o', 00H, 't', 00H, ' ', 00H, '>', 00H, '=', 00H
	DB	' ', 00H, '0', 00H, ' ', 00H, '&', 00H, '&', 00H, ' ', 00H, 's'
	DB	00H, 'l', 00H, 'o', 00H, 't', 00H, ' ', 00H, '<', 00H, ' ', 00H
	DB	'4', 00H, 00H, 00H				; `string'
CONST	ENDS
;	COMDAT ?__LINE__Var@?1??nk_chart_push_line@@9@9@ddf8d5d8
_DATA	SEGMENT
?__LINE__Var@?1??nk_chart_push_line@@9@9@ddf8d5d8 DD 054cbH ; `nk_chart_push_line'::`2'::__LINE__Var
_DATA	ENDS
;	COMDAT ??_C@_1EK@IHPMBODD@?$AAc?$AAt?$AAx?$AA?9?$AA?$DO?$AAc?$AAu?$AAr?$AAr?$AAe?$AAn?$AAt?$AA?9?$AA?$DO?$AAl?$AAa?$AAy?$AAo?$AAu?$AAt?$AA?9?$AA?$DO?$AAc?$AAh?$AAa?$AAr?$AAt?$AA?4?$AAs?$AAl?$AAo?$AAt@
CONST	SEGMENT
??_C@_1EK@IHPMBODD@?$AAc?$AAt?$AAx?$AA?9?$AA?$DO?$AAc?$AAu?$AAr?$AAr?$AAe?$AAn?$AAt?$AA?9?$AA?$DO?$AAl?$AAa?$AAy?$AAo?$AAu?$AAt?$AA?9?$AA?$DO?$AAc?$AAh?$AAa?$AAr?$AAt?$AA?4?$AAs?$AAl?$AAo?$AAt@ DB 'c'
	DB	00H, 't', 00H, 'x', 00H, '-', 00H, '>', 00H, 'c', 00H, 'u', 00H
	DB	'r', 00H, 'r', 00H, 'e', 00H, 'n', 00H, 't', 00H, '-', 00H, '>'
	DB	00H, 'l', 00H, 'a', 00H, 'y', 00H, 'o', 00H, 'u', 00H, 't', 00H
	DB	'-', 00H, '>', 00H, 'c', 00H, 'h', 00H, 'a', 00H, 'r', 00H, 't'
	DB	00H, '.', 00H, 's', 00H, 'l', 00H, 'o', 00H, 't', 00H, ' ', 00H
	DB	'<', 00H, ' ', 00H, '4', 00H, 00H, 00H	; `string'
CONST	ENDS
;	COMDAT ?__LINE__Var@?1??nk_chart_add_slot_colored@@9@9
_DATA	SEGMENT
?__LINE__Var@?1??nk_chart_add_slot_colored@@9@9 DD 054afH ; `nk_chart_add_slot_colored'::`2'::__LINE__Var
_DATA	ENDS
;	COMDAT ?__LINE__Var@?1??nk_chart_begin_colored@@9@9
_DATA	SEGMENT
?__LINE__Var@?1??nk_chart_begin_colored@@9@9 DD 0546eH	; `nk_chart_begin_colored'::`2'::__LINE__Var
_DATA	ENDS
;	COMDAT ?__LINE__Var@?1??nk_color_pick@@9@9
_DATA	SEGMENT
?__LINE__Var@?1??nk_color_pick@@9@9 DD 05443H		; `nk_color_pick'::`2'::__LINE__Var
_DATA	ENDS
;	COMDAT ?__LINE__Var@?1??nk_propertyd@@9@9
_DATA	SEGMENT
?__LINE__Var@?1??nk_propertyd@@9@9 DD 0542fH		; `nk_propertyd'::`2'::__LINE__Var
_DATA	ENDS
;	COMDAT ?__LINE__Var@?1??nk_propertyf@@9@9
_DATA	SEGMENT
?__LINE__Var@?1??nk_propertyf@@9@9 DD 05420H		; `nk_propertyf'::`2'::__LINE__Var
_DATA	ENDS
;	COMDAT ?__LINE__Var@?1??nk_propertyi@@9@9
_DATA	SEGMENT
?__LINE__Var@?1??nk_propertyi@@9@9 DD 05411H		; `nk_propertyi'::`2'::__LINE__Var
_DATA	ENDS
;	COMDAT ?__LINE__Var@?1??nk_property_double@@9@9
_DATA	SEGMENT
?__LINE__Var@?1??nk_property_double@@9@9 DD 05402H	; `nk_property_double'::`2'::__LINE__Var
_DATA	ENDS
;	COMDAT ?__LINE__Var@?1??nk_property_float@@9@9
_DATA	SEGMENT
?__LINE__Var@?1??nk_property_float@@9@9 DD 053f3H	; `nk_property_float'::`2'::__LINE__Var
_DATA	ENDS
;	COMDAT ??_C@_17ECLKCMMF@?$AAv?$AAa?$AAl?$AA?$AA@
CONST	SEGMENT
??_C@_17ECLKCMMF@?$AAv?$AAa?$AAl?$AA?$AA@ DB 'v', 00H, 'a', 00H, 'l', 00H
	DB	00H, 00H					; `string'
CONST	ENDS
;	COMDAT ?__LINE__Var@?1??nk_property_int@@9@9
_DATA	SEGMENT
?__LINE__Var@?1??nk_property_int@@9@9 DD 053e4H		; `nk_property_int'::`2'::__LINE__Var
_DATA	ENDS
;	COMDAT ?__LINE__Var@?1??nk_property@@9@9@ddf8d5d8
_DATA	SEGMENT
?__LINE__Var@?1??nk_property@@9@9@ddf8d5d8 DD 0537fH	; `nk_property'::`2'::__LINE__Var
_DATA	ENDS
;	COMDAT ??_C@_19LELMJPKF@?$AAe?$AAd?$AAi?$AAt?$AA?$AA@
CONST	SEGMENT
??_C@_19LELMJPKF@?$AAe?$AAd?$AAi?$AAt?$AA?$AA@ DB 'e', 00H, 'd', 00H, 'i', 00H
	DB	't', 00H, 00H, 00H				; `string'
CONST	ENDS
;	COMDAT ?__LINE__Var@?1??nk_edit_buffer@@9@9
_DATA	SEGMENT
?__LINE__Var@?1??nk_edit_buffer@@9@9 DD 0530dH		; `nk_edit_buffer'::`2'::__LINE__Var
_DATA	ENDS
;	COMDAT ?__LINE__Var@?1??nk_edit_string@@9@9
_DATA	SEGMENT
?__LINE__Var@?1??nk_edit_string@@9@9 DD 052d3H		; `nk_edit_string'::`2'::__LINE__Var
_DATA	ENDS
;	COMDAT ?__LINE__Var@?1??nk_edit_unfocus@@9@9
_DATA	SEGMENT
?__LINE__Var@?1??nk_edit_unfocus@@9@9 DD 052c5H		; `nk_edit_unfocus'::`2'::__LINE__Var
_DATA	ENDS
;	COMDAT ?__LINE__Var@?1??nk_edit_focus@@9@9
_DATA	SEGMENT
?__LINE__Var@?1??nk_edit_focus@@9@9 DD 052b3H		; `nk_edit_focus'::`2'::__LINE__Var
_DATA	ENDS
;	COMDAT ??_C@_17FOGAHDKL@?$AAc?$AAu?$AAr?$AA?$AA@
CONST	SEGMENT
??_C@_17FOGAHDKL@?$AAc?$AAu?$AAr?$AA?$AA@ DB 'c', 00H, 'u', 00H, 'r', 00H
	DB	00H, 00H					; `string'
CONST	ENDS
;	COMDAT ?__LINE__Var@?1??nk_progress@@9@9
_DATA	SEGMENT
?__LINE__Var@?1??nk_progress@@9@9 DD 0528bH		; `nk_progress'::`2'::__LINE__Var
_DATA	ENDS
;	COMDAT ?__LINE__Var@?1??nk_slider_float@@9@9
_DATA	SEGMENT
?__LINE__Var@?1??nk_slider_float@@9@9 DD 0524cH		; `nk_slider_float'::`2'::__LINE__Var
_DATA	ENDS
;	COMDAT ?__LINE__Var@?1??nk_radio_text@@9@9
_DATA	SEGMENT
?__LINE__Var@?1??nk_radio_text@@9@9 DD 05231H		; `nk_radio_text'::`2'::__LINE__Var
_DATA	ENDS
;	COMDAT ?__LINE__Var@?1??nk_option_text@@9@9
_DATA	SEGMENT
?__LINE__Var@?1??nk_option_text@@9@9 DD 05214H		; `nk_option_text'::`2'::__LINE__Var
_DATA	ENDS
;	COMDAT ??_C@_1M@PIKEIEDD@?$AAf?$AAl?$AAa?$AAg?$AAs?$AA?$AA@
CONST	SEGMENT
??_C@_1M@PIKEIEDD@?$AAf?$AAl?$AAa?$AAg?$AAs?$AA?$AA@ DB 'f', 00H, 'l', 00H
	DB	'a', 00H, 'g', 00H, 's', 00H, 00H, 00H	; `string'
CONST	ENDS
;	COMDAT ?__LINE__Var@?1??nk_checkbox_flags_text@@9@9
_DATA	SEGMENT
?__LINE__Var@?1??nk_checkbox_flags_text@@9@9 DD 051efH	; `nk_checkbox_flags_text'::`2'::__LINE__Var
_DATA	ENDS
;	COMDAT ??_C@_1O@IBNPCBAA@?$AAa?$AAc?$AAt?$AAi?$AAv?$AAe?$AA?$AA@
CONST	SEGMENT
??_C@_1O@IBNPCBAA@?$AAa?$AAc?$AAt?$AAi?$AAv?$AAe?$AA?$AA@ DB 'a', 00H, 'c'
	DB	00H, 't', 00H, 'i', 00H, 'v', 00H, 'e', 00H, 00H, 00H ; `string'
CONST	ENDS
;	COMDAT ?__LINE__Var@?1??nk_checkbox_text@@9@9
_DATA	SEGMENT
?__LINE__Var@?1??nk_checkbox_text@@9@9 DD 051e1H	; `nk_checkbox_text'::`2'::__LINE__Var
_DATA	ENDS
;	COMDAT ?__LINE__Var@?1??nk_check_flags_text@@9@9
_DATA	SEGMENT
?__LINE__Var@?1??nk_check_flags_text@@9@9 DD 051d3H	; `nk_check_flags_text'::`2'::__LINE__Var
_DATA	ENDS
;	COMDAT ?__LINE__Var@?1??nk_check_text@@9@9
_DATA	SEGMENT
?__LINE__Var@?1??nk_check_text@@9@9 DD 051b5H		; `nk_check_text'::`2'::__LINE__Var
_DATA	ENDS
;	COMDAT ?__LINE__Var@?1??nk_selectable_image_text@@9@9
_DATA	SEGMENT
?__LINE__Var@?1??nk_selectable_image_text@@9@9 DD 0517dH ; `nk_selectable_image_text'::`2'::__LINE__Var
_DATA	ENDS
;	COMDAT ?__LINE__Var@?1??nk_selectable_text@@9@9
_DATA	SEGMENT
?__LINE__Var@?1??nk_selectable_text@@9@9 DD 0515fH	; `nk_selectable_text'::`2'::__LINE__Var
_DATA	ENDS
;	COMDAT ?__LINE__Var@?1??nk_button_image_text_styled@@9@9
_DATA	SEGMENT
?__LINE__Var@?1??nk_button_image_text_styled@@9@9 DD 0512fH ; `nk_button_image_text_styled'::`2'::__LINE__Var
_DATA	ENDS
;	COMDAT ?__LINE__Var@?1??nk_button_symbol_text@@9@9
_DATA	SEGMENT
?__LINE__Var@?1??nk_button_symbol_text@@9@9 DD 0511cH	; `nk_button_symbol_text'::`2'::__LINE__Var
_DATA	ENDS
;	COMDAT ?__LINE__Var@?1??nk_button_symbol_text_styled@@9@9
_DATA	SEGMENT
?__LINE__Var@?1??nk_button_symbol_text_styled@@9@9 DD 05100H ; `nk_button_symbol_text_styled'::`2'::__LINE__Var
_DATA	ENDS
;	COMDAT ?__LINE__Var@?1??nk_button_image@@9@9
_DATA	SEGMENT
?__LINE__Var@?1??nk_button_image@@9@9 DD 050f6H		; `nk_button_image'::`2'::__LINE__Var
_DATA	ENDS
;	COMDAT ?__LINE__Var@?1??nk_button_image_styled@@9@9
_DATA	SEGMENT
?__LINE__Var@?1??nk_button_image_styled@@9@9 DD 050dcH	; `nk_button_image_styled'::`2'::__LINE__Var
_DATA	ENDS
;	COMDAT ?__LINE__Var@?1??nk_button_symbol@@9@9
_DATA	SEGMENT
?__LINE__Var@?1??nk_button_symbol@@9@9 DD 050d3H	; `nk_button_symbol'::`2'::__LINE__Var
_DATA	ENDS
;	COMDAT ?__LINE__Var@?1??nk_button_symbol_styled@@9@9
_DATA	SEGMENT
?__LINE__Var@?1??nk_button_symbol_styled@@9@9 DD 050baH	; `nk_button_symbol_styled'::`2'::__LINE__Var
_DATA	ENDS
;	COMDAT ?__LINE__Var@?1??nk_button_color@@9@9
_DATA	SEGMENT
?__LINE__Var@?1??nk_button_color@@9@9 DD 05095H		; `nk_button_color'::`2'::__LINE__Var
_DATA	ENDS
;	COMDAT ?__LINE__Var@?1??nk_button_text@@9@9
_DATA	SEGMENT
?__LINE__Var@?1??nk_button_text@@9@9 DD 05086H		; `nk_button_text'::`2'::__LINE__Var
_DATA	ENDS
;	COMDAT ?__LINE__Var@?1??nk_button_text_styled@@9@9
_DATA	SEGMENT
?__LINE__Var@?1??nk_button_text_styled@@9@9 DD 0506bH	; `nk_button_text_styled'::`2'::__LINE__Var
_DATA	ENDS
;	COMDAT ??_C@_1CO@FDFLJFOK@?$AAb?$AAu?$AAt?$AAt?$AAo?$AAn?$AA_?$AAs?$AAt?$AAa?$AAc?$AAk?$AA?9?$AA?$DO?$AAh?$AAe?$AAa?$AAd?$AA?5?$AA?$DO?$AA?5?$AA0?$AA?$AA@
CONST	SEGMENT
??_C@_1CO@FDFLJFOK@?$AAb?$AAu?$AAt?$AAt?$AAo?$AAn?$AA_?$AAs?$AAt?$AAa?$AAc?$AAk?$AA?9?$AA?$DO?$AAh?$AAe?$AAa?$AAd?$AA?5?$AA?$DO?$AA?5?$AA0?$AA?$AA@ DB 'b'
	DB	00H, 'u', 00H, 't', 00H, 't', 00H, 'o', 00H, 'n', 00H, '_', 00H
	DB	's', 00H, 't', 00H, 'a', 00H, 'c', 00H, 'k', 00H, '-', 00H, '>'
	DB	00H, 'h', 00H, 'e', 00H, 'a', 00H, 'd', 00H, ' ', 00H, '>', 00H
	DB	' ', 00H, '0', 00H, 00H, 00H			; `string'
CONST	ENDS
;	COMDAT ?__LINE__Var@?1??nk_button_pop_behavior@@9@9
_DATA	SEGMENT
?__LINE__Var@?1??nk_button_pop_behavior@@9@9 DD 05057H	; `nk_button_pop_behavior'::`2'::__LINE__Var
_DATA	ENDS
;	COMDAT ??_C@_1LK@JEBCHHPP@?$AAb?$AAu?$AAt?$AAt?$AAo?$AAn?$AA_?$AAs?$AAt?$AAa?$AAc?$AAk?$AA?9?$AA?$DO?$AAh?$AAe?$AAa?$AAd?$AA?5?$AA?$DM?$AA?5?$AA?$CI?$AAi?$AAn?$AAt?$AA?$CJ?$AA?$CI?$AAs?$AAi?$AAz?$AAe?$AAo@
CONST	SEGMENT
??_C@_1LK@JEBCHHPP@?$AAb?$AAu?$AAt?$AAt?$AAo?$AAn?$AA_?$AAs?$AAt?$AAa?$AAc?$AAk?$AA?9?$AA?$DO?$AAh?$AAe?$AAa?$AAd?$AA?5?$AA?$DM?$AA?5?$AA?$CI?$AAi?$AAn?$AAt?$AA?$CJ?$AA?$CI?$AAs?$AAi?$AAz?$AAe?$AAo@ DB 'b'
	DB	00H, 'u', 00H, 't', 00H, 't', 00H, 'o', 00H, 'n', 00H, '_', 00H
	DB	's', 00H, 't', 00H, 'a', 00H, 'c', 00H, 'k', 00H, '-', 00H, '>'
	DB	00H, 'h', 00H, 'e', 00H, 'a', 00H, 'd', 00H, ' ', 00H, '<', 00H
	DB	' ', 00H, '(', 00H, 'i', 00H, 'n', 00H, 't', 00H, ')', 00H, '('
	DB	00H, 's', 00H, 'i', 00H, 'z', 00H, 'e', 00H, 'o', 00H, 'f', 00H
	DB	'(', 00H, 'b', 00H, 'u', 00H, 't', 00H, 't', 00H, 'o', 00H, 'n'
	DB	00H, '_', 00H, 's', 00H, 't', 00H, 'a', 00H, 'c', 00H, 'k', 00H
	DB	'-', 00H, '>', 00H, 'e', 00H, 'l', 00H, 'e', 00H, 'm', 00H, 'e'
	DB	00H, 'n', 00H, 't', 00H, 's', 00H, ')', 00H, '/', 00H, 's', 00H
	DB	'i', 00H, 'z', 00H, 'e', 00H, 'o', 00H, 'f', 00H, '(', 00H, 'b'
	DB	00H, 'u', 00H, 't', 00H, 't', 00H, 'o', 00H, 'n', 00H, '_', 00H
	DB	's', 00H, 't', 00H, 'a', 00H, 'c', 00H, 'k', 00H, '-', 00H, '>'
	DB	00H, 'e', 00H, 'l', 00H, 'e', 00H, 'm', 00H, 'e', 00H, 'n', 00H
	DB	't', 00H, 's', 00H, ')', 00H, '[', 00H, '0', 00H, ']', 00H, ')'
	DB	00H, 00H, 00H				; `string'
CONST	ENDS
;	COMDAT ?__LINE__Var@?1??nk_button_push_behavior@@9@9
_DATA	SEGMENT
?__LINE__Var@?1??nk_button_push_behavior@@9@9 DD 05042H	; `nk_button_push_behavior'::`2'::__LINE__Var
_DATA	ENDS
;	COMDAT ?__LINE__Var@?1??nk_button_set_behavior@@9@9
_DATA	SEGMENT
?__LINE__Var@?1??nk_button_set_behavior@@9@9 DD 0503aH	; `nk_button_set_behavior'::`2'::__LINE__Var
_DATA	ENDS
;	COMDAT ?__LINE__Var@?1??nk_image@@9@9
_DATA	SEGMENT
?__LINE__Var@?1??nk_image@@9@9 DD 05025H		; `nk_image'::`2'::__LINE__Var
_DATA	ENDS
;	COMDAT ?__LINE__Var@?1??nk_text_wrap@@9@9
_DATA	SEGMENT
?__LINE__Var@?1??nk_text_wrap@@9@9 DD 0500cH		; `nk_text_wrap'::`2'::__LINE__Var
_DATA	ENDS
;	COMDAT ?__LINE__Var@?1??nk_text@@9@9
_DATA	SEGMENT
?__LINE__Var@?1??nk_text@@9@9 DD 05004H			; `nk_text'::`2'::__LINE__Var
_DATA	ENDS
;	COMDAT ??_C@_0BN@KPPADBIM@?$CFs?3?5?$CI?$CF?42f?0?5?$CF?42f?0?5?$CF?42f?0?5?$CF?42f?$CJ?$AA@
CONST	SEGMENT
??_C@_0BN@KPPADBIM@?$CFs?3?5?$CI?$CF?42f?0?5?$CF?42f?0?5?$CF?42f?0?5?$CF?42f?$CJ?$AA@ DB '%'
	DB	's: (%.2f, %.2f, %.2f, %.2f)', 00H		; `string'
CONST	ENDS
;	COMDAT ??_C@_0BF@LMCNFMJH@?$CFs?3?5?$CI?$CFd?0?5?$CFd?0?5?$CFd?0?5?$CFd?$CJ?$AA@
CONST	SEGMENT
??_C@_0BF@LMCNFMJH@?$CFs?3?5?$CI?$CFd?0?5?$CFd?0?5?$CFd?0?5?$CFd?$CJ?$AA@ DB '%'
	DB	's: (%d, %d, %d, %d)', 00H			; `string'
CONST	ENDS
;	COMDAT ??_C@_08KELGKKHF@?$CFs?3?5?$CF?43f?$AA@
CONST	SEGMENT
??_C@_08KELGKKHF@?$CFs?3?5?$CF?43f?$AA@ DB '%s: %.3f', 00H ; `string'
CONST	ENDS
;	COMDAT ??_C@_06FFMNEPHE@?$CFs?3?5?$CFu?$AA@
CONST	SEGMENT
??_C@_06FFMNEPHE@?$CFs?3?5?$CFu?$AA@ DB '%s: %u', 00H	; `string'
CONST	ENDS
;	COMDAT ??_C@_06GBEGMGE@?$CFs?3?5?$CFd?$AA@
CONST	SEGMENT
??_C@_06GBEGMGE@?$CFs?3?5?$CFd?$AA@ DB '%s: %d', 00H	; `string'
CONST	ENDS
;	COMDAT ??_C@_06DJHOIPC@?$CFs?3?5?$CFs?$AA@
CONST	SEGMENT
??_C@_06DJHOIPC@?$CFs?3?5?$CFs?$AA@ DB '%s: %s', 00H	; `string'
CONST	ENDS
;	COMDAT ??_C@_05LAPONLG@false?$AA@
CONST	SEGMENT
??_C@_05LAPONLG@false?$AA@ DB 'false', 00H		; `string'
CONST	ENDS
;	COMDAT ??_C@_04LOAJBDKD@true?$AA@
CONST	SEGMENT
??_C@_04LOAJBDKD@true?$AA@ DB 'true', 00H		; `string'
CONST	ENDS
;	COMDAT ?__LINE__Var@?1??nk_text_wrap_colored@@9@9
_DATA	SEGMENT
?__LINE__Var@?1??nk_text_wrap_colored@@9@9 DD 04f92H	; `nk_text_wrap_colored'::`2'::__LINE__Var
_DATA	ENDS
;	COMDAT ?__LINE__Var@?1??nk_text_colored@@9@9
_DATA	SEGMENT
?__LINE__Var@?1??nk_text_colored@@9@9 DD 04f76H		; `nk_text_colored'::`2'::__LINE__Var
_DATA	ENDS
;	COMDAT ?__LINE__Var@?1??nk_spacing@@9@9
_DATA	SEGMENT
?__LINE__Var@?1??nk_spacing@@9@9 DD 04f4fH		; `nk_spacing'::`2'::__LINE__Var
_DATA	ENDS
;	COMDAT ?__LINE__Var@?1??nk_widget_fitting@@9@9
_DATA	SEGMENT
?__LINE__Var@?1??nk_widget_fitting@@9@9 DD 04f29H	; `nk_widget_fitting'::`2'::__LINE__Var
_DATA	ENDS
;	COMDAT ?__LINE__Var@?1??nk_widget@@9@9
_DATA	SEGMENT
?__LINE__Var@?1??nk_widget@@9@9 DD 04ef7H		; `nk_widget'::`2'::__LINE__Var
_DATA	ENDS
;	COMDAT ?__LINE__Var@?1??nk_widget_has_mouse_click_down@@9@9
_DATA	SEGMENT
?__LINE__Var@?1??nk_widget_has_mouse_click_down@@9@9 DD 04ee0H ; `nk_widget_has_mouse_click_down'::`2'::__LINE__Var
_DATA	ENDS
;	COMDAT ?__LINE__Var@?1??nk_widget_is_mouse_clicked@@9@9
_DATA	SEGMENT
?__LINE__Var@?1??nk_widget_is_mouse_clicked@@9@9 DD 04ec9H ; `nk_widget_is_mouse_clicked'::`2'::__LINE__Var
_DATA	ENDS
;	COMDAT ?__LINE__Var@?1??nk_widget_is_hovered@@9@9
_DATA	SEGMENT
?__LINE__Var@?1??nk_widget_is_hovered@@9@9 DD 04eb2H	; `nk_widget_is_hovered'::`2'::__LINE__Var
_DATA	ENDS
;	COMDAT ?__LINE__Var@?1??nk_widget_height@@9@9
_DATA	SEGMENT
?__LINE__Var@?1??nk_widget_height@@9@9 DD 04ea5H	; `nk_widget_height'::`2'::__LINE__Var
_DATA	ENDS
;	COMDAT ?__LINE__Var@?1??nk_widget_width@@9@9
_DATA	SEGMENT
?__LINE__Var@?1??nk_widget_width@@9@9 DD 04e98H		; `nk_widget_width'::`2'::__LINE__Var
_DATA	ENDS
;	COMDAT ?__LINE__Var@?1??nk_widget_size@@9@9
_DATA	SEGMENT
?__LINE__Var@?1??nk_widget_size@@9@9 DD 04e8bH		; `nk_widget_size'::`2'::__LINE__Var
_DATA	ENDS
;	COMDAT ?__LINE__Var@?1??nk_widget_position@@9@9
_DATA	SEGMENT
?__LINE__Var@?1??nk_widget_position@@9@9 DD 04e7eH	; `nk_widget_position'::`2'::__LINE__Var
_DATA	ENDS
;	COMDAT ?__LINE__Var@?1??nk_widget_bounds@@9@9
_DATA	SEGMENT
?__LINE__Var@?1??nk_widget_bounds@@9@9 DD 04e72H	; `nk_widget_bounds'::`2'::__LINE__Var
_DATA	ENDS
;	COMDAT ??_C@_1CO@ONCLGDAH@?$AAl?$AAa?$AAy?$AAo?$AAu?$AAt?$AA?9?$AA?$DO?$AAr?$AAo?$AAw?$AA?4?$AAt?$AAr?$AAe?$AAe?$AA_?$AAd?$AAe?$AAp?$AAt?$AAh?$AA?$AA@
CONST	SEGMENT
??_C@_1CO@ONCLGDAH@?$AAl?$AAa?$AAy?$AAo?$AAu?$AAt?$AA?9?$AA?$DO?$AAr?$AAo?$AAw?$AA?4?$AAt?$AAr?$AAe?$AAe?$AA_?$AAd?$AAe?$AAp?$AAt?$AAh?$AA?$AA@ DB 'l'
	DB	00H, 'a', 00H, 'y', 00H, 'o', 00H, 'u', 00H, 't', 00H, '-', 00H
	DB	'>', 00H, 'r', 00H, 'o', 00H, 'w', 00H, '.', 00H, 't', 00H, 'r'
	DB	00H, 'e', 00H, 'e', 00H, '_', 00H, 'd', 00H, 'e', 00H, 'p', 00H
	DB	't', 00H, 'h', 00H, 00H, 00H			; `string'
CONST	ENDS
;	COMDAT ?__LINE__Var@?1??nk_tree_state_pop@@9@9
_DATA	SEGMENT
?__LINE__Var@?1??nk_tree_state_pop@@9@9 DD 04e49H	; `nk_tree_state_pop'::`2'::__LINE__Var
_DATA	ENDS
;	COMDAT ?__LINE__Var@?1??nk_tree_state_base@@9@9@ddf8d5d8
_DATA	SEGMENT
?__LINE__Var@?1??nk_tree_state_base@@9@9@ddf8d5d8 DD 04dbcH ; `nk_tree_state_base'::`2'::__LINE__Var
_DATA	ENDS
;	COMDAT ?__LINE__Var@?1??nk_layout_peek@@9@9@ddf8d5d8
_DATA	SEGMENT
?__LINE__Var@?1??nk_layout_peek@@9@9@ddf8d5d8 DD 04da0H	; `nk_layout_peek'::`2'::__LINE__Var
_DATA	ENDS
;	COMDAT ?__LINE__Var@?1??nk_panel_alloc_space@@9@9@ddf8d5d8
_DATA	SEGMENT
?__LINE__Var@?1??nk_panel_alloc_space@@9@9@ddf8d5d8 DD 04d89H ; `nk_panel_alloc_space'::`2'::__LINE__Var
_DATA	ENDS
;	COMDAT ??_C@_1CO@JFBIDLDE@?$AAl?$AAa?$AAy?$AAo?$AAu?$AAt?$AA?9?$AA?$DO?$AAr?$AAo?$AAw?$AA?4?$AAi?$AAn?$AAd?$AAe?$AAx?$AA?5?$AA?$DM?$AA?5?$AA1?$AA6?$AA?$AA@
CONST	SEGMENT
??_C@_1CO@JFBIDLDE@?$AAl?$AAa?$AAy?$AAo?$AAu?$AAt?$AA?9?$AA?$DO?$AAr?$AAo?$AAw?$AA?4?$AAi?$AAn?$AAd?$AAe?$AAx?$AA?5?$AA?$DM?$AA?5?$AA1?$AA6?$AA?$AA@ DB 'l'
	DB	00H, 'a', 00H, 'y', 00H, 'o', 00H, 'u', 00H, 't', 00H, '-', 00H
	DB	'>', 00H, 'r', 00H, 'o', 00H, 'w', 00H, '.', 00H, 'i', 00H, 'n'
	DB	00H, 'd', 00H, 'e', 00H, 'x', 00H, ' ', 00H, '<', 00H, ' ', 00H
	DB	'1', 00H, '6', 00H, 00H, 00H			; `string'
CONST	ENDS
;	COMDAT ??_C@_1FA@JKACIFKJ@?$AAl?$AAa?$AAy?$AAo?$AAu?$AAt?$AA?9?$AA?$DO?$AAr?$AAo?$AAw?$AA?4?$AAi?$AAn?$AAd?$AAe?$AAx?$AA?5?$AA?$DM?$AA?5?$AAl?$AAa?$AAy?$AAo?$AAu?$AAt?$AA?9?$AA?$DO?$AAr?$AAo?$AAw?$AA?4@
CONST	SEGMENT
??_C@_1FA@JKACIFKJ@?$AAl?$AAa?$AAy?$AAo?$AAu?$AAt?$AA?9?$AA?$DO?$AAr?$AAo?$AAw?$AA?4?$AAi?$AAn?$AAd?$AAe?$AAx?$AA?5?$AA?$DM?$AA?5?$AAl?$AAa?$AAy?$AAo?$AAu?$AAt?$AA?9?$AA?$DO?$AAr?$AAo?$AAw?$AA?4@ DB 'l'
	DB	00H, 'a', 00H, 'y', 00H, 'o', 00H, 'u', 00H, 't', 00H, '-', 00H
	DB	'>', 00H, 'r', 00H, 'o', 00H, 'w', 00H, '.', 00H, 'i', 00H, 'n'
	DB	00H, 'd', 00H, 'e', 00H, 'x', 00H, ' ', 00H, '<', 00H, ' ', 00H
	DB	'l', 00H, 'a', 00H, 'y', 00H, 'o', 00H, 'u', 00H, 't', 00H, '-'
	DB	00H, '>', 00H, 'r', 00H, 'o', 00H, 'w', 00H, '.', 00H, 'c', 00H
	DB	'o', 00H, 'l', 00H, 'u', 00H, 'm', 00H, 'n', 00H, 's', 00H, 00H
	DB	00H						; `string'
CONST	ENDS
;	COMDAT ??_C@_1CE@DKKICNJC@?$AAl?$AAa?$AAy?$AAo?$AAu?$AAt?$AA?9?$AA?$DO?$AAr?$AAo?$AAw?$AA?4?$AAr?$AAa?$AAt?$AAi?$AAo?$AA?$AA@
CONST	SEGMENT
??_C@_1CE@DKKICNJC@?$AAl?$AAa?$AAy?$AAo?$AAu?$AAt?$AA?9?$AA?$DO?$AAr?$AAo?$AAw?$AA?4?$AAr?$AAa?$AAt?$AAi?$AAo?$AA?$AA@ DB 'l'
	DB	00H, 'a', 00H, 'y', 00H, 'o', 00H, 'u', 00H, 't', 00H, '-', 00H
	DB	'>', 00H, 'r', 00H, 'o', 00H, 'w', 00H, '.', 00H, 'r', 00H, 'a'
	DB	00H, 't', 00H, 'i', 00H, 'o', 00H, 00H, 00H	; `string'
CONST	ENDS
;	COMDAT ??_C@_1O@CGNPIAKO@?$AAb?$AAo?$AAu?$AAn?$AAd?$AAs?$AA?$AA@
CONST	SEGMENT
??_C@_1O@CGNPIAKO@?$AAb?$AAo?$AAu?$AAn?$AAd?$AAs?$AA?$AA@ DB 'b', 00H, 'o'
	DB	00H, 'u', 00H, 'n', 00H, 'd', 00H, 's', 00H, 00H, 00H ; `string'
CONST	ENDS
;	COMDAT ?__LINE__Var@?1??nk_layout_widget_space@@9@9@ddf8d5d8
_DATA	SEGMENT
?__LINE__Var@?1??nk_layout_widget_space@@9@9@ddf8d5d8 DD 04d07H ; `nk_layout_widget_space'::`2'::__LINE__Var
_DATA	ENDS
;	COMDAT ?__LINE__Var@?1??nk_layout_space_rect_to_local@@9@9
_DATA	SEGMENT
?__LINE__Var@?1??nk_layout_space_rect_to_local@@9@9 DD 04cecH ; `nk_layout_space_rect_to_local'::`2'::__LINE__Var
_DATA	ENDS
;	COMDAT ?__LINE__Var@?1??nk_layout_space_rect_to_screen@@9@9
_DATA	SEGMENT
?__LINE__Var@?1??nk_layout_space_rect_to_screen@@9@9 DD 04cdbH ; `nk_layout_space_rect_to_screen'::`2'::__LINE__Var
_DATA	ENDS
;	COMDAT ?__LINE__Var@?1??nk_layout_space_to_local@@9@9
_DATA	SEGMENT
?__LINE__Var@?1??nk_layout_space_to_local@@9@9 DD 04ccaH ; `nk_layout_space_to_local'::`2'::__LINE__Var
_DATA	ENDS
;	COMDAT ?__LINE__Var@?1??nk_layout_space_to_screen@@9@9
_DATA	SEGMENT
?__LINE__Var@?1??nk_layout_space_to_screen@@9@9 DD 04cb9H ; `nk_layout_space_to_screen'::`2'::__LINE__Var
_DATA	ENDS
;	COMDAT ?__LINE__Var@?1??nk_layout_widget_bounds@@9@9
_DATA	SEGMENT
?__LINE__Var@?1??nk_layout_widget_bounds@@9@9 DD 04ca5H	; `nk_layout_widget_bounds'::`2'::__LINE__Var
_DATA	ENDS
;	COMDAT ?__LINE__Var@?1??nk_layout_space_bounds@@9@9
_DATA	SEGMENT
?__LINE__Var@?1??nk_layout_space_bounds@@9@9 DD 04c91H	; `nk_layout_space_bounds'::`2'::__LINE__Var
_DATA	ENDS
;	COMDAT ?__LINE__Var@?1??nk_layout_space_push@@9@9
_DATA	SEGMENT
?__LINE__Var@?1??nk_layout_space_push@@9@9 DD 04c80H	; `nk_layout_space_push'::`2'::__LINE__Var
_DATA	ENDS
;	COMDAT ?__LINE__Var@?1??nk_layout_space_end@@9@9
_DATA	SEGMENT
?__LINE__Var@?1??nk_layout_space_end@@9@9 DD 04c6cH	; `nk_layout_space_end'::`2'::__LINE__Var
_DATA	ENDS
;	COMDAT ?__LINE__Var@?1??nk_layout_space_begin@@9@9
_DATA	SEGMENT
?__LINE__Var@?1??nk_layout_space_begin@@9@9 DD 04c53H	; `nk_layout_space_begin'::`2'::__LINE__Var
_DATA	ENDS
;	COMDAT ?__LINE__Var@?1??nk_layout_row_template_end@@9@9
_DATA	SEGMENT
?__LINE__Var@?1??nk_layout_row_template_end@@9@9 DD 04c1eH ; `nk_layout_row_template_end'::`2'::__LINE__Var
_DATA	ENDS
;	COMDAT ?__LINE__Var@?1??nk_layout_row_template_push_static@@9@9
_DATA	SEGMENT
?__LINE__Var@?1??nk_layout_row_template_push_static@@9@9 DD 04c09H ; `nk_layout_row_template_push_static'::`2'::__LINE__Var
_DATA	ENDS
;	COMDAT ?__LINE__Var@?1??nk_layout_row_template_push_variable@@9@9
_DATA	SEGMENT
?__LINE__Var@?1??nk_layout_row_template_push_variable@@9@9 DD 04bf4H ; `nk_layout_row_template_push_variable'::`2'::__LINE__Var
_DATA	ENDS
;	COMDAT ??_C@_1DC@ELAOKKAE@?$AAl?$AAa?$AAy?$AAo?$AAu?$AAt?$AA?9?$AA?$DO?$AAr?$AAo?$AAw?$AA?4?$AAc?$AAo?$AAl?$AAu?$AAm?$AAn?$AAs?$AA?5?$AA?$DM?$AA?5?$AA1?$AA6?$AA?$AA@
CONST	SEGMENT
??_C@_1DC@ELAOKKAE@?$AAl?$AAa?$AAy?$AAo?$AAu?$AAt?$AA?9?$AA?$DO?$AAr?$AAo?$AAw?$AA?4?$AAc?$AAo?$AAl?$AAu?$AAm?$AAn?$AAs?$AA?5?$AA?$DM?$AA?5?$AA1?$AA6?$AA?$AA@ DB 'l'
	DB	00H, 'a', 00H, 'y', 00H, 'o', 00H, 'u', 00H, 't', 00H, '-', 00H
	DB	'>', 00H, 'r', 00H, 'o', 00H, 'w', 00H, '.', 00H, 'c', 00H, 'o'
	DB	00H, 'l', 00H, 'u', 00H, 'm', 00H, 'n', 00H, 's', 00H, ' ', 00H
	DB	'<', 00H, ' ', 00H, '1', 00H, '6', 00H, 00H, 00H ; `string'
CONST	ENDS
;	COMDAT ??_C@_1EO@MCBIGAOG@?$AAl?$AAa?$AAy?$AAo?$AAu?$AAt?$AA?9?$AA?$DO?$AAr?$AAo?$AAw?$AA?4?$AAt?$AAy?$AAp?$AAe?$AA?5?$AA?$DN?$AA?$DN?$AA?5?$AAN?$AAK?$AA_?$AAL?$AAA?$AAY?$AAO?$AAU?$AAT?$AA_?$AAT?$AAE@
CONST	SEGMENT
??_C@_1EO@MCBIGAOG@?$AAl?$AAa?$AAy?$AAo?$AAu?$AAt?$AA?9?$AA?$DO?$AAr?$AAo?$AAw?$AA?4?$AAt?$AAy?$AAp?$AAe?$AA?5?$AA?$DN?$AA?$DN?$AA?5?$AAN?$AAK?$AA_?$AAL?$AAA?$AAY?$AAO?$AAU?$AAT?$AA_?$AAT?$AAE@ DB 'l'
	DB	00H, 'a', 00H, 'y', 00H, 'o', 00H, 'u', 00H, 't', 00H, '-', 00H
	DB	'>', 00H, 'r', 00H, 'o', 00H, 'w', 00H, '.', 00H, 't', 00H, 'y'
	DB	00H, 'p', 00H, 'e', 00H, ' ', 00H, '=', 00H, '=', 00H, ' ', 00H
	DB	'N', 00H, 'K', 00H, '_', 00H, 'L', 00H, 'A', 00H, 'Y', 00H, 'O'
	DB	00H, 'U', 00H, 'T', 00H, '_', 00H, 'T', 00H, 'E', 00H, 'M', 00H
	DB	'P', 00H, 'L', 00H, 'A', 00H, 'T', 00H, 'E', 00H, 00H, 00H ; `string'
CONST	ENDS
;	COMDAT ?__LINE__Var@?1??nk_layout_row_template_push_dynamic@@9@9
_DATA	SEGMENT
?__LINE__Var@?1??nk_layout_row_template_push_dynamic@@9@9 DD 04bdfH ; `nk_layout_row_template_push_dynamic'::`2'::__LINE__Var
_DATA	ENDS
;	COMDAT ?__LINE__Var@?1??nk_layout_row_template_begin@@9@9
_DATA	SEGMENT
?__LINE__Var@?1??nk_layout_row_template_begin@@9@9 DD 04bc3H ; `nk_layout_row_template_begin'::`2'::__LINE__Var
_DATA	ENDS
;	COMDAT ?__LINE__Var@?1??nk_layout_row@@9@9
_DATA	SEGMENT
?__LINE__Var@?1??nk_layout_row@@9@9 DD 04b9cH		; `nk_layout_row'::`2'::__LINE__Var
_DATA	ENDS
;	COMDAT ?__LINE__Var@?1??nk_layout_row_end@@9@9
_DATA	SEGMENT
?__LINE__Var@?1??nk_layout_row_end@@9@9 DD 04b86H	; `nk_layout_row_end'::`2'::__LINE__Var
_DATA	ENDS
;	COMDAT ??_C@_1KM@KNMABCOH@?$AAl?$AAa?$AAy?$AAo?$AAu?$AAt?$AA?9?$AA?$DO?$AAr?$AAo?$AAw?$AA?4?$AAt?$AAy?$AAp?$AAe?$AA?5?$AA?$DN?$AA?$DN?$AA?5?$AAN?$AAK?$AA_?$AAL?$AAA?$AAY?$AAO?$AAU?$AAT?$AA_?$AAS?$AAT@
CONST	SEGMENT
??_C@_1KM@KNMABCOH@?$AAl?$AAa?$AAy?$AAo?$AAu?$AAt?$AA?9?$AA?$DO?$AAr?$AAo?$AAw?$AA?4?$AAt?$AAy?$AAp?$AAe?$AA?5?$AA?$DN?$AA?$DN?$AA?5?$AAN?$AAK?$AA_?$AAL?$AAA?$AAY?$AAO?$AAU?$AAT?$AA_?$AAS?$AAT@ DB 'l'
	DB	00H, 'a', 00H, 'y', 00H, 'o', 00H, 'u', 00H, 't', 00H, '-', 00H
	DB	'>', 00H, 'r', 00H, 'o', 00H, 'w', 00H, '.', 00H, 't', 00H, 'y'
	DB	00H, 'p', 00H, 'e', 00H, ' ', 00H, '=', 00H, '=', 00H, ' ', 00H
	DB	'N', 00H, 'K', 00H, '_', 00H, 'L', 00H, 'A', 00H, 'Y', 00H, 'O'
	DB	00H, 'U', 00H, 'T', 00H, '_', 00H, 'S', 00H, 'T', 00H, 'A', 00H
	DB	'T', 00H, 'I', 00H, 'C', 00H, '_', 00H, 'R', 00H, 'O', 00H, 'W'
	DB	00H, ' ', 00H, '|', 00H, '|', 00H, ' ', 00H, 'l', 00H, 'a', 00H
	DB	'y', 00H, 'o', 00H, 'u', 00H, 't', 00H, '-', 00H, '>', 00H, 'r'
	DB	00H, 'o', 00H, 'w', 00H, '.', 00H, 't', 00H, 'y', 00H, 'p', 00H
	DB	'e', 00H, ' ', 00H, '=', 00H, '=', 00H, ' ', 00H, 'N', 00H, 'K'
	DB	00H, '_', 00H, 'L', 00H, 'A', 00H, 'Y', 00H, 'O', 00H, 'U', 00H
	DB	'T', 00H, '_', 00H, 'D', 00H, 'Y', 00H, 'N', 00H, 'A', 00H, 'M'
	DB	00H, 'I', 00H, 'C', 00H, '_', 00H, 'R', 00H, 'O', 00H, 'W', 00H
	DB	00H, 00H					; `string'
CONST	ENDS
;	COMDAT ?__LINE__Var@?1??nk_layout_row_push@@9@9
_DATA	SEGMENT
?__LINE__Var@?1??nk_layout_row_push@@9@9 DD 04b6bH	; `nk_layout_row_push'::`2'::__LINE__Var
_DATA	ENDS
;	COMDAT ?__LINE__Var@?1??nk_layout_row_begin@@9@9
_DATA	SEGMENT
?__LINE__Var@?1??nk_layout_row_begin@@9@9 DD 04b51H	; `nk_layout_row_begin'::`2'::__LINE__Var
_DATA	ENDS
;	COMDAT ??_C@_1BI@OOJBMBEL@?$AAp?$AAi?$AAx?$AAe?$AAl?$AA_?$AAw?$AAi?$AAd?$AAt?$AAh?$AA?$AA@
CONST	SEGMENT
??_C@_1BI@OOJBMBEL@?$AAp?$AAi?$AAx?$AAe?$AAl?$AA_?$AAw?$AAi?$AAd?$AAt?$AAh?$AA?$AA@ DB 'p'
	DB	00H, 'i', 00H, 'x', 00H, 'e', 00H, 'l', 00H, '_', 00H, 'w', 00H
	DB	'i', 00H, 'd', 00H, 't', 00H, 'h', 00H, 00H, 00H ; `string'
CONST	ENDS
;	COMDAT ?__LINE__Var@?1??nk_layout_ratio_from_pixel@@9@9
_DATA	SEGMENT
?__LINE__Var@?1??nk_layout_ratio_from_pixel@@9@9 DD 04b39H ; `nk_layout_ratio_from_pixel'::`2'::__LINE__Var
_DATA	ENDS
;	COMDAT ?__LINE__Var@?1??nk_row_layout@@9@9@ddf8d5d8
_DATA	SEGMENT
?__LINE__Var@?1??nk_row_layout@@9@9@ddf8d5d8 DD 04b22H	; `nk_row_layout'::`2'::__LINE__Var
_DATA	ENDS
;	COMDAT ??_C@_1EI@PPLANDAM@?$AA?$CB?$AA?$CI?$AAl?$AAa?$AAy?$AAo?$AAu?$AAt?$AA?9?$AA?$DO?$AAf?$AAl?$AAa?$AAg?$AAs?$AA?5?$AA?$CG?$AA?5?$AAN?$AAK?$AA_?$AAW?$AAI?$AAN?$AAD?$AAO?$AAW?$AA_?$AAC?$AAL?$AAO?$AAS@
CONST	SEGMENT
??_C@_1EI@PPLANDAM@?$AA?$CB?$AA?$CI?$AAl?$AAa?$AAy?$AAo?$AAu?$AAt?$AA?9?$AA?$DO?$AAf?$AAl?$AAa?$AAg?$AAs?$AA?5?$AA?$CG?$AA?5?$AAN?$AAK?$AA_?$AAW?$AAI?$AAN?$AAD?$AAO?$AAW?$AA_?$AAC?$AAL?$AAO?$AAS@ DB '!'
	DB	00H, '(', 00H, 'l', 00H, 'a', 00H, 'y', 00H, 'o', 00H, 'u', 00H
	DB	't', 00H, '-', 00H, '>', 00H, 'f', 00H, 'l', 00H, 'a', 00H, 'g'
	DB	00H, 's', 00H, ' ', 00H, '&', 00H, ' ', 00H, 'N', 00H, 'K', 00H
	DB	'_', 00H, 'W', 00H, 'I', 00H, 'N', 00H, 'D', 00H, 'O', 00H, 'W'
	DB	00H, '_', 00H, 'C', 00H, 'L', 00H, 'O', 00H, 'S', 00H, 'E', 00H
	DB	'D', 00H, ')', 00H, 00H, 00H			; `string'
CONST	ENDS
;	COMDAT ??_C@_1EI@DELDILCF@?$AA?$CB?$AA?$CI?$AAl?$AAa?$AAy?$AAo?$AAu?$AAt?$AA?9?$AA?$DO?$AAf?$AAl?$AAa?$AAg?$AAs?$AA?5?$AA?$CG?$AA?5?$AAN?$AAK?$AA_?$AAW?$AAI?$AAN?$AAD?$AAO?$AAW?$AA_?$AAH?$AAI?$AAD?$AAD@
CONST	SEGMENT
??_C@_1EI@DELDILCF@?$AA?$CB?$AA?$CI?$AAl?$AAa?$AAy?$AAo?$AAu?$AAt?$AA?9?$AA?$DO?$AAf?$AAl?$AAa?$AAg?$AAs?$AA?5?$AA?$CG?$AA?5?$AAN?$AAK?$AA_?$AAW?$AAI?$AAN?$AAD?$AAO?$AAW?$AA_?$AAH?$AAI?$AAD?$AAD@ DB '!'
	DB	00H, '(', 00H, 'l', 00H, 'a', 00H, 'y', 00H, 'o', 00H, 'u', 00H
	DB	't', 00H, '-', 00H, '>', 00H, 'f', 00H, 'l', 00H, 'a', 00H, 'g'
	DB	00H, 's', 00H, ' ', 00H, '&', 00H, ' ', 00H, 'N', 00H, 'K', 00H
	DB	'_', 00H, 'W', 00H, 'I', 00H, 'N', 00H, 'D', 00H, 'O', 00H, 'W'
	DB	00H, '_', 00H, 'H', 00H, 'I', 00H, 'D', 00H, 'D', 00H, 'E', 00H
	DB	'N', 00H, ')', 00H, 00H, 00H			; `string'
CONST	ENDS
;	COMDAT ??_C@_1EO@JPIFGEEN@?$AA?$CB?$AA?$CI?$AAl?$AAa?$AAy?$AAo?$AAu?$AAt?$AA?9?$AA?$DO?$AAf?$AAl?$AAa?$AAg?$AAs?$AA?5?$AA?$CG?$AA?5?$AAN?$AAK?$AA_?$AAW?$AAI?$AAN?$AAD?$AAO?$AAW?$AA_?$AAM?$AAI?$AAN?$AAI@
CONST	SEGMENT
??_C@_1EO@JPIFGEEN@?$AA?$CB?$AA?$CI?$AAl?$AAa?$AAy?$AAo?$AAu?$AAt?$AA?9?$AA?$DO?$AAf?$AAl?$AAa?$AAg?$AAs?$AA?5?$AA?$CG?$AA?5?$AAN?$AAK?$AA_?$AAW?$AAI?$AAN?$AAD?$AAO?$AAW?$AA_?$AAM?$AAI?$AAN?$AAI@ DB '!'
	DB	00H, '(', 00H, 'l', 00H, 'a', 00H, 'y', 00H, 'o', 00H, 'u', 00H
	DB	't', 00H, '-', 00H, '>', 00H, 'f', 00H, 'l', 00H, 'a', 00H, 'g'
	DB	00H, 's', 00H, ' ', 00H, '&', 00H, ' ', 00H, 'N', 00H, 'K', 00H
	DB	'_', 00H, 'W', 00H, 'I', 00H, 'N', 00H, 'D', 00H, 'O', 00H, 'W'
	DB	00H, '_', 00H, 'M', 00H, 'I', 00H, 'N', 00H, 'I', 00H, 'M', 00H
	DB	'I', 00H, 'Z', 00H, 'E', 00H, 'D', 00H, ')', 00H, 00H, 00H ; `string'
CONST	ENDS
;	COMDAT ?__LINE__Var@?1??nk_panel_layout@@9@9@ddf8d5d8
_DATA	SEGMENT
?__LINE__Var@?1??nk_panel_layout@@9@9@ddf8d5d8 DD 04aedH ; `nk_panel_layout'::`2'::__LINE__Var
_DATA	ENDS
;	COMDAT ?__LINE__Var@?1??nk_layout_reset_min_row_height@@9@9
_DATA	SEGMENT
?__LINE__Var@?1??nk_layout_reset_min_row_height@@9@9 DD 04ac4H ; `nk_layout_reset_min_row_height'::`2'::__LINE__Var
_DATA	ENDS
;	COMDAT ?__LINE__Var@?1??nk_layout_set_min_row_height@@9@9
_DATA	SEGMENT
?__LINE__Var@?1??nk_layout_set_min_row_height@@9@9 DD 04ab3H ; `nk_layout_set_min_row_height'::`2'::__LINE__Var
_DATA	ENDS
;	COMDAT ?__LINE__Var@?1??nk_menubar_end@@9@9
_DATA	SEGMENT
?__LINE__Var@?1??nk_menubar_end@@9@9 DD 04a8fH		; `nk_menubar_end'::`2'::__LINE__Var
_DATA	ENDS
;	COMDAT ??_C@_1EC@NJLDBDNI@?$AAl?$AAa?$AAy?$AAo?$AAu?$AAt?$AA?9?$AA?$DO?$AAa?$AAt?$AA_?$AAy?$AA?5?$AA?$DN?$AA?$DN?$AA?5?$AAl?$AAa?$AAy?$AAo?$AAu?$AAt?$AA?9?$AA?$DO?$AAb?$AAo?$AAu?$AAn?$AAd?$AAs?$AA?4?$AAy@
CONST	SEGMENT
??_C@_1EC@NJLDBDNI@?$AAl?$AAa?$AAy?$AAo?$AAu?$AAt?$AA?9?$AA?$DO?$AAa?$AAt?$AA_?$AAy?$AA?5?$AA?$DN?$AA?$DN?$AA?5?$AAl?$AAa?$AAy?$AAo?$AAu?$AAt?$AA?9?$AA?$DO?$AAb?$AAo?$AAu?$AAn?$AAd?$AAs?$AA?4?$AAy@ DB 'l'
	DB	00H, 'a', 00H, 'y', 00H, 'o', 00H, 'u', 00H, 't', 00H, '-', 00H
	DB	'>', 00H, 'a', 00H, 't', 00H, '_', 00H, 'y', 00H, ' ', 00H, '='
	DB	00H, '=', 00H, ' ', 00H, 'l', 00H, 'a', 00H, 'y', 00H, 'o', 00H
	DB	'u', 00H, 't', 00H, '-', 00H, '>', 00H, 'b', 00H, 'o', 00H, 'u'
	DB	00H, 'n', 00H, 'd', 00H, 's', 00H, '.', 00H, 'y', 00H, 00H, 00H ; `string'
CONST	ENDS
;	COMDAT ?__LINE__Var@?1??nk_menubar_begin@@9@9
_DATA	SEGMENT
?__LINE__Var@?1??nk_menubar_begin@@9@9 DD 04a69H	; `nk_menubar_begin'::`2'::__LINE__Var
_DATA	ENDS
;	COMDAT ?__LINE__Var@?1??nk_window_set_focus@@9@9
_DATA	SEGMENT
?__LINE__Var@?1??nk_window_set_focus@@9@9 DD 04a51H	; `nk_window_set_focus'::`2'::__LINE__Var
_DATA	ENDS
;	COMDAT ?__LINE__Var@?1??nk_window_show_if@@9@9
_DATA	SEGMENT
?__LINE__Var@?1??nk_window_show_if@@9@9 DD 04a49H	; `nk_window_show_if'::`2'::__LINE__Var
_DATA	ENDS
;	COMDAT ?__LINE__Var@?1??nk_window_show@@9@9
_DATA	SEGMENT
?__LINE__Var@?1??nk_window_show@@9@9 DD 04a36H		; `nk_window_show'::`2'::__LINE__Var
_DATA	ENDS
;	COMDAT ?__LINE__Var@?1??nk_window_collapse_if@@9@9
_DATA	SEGMENT
?__LINE__Var@?1??nk_window_collapse_if@@9@9 DD 04a2eH	; `nk_window_collapse_if'::`2'::__LINE__Var
_DATA	ENDS
;	COMDAT ?__LINE__Var@?1??nk_window_collapse@@9@9
_DATA	SEGMENT
?__LINE__Var@?1??nk_window_collapse@@9@9 DD 04a1bH	; `nk_window_collapse'::`2'::__LINE__Var
_DATA	ENDS
;	COMDAT ?__LINE__Var@?1??nk_window_set_size@@9@9
_DATA	SEGMENT
?__LINE__Var@?1??nk_window_set_size@@9@9 DD 04a11H	; `nk_window_set_size'::`2'::__LINE__Var
_DATA	ENDS
;	COMDAT ?__LINE__Var@?1??nk_window_set_position@@9@9
_DATA	SEGMENT
?__LINE__Var@?1??nk_window_set_position@@9@9 DD 04a08H	; `nk_window_set_position'::`2'::__LINE__Var
_DATA	ENDS
;	COMDAT ?__LINE__Var@?1??nk_window_set_bounds@@9@9
_DATA	SEGMENT
?__LINE__Var@?1??nk_window_set_bounds@@9@9 DD 04a00H	; `nk_window_set_bounds'::`2'::__LINE__Var
_DATA	ENDS
;	COMDAT ??_C@_1II@KEHDGIEG@?$AAc?$AAt?$AAx?$AA?9?$AA?$DO?$AAc?$AAu?$AAr?$AAr?$AAe?$AAn?$AAt?$AA?5?$AA?$CB?$AA?$DN?$AA?5?$AAw?$AAi?$AAn?$AA?5?$AA?$CG?$AA?$CG?$AA?5?$AA?$CC?$AAY?$AAo?$AAu?$AA?5?$AAc?$AAa?$AAn?$AAn@
CONST	SEGMENT
??_C@_1II@KEHDGIEG@?$AAc?$AAt?$AAx?$AA?9?$AA?$DO?$AAc?$AAu?$AAr?$AAr?$AAe?$AAn?$AAt?$AA?5?$AA?$CB?$AA?$DN?$AA?5?$AAw?$AAi?$AAn?$AA?5?$AA?$CG?$AA?$CG?$AA?5?$AA?$CC?$AAY?$AAo?$AAu?$AA?5?$AAc?$AAa?$AAn?$AAn@ DB 'c'
	DB	00H, 't', 00H, 'x', 00H, '-', 00H, '>', 00H, 'c', 00H, 'u', 00H
	DB	'r', 00H, 'r', 00H, 'e', 00H, 'n', 00H, 't', 00H, ' ', 00H, '!'
	DB	00H, '=', 00H, ' ', 00H, 'w', 00H, 'i', 00H, 'n', 00H, ' ', 00H
	DB	'&', 00H, '&', 00H, ' ', 00H, '"', 00H, 'Y', 00H, 'o', 00H, 'u'
	DB	00H, ' ', 00H, 'c', 00H, 'a', 00H, 'n', 00H, 'n', 00H, 'o', 00H
	DB	't', 00H, ' ', 00H, 'c', 00H, 'l', 00H, 'o', 00H, 's', 00H, 'e'
	DB	00H, ' ', 00H, 'a', 00H, ' ', 00H, 'c', 00H, 'u', 00H, 'r', 00H
	DB	'r', 00H, 'e', 00H, 'n', 00H, 't', 00H, 'l', 00H, 'y', 00H, ' '
	DB	00H, 'a', 00H, 'c', 00H, 't', 00H, 'i', 00H, 'v', 00H, 'e', 00H
	DB	' ', 00H, 'w', 00H, 'i', 00H, 'n', 00H, 'd', 00H, 'o', 00H, 'w'
	DB	00H, '"', 00H, 00H, 00H			; `string'
CONST	ENDS
;	COMDAT ??_C@_0CL@POGABMMP@You?5cannot?5close?5a?5currently?5act@
CONST	SEGMENT
??_C@_0CL@POGABMMP@You?5cannot?5close?5a?5currently?5act@ DB 'You cannot '
	DB	'close a currently active window', 00H	; `string'
CONST	ENDS
;	COMDAT ?__LINE__Var@?1??nk_window_close@@9@9
_DATA	SEGMENT
?__LINE__Var@?1??nk_window_close@@9@9 DD 049f2H		; `nk_window_close'::`2'::__LINE__Var
_DATA	ENDS
;	COMDAT ?__LINE__Var@?1??nk_window_is_active@@9@9
_DATA	SEGMENT
?__LINE__Var@?1??nk_window_is_active@@9@9 DD 049d8H	; `nk_window_is_active'::`2'::__LINE__Var
_DATA	ENDS
;	COMDAT ?__LINE__Var@?1??nk_window_is_hidden@@9@9
_DATA	SEGMENT
?__LINE__Var@?1??nk_window_is_hidden@@9@9 DD 049c8H	; `nk_window_is_hidden'::`2'::__LINE__Var
_DATA	ENDS
;	COMDAT ?__LINE__Var@?1??nk_window_is_closed@@9@9
_DATA	SEGMENT
?__LINE__Var@?1??nk_window_is_closed@@9@9 DD 049b8H	; `nk_window_is_closed'::`2'::__LINE__Var
_DATA	ENDS
;	COMDAT ?__LINE__Var@?1??nk_window_is_collapsed@@9@9
_DATA	SEGMENT
?__LINE__Var@?1??nk_window_is_collapsed@@9@9 DD 049a8H	; `nk_window_is_collapsed'::`2'::__LINE__Var
_DATA	ENDS
;	COMDAT ?__LINE__Var@?1??nk_window_is_any_hovered@@9@9
_DATA	SEGMENT
?__LINE__Var@?1??nk_window_is_any_hovered@@9@9 DD 04984H ; `nk_window_is_any_hovered'::`2'::__LINE__Var
_DATA	ENDS
;	COMDAT ?__LINE__Var@?1??nk_window_is_hovered@@9@9
_DATA	SEGMENT
?__LINE__Var@?1??nk_window_is_hovered@@9@9 DD 04979H	; `nk_window_is_hovered'::`2'::__LINE__Var
_DATA	ENDS
;	COMDAT ?__LINE__Var@?1??nk_window_has_focus@@9@9
_DATA	SEGMENT
?__LINE__Var@?1??nk_window_has_focus@@9@9 DD 0496fH	; `nk_window_has_focus'::`2'::__LINE__Var
_DATA	ENDS
;	COMDAT ?__LINE__Var@?1??nk_window_get_panel@@9@9
_DATA	SEGMENT
?__LINE__Var@?1??nk_window_get_panel@@9@9 DD 04966H	; `nk_window_get_panel'::`2'::__LINE__Var
_DATA	ENDS
;	COMDAT ?__LINE__Var@?1??nk_window_get_canvas@@9@9
_DATA	SEGMENT
?__LINE__Var@?1??nk_window_get_canvas@@9@9 DD 0495cH	; `nk_window_get_canvas'::`2'::__LINE__Var
_DATA	ENDS
;	COMDAT ?__LINE__Var@?1??nk_window_get_content_region_size@@9@9
_DATA	SEGMENT
?__LINE__Var@?1??nk_window_get_content_region_size@@9@9 DD 04952H ; `nk_window_get_content_region_size'::`2'::__LINE__Var
_DATA	ENDS
;	COMDAT ?__LINE__Var@?1??nk_window_get_content_region_max@@9@9
_DATA	SEGMENT
?__LINE__Var@?1??nk_window_get_content_region_max@@9@9 DD 04947H ; `nk_window_get_content_region_max'::`2'::__LINE__Var
_DATA	ENDS
;	COMDAT ?__LINE__Var@?1??nk_window_get_content_region_min@@9@9
_DATA	SEGMENT
?__LINE__Var@?1??nk_window_get_content_region_min@@9@9 DD 0493dH ; `nk_window_get_content_region_min'::`2'::__LINE__Var
_DATA	ENDS
;	COMDAT ?__LINE__Var@?1??nk_window_get_content_region@@9@9
_DATA	SEGMENT
?__LINE__Var@?1??nk_window_get_content_region@@9@9 DD 04934H ; `nk_window_get_content_region'::`2'::__LINE__Var
_DATA	ENDS
;	COMDAT ?__LINE__Var@?1??nk_window_get_height@@9@9
_DATA	SEGMENT
?__LINE__Var@?1??nk_window_get_height@@9@9 DD 0492bH	; `nk_window_get_height'::`2'::__LINE__Var
_DATA	ENDS
;	COMDAT ?__LINE__Var@?1??nk_window_get_width@@9@9
_DATA	SEGMENT
?__LINE__Var@?1??nk_window_get_width@@9@9 DD 04922H	; `nk_window_get_width'::`2'::__LINE__Var
_DATA	ENDS
;	COMDAT ?__LINE__Var@?1??nk_window_get_size@@9@9
_DATA	SEGMENT
?__LINE__Var@?1??nk_window_get_size@@9@9 DD 04919H	; `nk_window_get_size'::`2'::__LINE__Var
_DATA	ENDS
;	COMDAT ?__LINE__Var@?1??nk_window_get_position@@9@9
_DATA	SEGMENT
?__LINE__Var@?1??nk_window_get_position@@9@9 DD 04910H	; `nk_window_get_position'::`2'::__LINE__Var
_DATA	ENDS
;	COMDAT ?__LINE__Var@?1??nk_window_get_bounds@@9@9
_DATA	SEGMENT
?__LINE__Var@?1??nk_window_get_bounds@@9@9 DD 04907H	; `nk_window_get_bounds'::`2'::__LINE__Var
_DATA	ENDS
;	COMDAT ??_C@_1IC@IHIOPCBE@?$AAc?$AAt?$AAx?$AA?9?$AA?$DO?$AAc?$AAu?$AAr?$AAr?$AAe?$AAn?$AAt?$AA?5?$AA?$CG?$AA?$CG?$AA?5?$AA?$CC?$AAi?$AAf?$AA?5?$AAt?$AAh?$AAi?$AAs?$AA?5?$AAt?$AAr?$AAi?$AAg?$AAg?$AAe?$AAr@
CONST	SEGMENT
??_C@_1IC@IHIOPCBE@?$AAc?$AAt?$AAx?$AA?9?$AA?$DO?$AAc?$AAu?$AAr?$AAr?$AAe?$AAn?$AAt?$AA?5?$AA?$CG?$AA?$CG?$AA?5?$AA?$CC?$AAi?$AAf?$AA?5?$AAt?$AAh?$AAi?$AAs?$AA?5?$AAt?$AAr?$AAi?$AAg?$AAg?$AAe?$AAr@ DB 'c'
	DB	00H, 't', 00H, 'x', 00H, '-', 00H, '>', 00H, 'c', 00H, 'u', 00H
	DB	'r', 00H, 'r', 00H, 'e', 00H, 'n', 00H, 't', 00H, ' ', 00H, '&'
	DB	00H, '&', 00H, ' ', 00H, '"', 00H, 'i', 00H, 'f', 00H, ' ', 00H
	DB	't', 00H, 'h', 00H, 'i', 00H, 's', 00H, ' ', 00H, 't', 00H, 'r'
	DB	00H, 'i', 00H, 'g', 00H, 'g', 00H, 'e', 00H, 'r', 00H, 's', 00H
	DB	' ', 00H, 'y', 00H, 'o', 00H, 'u', 00H, ' ', 00H, 'f', 00H, 'o'
	DB	00H, 'r', 00H, 'g', 00H, 'o', 00H, 't', 00H, ' ', 00H, 't', 00H
	DB	'o', 00H, ' ', 00H, 'c', 00H, 'a', 00H, 'l', 00H, 'l', 00H, ' '
	DB	00H, '`', 00H, 'n', 00H, 'k', 00H, '_', 00H, 'b', 00H, 'e', 00H
	DB	'g', 00H, 'i', 00H, 'n', 00H, '`', 00H, '"', 00H, 00H, 00H ; `string'
CONST	ENDS
;	COMDAT ??_C@_0CP@PKIBPAED@if?5this?5triggers?5you?5forgot?5to?5c@
CONST	SEGMENT
??_C@_0CP@PKIBPAED@if?5this?5triggers?5you?5forgot?5to?5c@ DB 'if this tr'
	DB	'iggers you forgot to call `nk_begin`', 00H	; `string'
CONST	ENDS
;	COMDAT ?__LINE__Var@?1??nk_end@@9@9
_DATA	SEGMENT
?__LINE__Var@?1??nk_end@@9@9 DD 048f4H			; `nk_end'::`2'::__LINE__Var
_DATA	ENDS
;	COMDAT ??_C@_1CK@MJEFJAFE@?$AAw?$AAi?$AAn?$AA?9?$AA?$DO?$AAs?$AAe?$AAq?$AA?5?$AA?$CB?$AA?$DN?$AA?5?$AAc?$AAt?$AAx?$AA?9?$AA?$DO?$AAs?$AAe?$AAq?$AA?$AA@
CONST	SEGMENT
??_C@_1CK@MJEFJAFE@?$AAw?$AAi?$AAn?$AA?9?$AA?$DO?$AAs?$AAe?$AAq?$AA?5?$AA?$CB?$AA?$DN?$AA?5?$AAc?$AAt?$AAx?$AA?9?$AA?$DO?$AAs?$AAe?$AAq?$AA?$AA@ DB 'w'
	DB	00H, 'i', 00H, 'n', 00H, '-', 00H, '>', 00H, 's', 00H, 'e', 00H
	DB	'q', 00H, ' ', 00H, '!', 00H, '=', 00H, ' ', 00H, 'c', 00H, 't'
	DB	00H, 'x', 00H, '-', 00H, '>', 00H, 's', 00H, 'e', 00H, 'q', 00H
	DB	00H, 00H					; `string'
CONST	ENDS
;	COMDAT ??_C@_1HO@LCINIEJG@?$AA?$CB?$AAc?$AAt?$AAx?$AA?9?$AA?$DO?$AAc?$AAu?$AAr?$AAr?$AAe?$AAn?$AAt?$AA?5?$AA?$CG?$AA?$CG?$AA?5?$AA?$CC?$AAi?$AAf?$AA?5?$AAt?$AAh?$AAi?$AAs?$AA?5?$AAt?$AAr?$AAi?$AAg?$AAg?$AAe@
CONST	SEGMENT
??_C@_1HO@LCINIEJG@?$AA?$CB?$AAc?$AAt?$AAx?$AA?9?$AA?$DO?$AAc?$AAu?$AAr?$AAr?$AAe?$AAn?$AAt?$AA?5?$AA?$CG?$AA?$CG?$AA?5?$AA?$CC?$AAi?$AAf?$AA?5?$AAt?$AAh?$AAi?$AAs?$AA?5?$AAt?$AAr?$AAi?$AAg?$AAg?$AAe@ DB '!'
	DB	00H, 'c', 00H, 't', 00H, 'x', 00H, '-', 00H, '>', 00H, 'c', 00H
	DB	'u', 00H, 'r', 00H, 'r', 00H, 'e', 00H, 'n', 00H, 't', 00H, ' '
	DB	00H, '&', 00H, '&', 00H, ' ', 00H, '"', 00H, 'i', 00H, 'f', 00H
	DB	' ', 00H, 't', 00H, 'h', 00H, 'i', 00H, 's', 00H, ' ', 00H, 't'
	DB	00H, 'r', 00H, 'i', 00H, 'g', 00H, 'g', 00H, 'e', 00H, 'r', 00H
	DB	's', 00H, ' ', 00H, 'y', 00H, 'o', 00H, 'u', 00H, ' ', 00H, 'm'
	DB	00H, 'i', 00H, 's', 00H, 's', 00H, 'e', 00H, 'd', 00H, ' ', 00H
	DB	'a', 00H, ' ', 00H, '`', 00H, 'n', 00H, 'k', 00H, '_', 00H, 'e'
	DB	00H, 'n', 00H, 'd', 00H, '`', 00H, ' ', 00H, 'c', 00H, 'a', 00H
	DB	'l', 00H, 'l', 00H, '"', 00H, 00H, 00H	; `string'
CONST	ENDS
;	COMDAT ??_C@_0CM@NPLMGOOB@if?5this?5triggers?5you?5missed?5a?5?$GAn@
CONST	SEGMENT
??_C@_0CM@NPLMGOOB@if?5this?5triggers?5you?5missed?5a?5?$GAn@ DB 'if this'
	DB	' triggers you missed a `nk_end` call', 00H	; `string'
CONST	ENDS
;	COMDAT ??_C@_1LC@NJCFCJDB@?$AAc?$AAt?$AAx?$AA?9?$AA?$DO?$AAs?$AAt?$AAy?$AAl?$AAe?$AA?4?$AAf?$AAo?$AAn?$AAt?$AA?5?$AA?$CG?$AA?$CG?$AA?5?$AAc?$AAt?$AAx?$AA?9?$AA?$DO?$AAs?$AAt?$AAy?$AAl?$AAe?$AA?4?$AAf?$AAo@
CONST	SEGMENT
??_C@_1LC@NJCFCJDB@?$AAc?$AAt?$AAx?$AA?9?$AA?$DO?$AAs?$AAt?$AAy?$AAl?$AAe?$AA?4?$AAf?$AAo?$AAn?$AAt?$AA?5?$AA?$CG?$AA?$CG?$AA?5?$AAc?$AAt?$AAx?$AA?9?$AA?$DO?$AAs?$AAt?$AAy?$AAl?$AAe?$AA?4?$AAf?$AAo@ DB 'c'
	DB	00H, 't', 00H, 'x', 00H, '-', 00H, '>', 00H, 's', 00H, 't', 00H
	DB	'y', 00H, 'l', 00H, 'e', 00H, '.', 00H, 'f', 00H, 'o', 00H, 'n'
	DB	00H, 't', 00H, ' ', 00H, '&', 00H, '&', 00H, ' ', 00H, 'c', 00H
	DB	't', 00H, 'x', 00H, '-', 00H, '>', 00H, 's', 00H, 't', 00H, 'y'
	DB	00H, 'l', 00H, 'e', 00H, '.', 00H, 'f', 00H, 'o', 00H, 'n', 00H
	DB	't', 00H, '-', 00H, '>', 00H, 'w', 00H, 'i', 00H, 'd', 00H, 't'
	DB	00H, 'h', 00H, ' ', 00H, '&', 00H, '&', 00H, ' ', 00H, '"', 00H
	DB	'i', 00H, 'f', 00H, ' ', 00H, 't', 00H, 'h', 00H, 'i', 00H, 's'
	DB	00H, ' ', 00H, 't', 00H, 'r', 00H, 'i', 00H, 'g', 00H, 'g', 00H
	DB	'e', 00H, 'r', 00H, 's', 00H, ' ', 00H, 'y', 00H, 'o', 00H, 'u'
	DB	00H, ' ', 00H, 'f', 00H, 'o', 00H, 'r', 00H, 'g', 00H, 'o', 00H
	DB	't', 00H, ' ', 00H, 't', 00H, 'o', 00H, ' ', 00H, 'a', 00H, 'd'
	DB	00H, 'd', 00H, ' ', 00H, 'a', 00H, ' ', 00H, 'f', 00H, 'o', 00H
	DB	'n', 00H, 't', 00H, '"', 00H, 00H, 00H	; `string'
CONST	ENDS
;	COMDAT ??_C@_0CK@BJLINOEN@if?5this?5triggers?5you?5forgot?5to?5a@
CONST	SEGMENT
??_C@_0CK@BJLINOEN@if?5this?5triggers?5you?5forgot?5to?5a@ DB 'if this tr'
	DB	'iggers you forgot to add a font', 00H	; `string'
CONST	ENDS
;	COMDAT ??_C@_1M@NFEAPLNL@?$AAt?$AAi?$AAt?$AAl?$AAe?$AA?$AA@
CONST	SEGMENT
??_C@_1M@NFEAPLNL@?$AAt?$AAi?$AAt?$AAl?$AAe?$AA?$AA@ DB 't', 00H, 'i', 00H
	DB	't', 00H, 'l', 00H, 'e', 00H, 00H, 00H	; `string'
CONST	ENDS
;	COMDAT ??_C@_19HHIIBINK@?$AAn?$AAa?$AAm?$AAe?$AA?$AA@
CONST	SEGMENT
??_C@_19HHIIBINK@?$AAn?$AAa?$AAm?$AAe?$AA?$AA@ DB 'n', 00H, 'a', 00H, 'm', 00H
	DB	'e', 00H, 00H, 00H				; `string'
CONST	ENDS
;	COMDAT ?__LINE__Var@?1??nk_begin_titled@@9@9
_DATA	SEGMENT
?__LINE__Var@?1??nk_begin_titled@@9@9 DD 0485aH		; `nk_begin_titled'::`2'::__LINE__Var
_DATA	ENDS
;	COMDAT ??_C@_1BI@HILBEPMH@?$AAi?$AAt?$AAe?$AAr?$AA?5?$AA?$CB?$AA?$DN?$AA?5?$AAw?$AAi?$AAn?$AA?$AA@
CONST	SEGMENT
??_C@_1BI@HILBEPMH@?$AAi?$AAt?$AAe?$AAr?$AA?5?$AA?$CB?$AA?$DN?$AA?5?$AAw?$AAi?$AAn?$AA?$AA@ DB 'i'
	DB	00H, 't', 00H, 'e', 00H, 'r', 00H, ' ', 00H, '!', 00H, '=', 00H
	DB	' ', 00H, 'w', 00H, 'i', 00H, 'n', 00H, 00H, 00H ; `string'
CONST	ENDS
;	COMDAT ?__LINE__Var@?1??nk_insert_window@@9@9@ddf8d5d8
_DATA	SEGMENT
?__LINE__Var@?1??nk_insert_window@@9@9@ddf8d5d8 DD 04807H ; `nk_insert_window'::`2'::__LINE__Var
_DATA	ENDS
;	COMDAT ??_C@_1CG@NEBMOBMP@?$AAi?$AAt?$AAe?$AAr?$AA?5?$AA?$CB?$AA?$DN?$AA?5?$AAi?$AAt?$AAe?$AAr?$AA?9?$AA?$DO?$AAn?$AAe?$AAx?$AAt?$AA?$AA@
CONST	SEGMENT
??_C@_1CG@NEBMOBMP@?$AAi?$AAt?$AAe?$AAr?$AA?5?$AA?$CB?$AA?$DN?$AA?5?$AAi?$AAt?$AAe?$AAr?$AA?9?$AA?$DO?$AAn?$AAe?$AAx?$AAt?$AA?$AA@ DB 'i'
	DB	00H, 't', 00H, 'e', 00H, 'r', 00H, ' ', 00H, '!', 00H, '=', 00H
	DB	' ', 00H, 'i', 00H, 't', 00H, 'e', 00H, 'r', 00H, '-', 00H, '>'
	DB	00H, 'n', 00H, 'e', 00H, 'x', 00H, 't', 00H, 00H, 00H ; `string'
CONST	ENDS
;	COMDAT ?__LINE__Var@?1??nk_find_window@@9@9@ddf8d5d8
_DATA	SEGMENT
?__LINE__Var@?1??nk_find_window@@9@9@ddf8d5d8 DD 047f1H	; `nk_find_window'::`2'::__LINE__Var
_DATA	ENDS
;	COMDAT ??_C@_17IGALFJBG@?$AAt?$AAb?$AAl?$AA?$AA@
CONST	SEGMENT
??_C@_17IGALFJBG@?$AAt?$AAb?$AAl?$AA?$AA@ DB 't', 00H, 'b', 00H, 'l', 00H
	DB	00H, 00H					; `string'
CONST	ENDS
;	COMDAT ?__LINE__Var@?1??nk_add_value@@9@9@ddf8d5d8
_DATA	SEGMENT
?__LINE__Var@?1??nk_add_value@@9@9@ddf8d5d8 DD 047a2H	; `nk_add_value'::`2'::__LINE__Var
_DATA	ENDS
;	COMDAT ??_C@_19DNIKFMHO@?$AAe?$AAl?$AAe?$AAm?$AA?$AA@
CONST	SEGMENT
??_C@_19DNIKFMHO@?$AAe?$AAl?$AAe?$AAm?$AA?$AA@ DB 'e', 00H, 'l', 00H, 'e', 00H
	DB	'm', 00H, 00H, 00H				; `string'
CONST	ENDS
;	COMDAT ?__LINE__Var@?1??nk_create_page_element@@9@9@ddf8d5d8
_DATA	SEGMENT
?__LINE__Var@?1??nk_create_page_element@@9@9@ddf8d5d8 DD 0471bH ; `nk_create_page_element'::`2'::__LINE__Var
_DATA	ENDS
;	COMDAT ??_C@_1DA@PKJELGCB@?$AA?$CB?$AAl?$AAa?$AAy?$AAo?$AAu?$AAt?$AA?9?$AA?$DO?$AAr?$AAo?$AAw?$AA?4?$AAt?$AAr?$AAe?$AAe?$AA_?$AAd?$AAe?$AAp?$AAt?$AAh?$AA?$AA@
CONST	SEGMENT
??_C@_1DA@PKJELGCB@?$AA?$CB?$AAl?$AAa?$AAy?$AAo?$AAu?$AAt?$AA?9?$AA?$DO?$AAr?$AAo?$AAw?$AA?4?$AAt?$AAr?$AAe?$AAe?$AA_?$AAd?$AAe?$AAp?$AAt?$AAh?$AA?$AA@ DB '!'
	DB	00H, 'l', 00H, 'a', 00H, 'y', 00H, 'o', 00H, 'u', 00H, 't', 00H
	DB	'-', 00H, '>', 00H, 'r', 00H, 'o', 00H, 'w', 00H, '.', 00H, 't'
	DB	00H, 'r', 00H, 'e', 00H, 'e', 00H, '_', 00H, 'd', 00H, 'e', 00H
	DB	'p', 00H, 't', 00H, 'h', 00H, 00H, 00H	; `string'
CONST	ENDS
;	COMDAT ?__LINE__Var@?1??nk_panel_end@@9@9@ddf8d5d8
_DATA	SEGMENT
?__LINE__Var@?1??nk_panel_end@@9@9@ddf8d5d8 DD 045deH	; `nk_panel_end'::`2'::__LINE__Var
_DATA	ENDS
;	COMDAT ??_C@_1CK@CGDEIPOI@?$AAc?$AAt?$AAx?$AA?9?$AA?$DO?$AAc?$AAu?$AAr?$AAr?$AAe?$AAn?$AAt?$AA?9?$AA?$DO?$AAl?$AAa?$AAy?$AAo?$AAu?$AAt?$AA?$AA@
CONST	SEGMENT
??_C@_1CK@CGDEIPOI@?$AAc?$AAt?$AAx?$AA?9?$AA?$DO?$AAc?$AAu?$AAr?$AAr?$AAe?$AAn?$AAt?$AA?9?$AA?$DO?$AAl?$AAa?$AAy?$AAo?$AAu?$AAt?$AA?$AA@ DB 'c'
	DB	00H, 't', 00H, 'x', 00H, '-', 00H, '>', 00H, 'c', 00H, 'u', 00H
	DB	'r', 00H, 'r', 00H, 'e', 00H, 'n', 00H, 't', 00H, '-', 00H, '>'
	DB	00H, 'l', 00H, 'a', 00H, 'y', 00H, 'o', 00H, 'u', 00H, 't', 00H
	DB	00H, 00H					; `string'
CONST	ENDS
;	COMDAT ??_C@_1BK@LJAMLKOF@?$AAc?$AAt?$AAx?$AA?9?$AA?$DO?$AAc?$AAu?$AAr?$AAr?$AAe?$AAn?$AAt?$AA?$AA@
CONST	SEGMENT
??_C@_1BK@LJAMLKOF@?$AAc?$AAt?$AAx?$AA?9?$AA?$DO?$AAc?$AAu?$AAr?$AAr?$AAe?$AAn?$AAt?$AA?$AA@ DB 'c'
	DB	00H, 't', 00H, 'x', 00H, '-', 00H, '>', 00H, 'c', 00H, 'u', 00H
	DB	'r', 00H, 'r', 00H, 'e', 00H, 'n', 00H, 't', 00H, 00H, 00H ; `string'
CONST	ENDS
;	COMDAT ?__LINE__Var@?1??nk_panel_begin@@9@9@ddf8d5d8
_DATA	SEGMENT
?__LINE__Var@?1??nk_panel_begin@@9@9@ddf8d5d8 DD 04500H	; `nk_panel_begin'::`2'::__LINE__Var
_DATA	ENDS
;	COMDAT ?__LINE__Var@?1??nk__next@@9@9
_DATA	SEGMENT
?__LINE__Var@?1??nk__next@@9@9 DD 044a9H		; `nk__next'::`2'::__LINE__Var
_DATA	ENDS
;	COMDAT ?__LINE__Var@?1??nk__begin@@9@9
_DATA	SEGMENT
?__LINE__Var@?1??nk__begin@@9@9 DD 04494H		; `nk__begin'::`2'::__LINE__Var
_DATA	ENDS
;	COMDAT ?__LINE__Var@?1??nk_finish@@9@9@ddf8d5d8
_DATA	SEGMENT
?__LINE__Var@?1??nk_finish@@9@9@ddf8d5d8 DD 04442H	; `nk_finish'::`2'::__LINE__Var
_DATA	ENDS
;	COMDAT ?__LINE__Var@?1??nk_finish_buffer@@9@9@ddf8d5d8
_DATA	SEGMENT
?__LINE__Var@?1??nk_finish_buffer@@9@9@ddf8d5d8 DD 04439H ; `nk_finish_buffer'::`2'::__LINE__Var
_DATA	ENDS
;	COMDAT ?__LINE__Var@?1??nk_finish_popup@@9@9@ddf8d5d8
_DATA	SEGMENT
?__LINE__Var@?1??nk_finish_popup@@9@9@ddf8d5d8 DD 0442cH ; `nk_finish_popup'::`2'::__LINE__Var
_DATA	ENDS
;	COMDAT ?__LINE__Var@?1??nk_start_popup@@9@9@ddf8d5d8
_DATA	SEGMENT
?__LINE__Var@?1??nk_start_popup@@9@9@ddf8d5d8 DD 0441bH	; `nk_start_popup'::`2'::__LINE__Var
_DATA	ENDS
;	COMDAT ??_C@_17MIEKGGLN@?$AAw?$AAi?$AAn?$AA?$AA@
CONST	SEGMENT
??_C@_17MIEKGGLN@?$AAw?$AAi?$AAn?$AA?$AA@ DB 'w', 00H, 'i', 00H, 'n', 00H
	DB	00H, 00H					; `string'
CONST	ENDS
;	COMDAT ?__LINE__Var@?1??nk_start@@9@9@ddf8d5d8
_DATA	SEGMENT
?__LINE__Var@?1??nk_start@@9@9@ddf8d5d8 DD 04413H	; `nk_start'::`2'::__LINE__Var
_DATA	ENDS
;	COMDAT ?__LINE__Var@?1??nk_start_buffer@@9@9@ddf8d5d8
_DATA	SEGMENT
?__LINE__Var@?1??nk_start_buffer@@9@9@ddf8d5d8 DD 04407H ; `nk_start_buffer'::`2'::__LINE__Var
_DATA	ENDS
;	COMDAT ?__LINE__Var@?1??nk_clear@@9@9
_DATA	SEGMENT
?__LINE__Var@?1??nk_clear@@9@9 DD 043c1H		; `nk_clear'::`2'::__LINE__Var
_DATA	ENDS
;	COMDAT ?__LINE__Var@?1??nk_free@@9@9
_DATA	SEGMENT
?__LINE__Var@?1??nk_free@@9@9 DD 043aaH			; `nk_free'::`2'::__LINE__Var
_DATA	ENDS
;	COMDAT ?__LINE__Var@?1??nk_init@@9@9
_DATA	SEGMENT
?__LINE__Var@?1??nk_init@@9@9 DD 04393H			; `nk_init'::`2'::__LINE__Var
_DATA	ENDS
;	COMDAT ??_C@_19GLKFFFDC@?$AAp?$AAo?$AAo?$AAl?$AA?$AA@
CONST	SEGMENT
??_C@_19GLKFFFDC@?$AAp?$AAo?$AAo?$AAl?$AA?$AA@ DB 'p', 00H, 'o', 00H, 'o', 00H
	DB	'l', 00H, 00H, 00H				; `string'
CONST	ENDS
;	COMDAT ?__LINE__Var@?1??nk_init_custom@@9@9
_DATA	SEGMENT
?__LINE__Var@?1??nk_init_custom@@9@9 DD 0437dH		; `nk_init_custom'::`2'::__LINE__Var
_DATA	ENDS
;	COMDAT ?__LINE__Var@?1??nk_init_fixed@@9@9
_DATA	SEGMENT
?__LINE__Var@?1??nk_init_fixed@@9@9 DD 04371H		; `nk_init_fixed'::`2'::__LINE__Var
_DATA	ENDS
;	COMDAT ?__LINE__Var@?1??nk_setup@@9@9@ddf8d5d8
_DATA	SEGMENT
?__LINE__Var@?1??nk_setup@@9@9@ddf8d5d8 DD 04356H	; `nk_setup'::`2'::__LINE__Var
_DATA	ENDS
;	COMDAT ??_C@_1EG@GDCHEAAC@?$AAp?$AAo?$AAo?$AAl?$AA?9?$AA?$DO?$AAp?$AAa?$AAg?$AAe?$AAs?$AA?9?$AA?$DO?$AAs?$AAi?$AAz?$AAe?$AA?5?$AA?$DM?$AA?5?$AAp?$AAo?$AAo?$AAl?$AA?9?$AA?$DO?$AAc?$AAa?$AAp?$AAa?$AAc?$AAi@
CONST	SEGMENT
??_C@_1EG@GDCHEAAC@?$AAp?$AAo?$AAo?$AAl?$AA?9?$AA?$DO?$AAp?$AAa?$AAg?$AAe?$AAs?$AA?9?$AA?$DO?$AAs?$AAi?$AAz?$AAe?$AA?5?$AA?$DM?$AA?5?$AAp?$AAo?$AAo?$AAl?$AA?9?$AA?$DO?$AAc?$AAa?$AAp?$AAa?$AAc?$AAi@ DB 'p'
	DB	00H, 'o', 00H, 'o', 00H, 'l', 00H, '-', 00H, '>', 00H, 'p', 00H
	DB	'a', 00H, 'g', 00H, 'e', 00H, 's', 00H, '-', 00H, '>', 00H, 's'
	DB	00H, 'i', 00H, 'z', 00H, 'e', 00H, ' ', 00H, '<', 00H, ' ', 00H
	DB	'p', 00H, 'o', 00H, 'o', 00H, 'l', 00H, '-', 00H, '>', 00H, 'c'
	DB	00H, 'a', 00H, 'p', 00H, 'a', 00H, 'c', 00H, 'i', 00H, 't', 00H
	DB	'y', 00H, 00H, 00H				; `string'
CONST	ENDS
;	COMDAT ??_C@_1BI@FCHHCIJM@?$AAp?$AAo?$AAo?$AAl?$AA?9?$AA?$DO?$AAp?$AAa?$AAg?$AAe?$AAs?$AA?$AA@
CONST	SEGMENT
??_C@_1BI@FCHHCIJM@?$AAp?$AAo?$AAo?$AAl?$AA?9?$AA?$DO?$AAp?$AAa?$AAg?$AAe?$AAs?$AA?$AA@ DB 'p'
	DB	00H, 'o', 00H, 'o', 00H, 'l', 00H, '-', 00H, '>', 00H, 'p', 00H
	DB	'a', 00H, 'g', 00H, 'e', 00H, 's', 00H, 00H, 00H ; `string'
CONST	ENDS
;	COMDAT ?__LINE__Var@?1??nk_pool_alloc@@9@9@ddf8d5d8
_DATA	SEGMENT
?__LINE__Var@?1??nk_pool_alloc@@9@9@ddf8d5d8 DD 04330H	; `nk_pool_alloc'::`2'::__LINE__Var
_DATA	ENDS
;	COMDAT ??_C@_1DO@HIJNMCBA@?$AAs?$AAi?$AAz?$AAe?$AA?5?$AA?$DO?$AA?$DN?$AA?5?$AAs?$AAi?$AAz?$AAe?$AAo?$AAf?$AA?$CI?$AAs?$AAt?$AAr?$AAu?$AAc?$AAt?$AA?5?$AAn?$AAk?$AA_?$AAp?$AAa?$AAg?$AAe?$AA?$CJ?$AA?$AA@
CONST	SEGMENT
??_C@_1DO@HIJNMCBA@?$AAs?$AAi?$AAz?$AAe?$AA?5?$AA?$DO?$AA?$DN?$AA?5?$AAs?$AAi?$AAz?$AAe?$AAo?$AAf?$AA?$CI?$AAs?$AAt?$AAr?$AAu?$AAc?$AAt?$AA?5?$AAn?$AAk?$AA_?$AAp?$AAa?$AAg?$AAe?$AA?$CJ?$AA?$AA@ DB 's'
	DB	00H, 'i', 00H, 'z', 00H, 'e', 00H, ' ', 00H, '>', 00H, '=', 00H
	DB	' ', 00H, 's', 00H, 'i', 00H, 'z', 00H, 'e', 00H, 'o', 00H, 'f'
	DB	00H, '(', 00H, 's', 00H, 't', 00H, 'r', 00H, 'u', 00H, 'c', 00H
	DB	't', 00H, ' ', 00H, 'n', 00H, 'k', 00H, '_', 00H, 'p', 00H, 'a'
	DB	00H, 'g', 00H, 'e', 00H, ')', 00H, 00H, 00H	; `string'
CONST	ENDS
;	COMDAT ?__LINE__Var@?1??nk_pool_init_fixed@@9@9@ddf8d5d8
_DATA	SEGMENT
?__LINE__Var@?1??nk_pool_init_fixed@@9@9@ddf8d5d8 DD 04324H ; `nk_pool_init_fixed'::`2'::__LINE__Var
_DATA	ENDS
;	COMDAT ?__LINE__Var@?1??nk_style_load_all_cursors@@9@9
_DATA	SEGMENT
?__LINE__Var@?1??nk_style_load_all_cursors@@9@9 DD 042faH ; `nk_style_load_all_cursors'::`2'::__LINE__Var
_DATA	ENDS
;	COMDAT ?__LINE__Var@?1??nk_style_load_cursor@@9@9
_DATA	SEGMENT
?__LINE__Var@?1??nk_style_load_cursor@@9@9 DD 042f0H	; `nk_style_load_cursor'::`2'::__LINE__Var
_DATA	ENDS
;	COMDAT ?__LINE__Var@?1??nk_style_set_cursor@@9@9
_DATA	SEGMENT
?__LINE__Var@?1??nk_style_set_cursor@@9@9 DD 042d5H	; `nk_style_set_cursor'::`2'::__LINE__Var
_DATA	ENDS
;	COMDAT ??_C@_1CK@BNOCFFAG@?$AAt?$AAy?$AAp?$AAe?$AA_?$AAs?$AAt?$AAa?$AAc?$AAk?$AA?9?$AA?$DO?$AAh?$AAe?$AAa?$AAd?$AA?5?$AA?$DO?$AA?5?$AA0?$AA?$AA@
CONST	SEGMENT
??_C@_1CK@BNOCFFAG@?$AAt?$AAy?$AAp?$AAe?$AA_?$AAs?$AAt?$AAa?$AAc?$AAk?$AA?9?$AA?$DO?$AAh?$AAe?$AAa?$AAd?$AA?5?$AA?$DO?$AA?5?$AA0?$AA?$AA@ DB 't'
	DB	00H, 'y', 00H, 'p', 00H, 'e', 00H, '_', 00H, 's', 00H, 't', 00H
	DB	'a', 00H, 'c', 00H, 'k', 00H, '-', 00H, '>', 00H, 'h', 00H, 'e'
	DB	00H, 'a', 00H, 'd', 00H, ' ', 00H, '>', 00H, ' ', 00H, '0', 00H
	DB	00H, 00H					; `string'
CONST	ENDS
;	COMDAT ??_C@_1KO@JLDKBNHN@?$AAt?$AAy?$AAp?$AAe?$AA_?$AAs?$AAt?$AAa?$AAc?$AAk?$AA?9?$AA?$DO?$AAh?$AAe?$AAa?$AAd?$AA?5?$AA?$DM?$AA?5?$AA?$CI?$AAi?$AAn?$AAt?$AA?$CJ?$AA?$CI?$AAs?$AAi?$AAz?$AAe?$AAo?$AAf?$AA?$CI@
CONST	SEGMENT
??_C@_1KO@JLDKBNHN@?$AAt?$AAy?$AAp?$AAe?$AA_?$AAs?$AAt?$AAa?$AAc?$AAk?$AA?9?$AA?$DO?$AAh?$AAe?$AAa?$AAd?$AA?5?$AA?$DM?$AA?5?$AA?$CI?$AAi?$AAn?$AAt?$AA?$CJ?$AA?$CI?$AAs?$AAi?$AAz?$AAe?$AAo?$AAf?$AA?$CI@ DB 't'
	DB	00H, 'y', 00H, 'p', 00H, 'e', 00H, '_', 00H, 's', 00H, 't', 00H
	DB	'a', 00H, 'c', 00H, 'k', 00H, '-', 00H, '>', 00H, 'h', 00H, 'e'
	DB	00H, 'a', 00H, 'd', 00H, ' ', 00H, '<', 00H, ' ', 00H, '(', 00H
	DB	'i', 00H, 'n', 00H, 't', 00H, ')', 00H, '(', 00H, 's', 00H, 'i'
	DB	00H, 'z', 00H, 'e', 00H, 'o', 00H, 'f', 00H, '(', 00H, 't', 00H
	DB	'y', 00H, 'p', 00H, 'e', 00H, '_', 00H, 's', 00H, 't', 00H, 'a'
	DB	00H, 'c', 00H, 'k', 00H, '-', 00H, '>', 00H, 'e', 00H, 'l', 00H
	DB	'e', 00H, 'm', 00H, 'e', 00H, 'n', 00H, 't', 00H, 's', 00H, ')'
	DB	00H, '/', 00H, 's', 00H, 'i', 00H, 'z', 00H, 'e', 00H, 'o', 00H
	DB	'f', 00H, '(', 00H, 't', 00H, 'y', 00H, 'p', 00H, 'e', 00H, '_'
	DB	00H, 's', 00H, 't', 00H, 'a', 00H, 'c', 00H, 'k', 00H, '-', 00H
	DB	'>', 00H, 'e', 00H, 'l', 00H, 'e', 00H, 'm', 00H, 'e', 00H, 'n'
	DB	00H, 't', 00H, 's', 00H, ')', 00H, '[', 00H, '0', 00H, ']', 00H
	DB	')', 00H, 00H, 00H				; `string'
CONST	ENDS
;	COMDAT ??_C@_1CK@NLHKOOOH@?$AAf?$AAo?$AAn?$AAt?$AA_?$AAs?$AAt?$AAa?$AAc?$AAk?$AA?9?$AA?$DO?$AAh?$AAe?$AAa?$AAd?$AA?5?$AA?$DO?$AA?5?$AA0?$AA?$AA@
CONST	SEGMENT
??_C@_1CK@NLHKOOOH@?$AAf?$AAo?$AAn?$AAt?$AA_?$AAs?$AAt?$AAa?$AAc?$AAk?$AA?9?$AA?$DO?$AAh?$AAe?$AAa?$AAd?$AA?5?$AA?$DO?$AA?5?$AA0?$AA?$AA@ DB 'f'
	DB	00H, 'o', 00H, 'n', 00H, 't', 00H, '_', 00H, 's', 00H, 't', 00H
	DB	'a', 00H, 'c', 00H, 'k', 00H, '-', 00H, '>', 00H, 'h', 00H, 'e'
	DB	00H, 'a', 00H, 'd', 00H, ' ', 00H, '>', 00H, ' ', 00H, '0', 00H
	DB	00H, 00H					; `string'
CONST	ENDS
;	COMDAT ?__LINE__Var@?1??nk_style_pop_font@@9@9
_DATA	SEGMENT
?__LINE__Var@?1??nk_style_pop_font@@9@9 DD 04294H	; `nk_style_pop_font'::`2'::__LINE__Var
_DATA	ENDS
;	COMDAT ??_C@_1KO@LJHFLGDM@?$AAf?$AAo?$AAn?$AAt?$AA_?$AAs?$AAt?$AAa?$AAc?$AAk?$AA?9?$AA?$DO?$AAh?$AAe?$AAa?$AAd?$AA?5?$AA?$DM?$AA?5?$AA?$CI?$AAi?$AAn?$AAt?$AA?$CJ?$AA?$CI?$AAs?$AAi?$AAz?$AAe?$AAo?$AAf?$AA?$CI@
CONST	SEGMENT
??_C@_1KO@LJHFLGDM@?$AAf?$AAo?$AAn?$AAt?$AA_?$AAs?$AAt?$AAa?$AAc?$AAk?$AA?9?$AA?$DO?$AAh?$AAe?$AAa?$AAd?$AA?5?$AA?$DM?$AA?5?$AA?$CI?$AAi?$AAn?$AAt?$AA?$CJ?$AA?$CI?$AAs?$AAi?$AAz?$AAe?$AAo?$AAf?$AA?$CI@ DB 'f'
	DB	00H, 'o', 00H, 'n', 00H, 't', 00H, '_', 00H, 's', 00H, 't', 00H
	DB	'a', 00H, 'c', 00H, 'k', 00H, '-', 00H, '>', 00H, 'h', 00H, 'e'
	DB	00H, 'a', 00H, 'd', 00H, ' ', 00H, '<', 00H, ' ', 00H, '(', 00H
	DB	'i', 00H, 'n', 00H, 't', 00H, ')', 00H, '(', 00H, 's', 00H, 'i'
	DB	00H, 'z', 00H, 'e', 00H, 'o', 00H, 'f', 00H, '(', 00H, 'f', 00H
	DB	'o', 00H, 'n', 00H, 't', 00H, '_', 00H, 's', 00H, 't', 00H, 'a'
	DB	00H, 'c', 00H, 'k', 00H, '-', 00H, '>', 00H, 'e', 00H, 'l', 00H
	DB	'e', 00H, 'm', 00H, 'e', 00H, 'n', 00H, 't', 00H, 's', 00H, ')'
	DB	00H, '/', 00H, 's', 00H, 'i', 00H, 'z', 00H, 'e', 00H, 'o', 00H
	DB	'f', 00H, '(', 00H, 'f', 00H, 'o', 00H, 'n', 00H, 't', 00H, '_'
	DB	00H, 's', 00H, 't', 00H, 'a', 00H, 'c', 00H, 'k', 00H, '-', 00H
	DB	'>', 00H, 'e', 00H, 'l', 00H, 'e', 00H, 'm', 00H, 'e', 00H, 'n'
	DB	00H, 't', 00H, 's', 00H, ')', 00H, '[', 00H, '0', 00H, ']', 00H
	DB	')', 00H, 00H, 00H				; `string'
CONST	ENDS
;	COMDAT ?__LINE__Var@?1??nk_style_push_font@@9@9
_DATA	SEGMENT
?__LINE__Var@?1??nk_style_push_font@@9@9 DD 0427fH	; `nk_style_push_font'::`2'::__LINE__Var
_DATA	ENDS
;	COMDAT ?__LINE__Var@?1??nk_style_set_font@@9@9
_DATA	SEGMENT
?__LINE__Var@?1??nk_style_set_font@@9@9 DD 04271H	; `nk_style_set_font'::`2'::__LINE__Var
_DATA	ENDS
;	COMDAT ?__LINE__Var@?1??nk_style_from_table@@9@9
_DATA	SEGMENT
?__LINE__Var@?1??nk_style_from_table@@9@9 DD 04051H	; `nk_style_from_table'::`2'::__LINE__Var
_DATA	ENDS
;	COMDAT ?__LINE__Var@?1??nk_do_color_picker@@9@9@ddf8d5d8
_DATA	SEGMENT
?__LINE__Var@?1??nk_do_color_picker@@9@9@ddf8d5d8 DD 03fe9H ; `nk_do_color_picker'::`2'::__LINE__Var
_DATA	ENDS
;	COMDAT ?__LINE__Var@?1??nk_draw_color_picker@@9@9@ddf8d5d8
_DATA	SEGMENT
?__LINE__Var@?1??nk_draw_color_picker@@9@9@ddf8d5d8 DD 03fa6H ; `nk_draw_color_picker'::`2'::__LINE__Var
_DATA	ENDS
;	COMDAT ??_C@_1M@EENKLIPJ@?$AAc?$AAo?$AAl?$AAo?$AAr?$AA?$AA@
CONST	SEGMENT
??_C@_1M@EENKLIPJ@?$AAc?$AAo?$AAl?$AAo?$AAr?$AA?$AA@ DB 'c', 00H, 'o', 00H
	DB	'l', 00H, 'o', 00H, 'r', 00H, 00H, 00H	; `string'
CONST	ENDS
;	COMDAT ??_C@_1BA@FPGEKOLJ@?$AAh?$AAu?$AAe?$AA_?$AAb?$AAa?$AAr?$AA?$AA@
CONST	SEGMENT
??_C@_1BA@FPGEKOLJ@?$AAh?$AAu?$AAe?$AA_?$AAb?$AAa?$AAr?$AA?$AA@ DB 'h', 00H
	DB	'u', 00H, 'e', 00H, '_', 00H, 'b', 00H, 'a', 00H, 'r', 00H, 00H
	DB	00H						; `string'
CONST	ENDS
;	COMDAT ??_C@_1O@DGDDDMMD@?$AAm?$AAa?$AAt?$AAr?$AAi?$AAx?$AA?$AA@
CONST	SEGMENT
??_C@_1O@DGDDDMMD@?$AAm?$AAa?$AAt?$AAr?$AAi?$AAx?$AA?$AA@ DB 'm', 00H, 'a'
	DB	00H, 't', 00H, 'r', 00H, 'i', 00H, 'x', 00H, 00H, 00H ; `string'
CONST	ENDS
;	COMDAT ?__LINE__Var@?1??nk_color_picker_behavior@@9@9@ddf8d5d8
_DATA	SEGMENT
?__LINE__Var@?1??nk_color_picker_behavior@@9@9@ddf8d5d8 DD 03f6fH ; `nk_color_picker_behavior'::`2'::__LINE__Var
_DATA	ENDS
;	COMDAT ??_C@_1BG@FFNHGOHN@?$AAc?$AAu?$AAr?$AAs?$AAo?$AAr?$AA_?$AAp?$AAt?$AAr?$AA?$AA@
CONST	SEGMENT
??_C@_1BG@FFNHGOHN@?$AAc?$AAu?$AAr?$AAs?$AAo?$AAr?$AA_?$AAp?$AAt?$AAr?$AA?$AA@ DB 'c'
	DB	00H, 'u', 00H, 'r', 00H, 's', 00H, 'o', 00H, 'r', 00H, '_', 00H
	DB	'p', 00H, 't', 00H, 'r', 00H, 00H, 00H	; `string'
CONST	ENDS
;	COMDAT ??_C@_1BO@GIIBLKDM@?$AAs?$AAe?$AAl?$AAe?$AAc?$AAt?$AA_?$AAe?$AAn?$AAd?$AA_?$AAp?$AAt?$AAr?$AA?$AA@
CONST	SEGMENT
??_C@_1BO@GIIBLKDM@?$AAs?$AAe?$AAl?$AAe?$AAc?$AAt?$AA_?$AAe?$AAn?$AAd?$AA_?$AAp?$AAt?$AAr?$AA?$AA@ DB 's'
	DB	00H, 'e', 00H, 'l', 00H, 'e', 00H, 'c', 00H, 't', 00H, '_', 00H
	DB	'e', 00H, 'n', 00H, 'd', 00H, '_', 00H, 'p', 00H, 't', 00H, 'r'
	DB	00H, 00H, 00H				; `string'
CONST	ENDS
;	COMDAT ??_C@_1CC@DELOPEMK@?$AAs?$AAe?$AAl?$AAe?$AAc?$AAt?$AA_?$AAb?$AAe?$AAg?$AAi?$AAn?$AA_?$AAp?$AAt?$AAr?$AA?$AA@
CONST	SEGMENT
??_C@_1CC@DELOPEMK@?$AAs?$AAe?$AAl?$AAe?$AAc?$AAt?$AA_?$AAb?$AAe?$AAg?$AAi?$AAn?$AA_?$AAp?$AAt?$AAr?$AA?$AA@ DB 's'
	DB	00H, 'e', 00H, 'l', 00H, 'e', 00H, 'c', 00H, 't', 00H, '_', 00H
	DB	'b', 00H, 'e', 00H, 'g', 00H, 'i', 00H, 'n', 00H, '_', 00H, 'p'
	DB	00H, 't', 00H, 'r', 00H, 00H, 00H		; `string'
CONST	ENDS
;	COMDAT ??_C@_04PFOHOKJK@?5?5?5?5?$AA@
CONST	SEGMENT
??_C@_04PFOHOKJK@?5?5?5?5?$AA@ DB '    ', 00H		; `string'
CONST	ENDS
;	COMDAT ??_C@_01EEMJAFIK@?6?$AA@
CONST	SEGMENT
??_C@_01EEMJAFIK@?6?$AA@ DB 0aH, 00H			; `string'
CONST	ENDS
;	COMDAT ?__LINE__Var@?1??nk_do_edit@@9@9@ddf8d5d8
_DATA	SEGMENT
?__LINE__Var@?1??nk_do_edit@@9@9@ddf8d5d8 DD 03c47H	; `nk_do_edit'::`2'::__LINE__Var
_DATA	ENDS
;	COMDAT ?__LINE__Var@?1??nk_edit_draw_text@@9@9@ddf8d5d8
_DATA	SEGMENT
?__LINE__Var@?1??nk_edit_draw_text@@9@9@ddf8d5d8 DD 03bf7H ; `nk_edit_draw_text'::`2'::__LINE__Var
_DATA	ENDS
;	COMDAT ?__LINE__Var@?1??nk_do_scrollbarh@@9@9@ddf8d5d8
_DATA	SEGMENT
?__LINE__Var@?1??nk_do_scrollbarh@@9@9@ddf8d5d8 DD 03b5aH ; `nk_do_scrollbarh'::`2'::__LINE__Var
_DATA	ENDS
;	COMDAT ?__LINE__Var@?1??nk_do_scrollbarv@@9@9@ddf8d5d8
_DATA	SEGMENT
?__LINE__Var@?1??nk_do_scrollbarv@@9@9@ddf8d5d8 DD 03b00H ; `nk_do_scrollbarv'::`2'::__LINE__Var
_DATA	ENDS
;	COMDAT ?__LINE__Var@?1??nk_do_progress@@9@9@ddf8d5d8
_DATA	SEGMENT
?__LINE__Var@?1??nk_do_progress@@9@9@ddf8d5d8 DD 03a6cH	; `nk_do_progress'::`2'::__LINE__Var
_DATA	ENDS
;	COMDAT ?__LINE__Var@?1??nk_do_slider@@9@9@ddf8d5d8
_DATA	SEGMENT
?__LINE__Var@?1??nk_do_slider@@9@9@ddf8d5d8 DD 039ceH	; `nk_do_slider'::`2'::__LINE__Var
_DATA	ENDS
;	COMDAT ?__LINE__Var@?1??nk_do_selectable_image@@9@9@ddf8d5d8
_DATA	SEGMENT
?__LINE__Var@?1??nk_do_selectable_image@@9@9@ddf8d5d8 DD 0392eH ; `nk_do_selectable_image'::`2'::__LINE__Var
_DATA	ENDS
;	COMDAT ??_C@_1M@KBCLFMHN@?$AAv?$AAa?$AAl?$AAu?$AAe?$AA?$AA@
CONST	SEGMENT
??_C@_1M@KBCLFMHN@?$AAv?$AAa?$AAl?$AAu?$AAe?$AA?$AA@ DB 'v', 00H, 'a', 00H
	DB	'l', 00H, 'u', 00H, 'e', 00H, 00H, 00H	; `string'
CONST	ENDS
;	COMDAT ?__LINE__Var@?1??nk_do_selectable@@9@9@ddf8d5d8
_DATA	SEGMENT
?__LINE__Var@?1??nk_do_selectable@@9@9@ddf8d5d8 DD 03909H ; `nk_do_selectable'::`2'::__LINE__Var
_DATA	ENDS
;	COMDAT ?__LINE__Var@?1??nk_do_toggle@@9@9@ddf8d5d8
_DATA	SEGMENT
?__LINE__Var@?1??nk_do_toggle@@9@9@ddf8d5d8 DD 03896H	; `nk_do_toggle'::`2'::__LINE__Var
_DATA	ENDS
;	COMDAT ?__LINE__Var@?1??nk_do_button_text_image@@9@9@ddf8d5d8
_DATA	SEGMENT
?__LINE__Var@?1??nk_do_button_text_image@@9@9@ddf8d5d8 DD 03801H ; `nk_do_button_text_image'::`2'::__LINE__Var
_DATA	ENDS
;	COMDAT ?__LINE__Var@?1??nk_do_button_text_symbol@@9@9@ddf8d5d8
_DATA	SEGMENT
?__LINE__Var@?1??nk_do_button_text_symbol@@9@9@ddf8d5d8 DD 037c6H ; `nk_do_button_text_symbol'::`2'::__LINE__Var
_DATA	ENDS
;	COMDAT ?__LINE__Var@?1??nk_do_button_image@@9@9@ddf8d5d8
_DATA	SEGMENT
?__LINE__Var@?1??nk_do_button_image@@9@9@ddf8d5d8 DD 03788H ; `nk_do_button_image'::`2'::__LINE__Var
_DATA	ENDS
;	COMDAT ?__LINE__Var@?1??nk_do_button_symbol@@9@9@ddf8d5d8
_DATA	SEGMENT
?__LINE__Var@?1??nk_do_button_symbol@@9@9@ddf8d5d8 DD 03768H ; `nk_do_button_symbol'::`2'::__LINE__Var
_DATA	ENDS
;	COMDAT ??_C@_1O@DGBBOFII@?$AAs?$AAt?$AAr?$AAi?$AAn?$AAg?$AA?$AA@
CONST	SEGMENT
??_C@_1O@DGBBOFII@?$AAs?$AAt?$AAr?$AAi?$AAn?$AAg?$AA?$AA@ DB 's', 00H, 't'
	DB	00H, 'r', 00H, 'i', 00H, 'n', 00H, 'g', 00H, 00H, 00H ; `string'
CONST	ENDS
;	COMDAT ?__LINE__Var@?1??nk_do_button_text@@9@9@ddf8d5d8
_DATA	SEGMENT
?__LINE__Var@?1??nk_do_button_text@@9@9@ddf8d5d8 DD 03738H ; `nk_do_button_text'::`2'::__LINE__Var
_DATA	ENDS
;	COMDAT ??_C@_17CMKEDJDI@?$AAo?$AAu?$AAt?$AA?$AA@
CONST	SEGMENT
??_C@_17CMKEDJDI@?$AAo?$AAu?$AAt?$AA?$AA@ DB 'o', 00H, 'u', 00H, 't', 00H
	DB	00H, 00H					; `string'
CONST	ENDS
;	COMDAT ??_C@_1M@OIINANNN@?$AAs?$AAt?$AAy?$AAl?$AAe?$AA?$AA@
CONST	SEGMENT
??_C@_1M@OIINANNN@?$AAs?$AAt?$AAy?$AAl?$AAe?$AA?$AA@ DB 's', 00H, 't', 00H
	DB	'y', 00H, 'l', 00H, 'e', 00H, 00H, 00H	; `string'
CONST	ENDS
;	COMDAT ?__LINE__Var@?1??nk_do_button@@9@9@ddf8d5d8
_DATA	SEGMENT
?__LINE__Var@?1??nk_do_button@@9@9@ddf8d5d8 DD 03704H	; `nk_do_button'::`2'::__LINE__Var
_DATA	ENDS
;	COMDAT ??_C@_01JOAMLHOP@?9?$AA@
CONST	SEGMENT
??_C@_01JOAMLHOP@?9?$AA@ DB '-', 00H			; `string'
CONST	ENDS
;	COMDAT ??_C@_01MIFGBAGJ@?$CL?$AA@
CONST	SEGMENT
??_C@_01MIFGBAGJ@?$CL?$AA@ DB '+', 00H			; `string'
CONST	ENDS
;	COMDAT ??_C@_01IDAFKMJL@_?$AA@
CONST	SEGMENT
??_C@_01IDAFKMJL@_?$AA@ DB '_', 00H			; `string'
CONST	ENDS
;	COMDAT ??_C@_01FJMABOPO@x?$AA@
CONST	SEGMENT
??_C@_01FJMABOPO@x?$AA@ DB 'x', 00H			; `string'
CONST	ENDS
;	COMDAT ?__LINE__Var@?1??nk_widget_text_wrap@@9@9@ddf8d5d8
_DATA	SEGMENT
?__LINE__Var@?1??nk_widget_text_wrap@@9@9@ddf8d5d8 DD 03670H ; `nk_widget_text_wrap'::`2'::__LINE__Var
_DATA	ENDS
;	COMDAT ??_C@_13DKOGBHCI@?$AAt?$AA?$AA@
CONST	SEGMENT
??_C@_13DKOGBHCI@?$AAt?$AA?$AA@ DB 't', 00H, 00H, 00H	; `string'
CONST	ENDS
;	COMDAT ??_C@_13LNPOMHLG@?$AAo?$AA?$AA@
CONST	SEGMENT
??_C@_13LNPOMHLG@?$AAo?$AA?$AA@ DB 'o', 00H, 00H, 00H	; `string'
CONST	ENDS
;	COMDAT ?__LINE__Var@?1??nk_widget_text@@9@9@ddf8d5d8
_DATA	SEGMENT
?__LINE__Var@?1??nk_widget_text@@9@9@ddf8d5d8 DD 03641H	; `nk_widget_text'::`2'::__LINE__Var
_DATA	ENDS
;	COMDAT ?__LINE__Var@?1??nk_textedit_free@@9@9
_DATA	SEGMENT
?__LINE__Var@?1??nk_textedit_free@@9@9 DD 03627H	; `nk_textedit_free'::`2'::__LINE__Var
_DATA	ENDS
;	COMDAT ?__LINE__Var@?1??nk_textedit_select_all@@9@9
_DATA	SEGMENT
?__LINE__Var@?1??nk_textedit_select_all@@9@9 DD 0361fH	; `nk_textedit_select_all'::`2'::__LINE__Var
_DATA	ENDS
;	COMDAT ?__LINE__Var@?1??nk_textedit_init_default@@9@9
_DATA	SEGMENT
?__LINE__Var@?1??nk_textedit_init_default@@9@9 DD 03614H ; `nk_textedit_init_default'::`2'::__LINE__Var
_DATA	ENDS
;	COMDAT ?__LINE__Var@?1??nk_textedit_init@@9@9
_DATA	SEGMENT
?__LINE__Var@?1??nk_textedit_init@@9@9 DD 03608H	; `nk_textedit_init'::`2'::__LINE__Var
_DATA	ENDS
;	COMDAT ?__LINE__Var@?1??nk_textedit_init_fixed@@9@9
_DATA	SEGMENT
?__LINE__Var@?1??nk_textedit_init_fixed@@9@9 DD 035fdH	; `nk_textedit_init_fixed'::`2'::__LINE__Var
_DATA	ENDS
;	COMDAT ??_C@_1M@KIFGKHLF@?$AAs?$AAt?$AAa?$AAt?$AAe?$AA?$AA@
CONST	SEGMENT
??_C@_1M@KIFGKHLF@?$AAs?$AAt?$AAa?$AAt?$AAe?$AA?$AA@ DB 's', 00H, 't', 00H
	DB	'a', 00H, 't', 00H, 'e', 00H, 00H, 00H	; `string'
CONST	ENDS
;	COMDAT ?__LINE__Var@?1??nk_textedit_text@@9@9
_DATA	SEGMENT
?__LINE__Var@?1??nk_textedit_text@@9@9 DD 0337dH	; `nk_textedit_text'::`2'::__LINE__Var
_DATA	ENDS
;	COMDAT ?__LINE__Var@?1??nk_input_unicode@@9@9
_DATA	SEGMENT
?__LINE__Var@?1??nk_input_unicode@@9@9 DD 03171H	; `nk_input_unicode'::`2'::__LINE__Var
_DATA	ENDS
;	COMDAT ?__LINE__Var@?1??nk_input_char@@9@9
_DATA	SEGMENT
?__LINE__Var@?1??nk_input_char@@9@9 DD 03167H		; `nk_input_char'::`2'::__LINE__Var
_DATA	ENDS
;	COMDAT ?__LINE__Var@?1??nk_input_glyph@@9@9
_DATA	SEGMENT
?__LINE__Var@?1??nk_input_glyph@@9@9 DD 03154H		; `nk_input_glyph'::`2'::__LINE__Var
_DATA	ENDS
;	COMDAT ?__LINE__Var@?1??nk_input_scroll@@9@9
_DATA	SEGMENT
?__LINE__Var@?1??nk_input_scroll@@9@9 DD 0314bH		; `nk_input_scroll'::`2'::__LINE__Var
_DATA	ENDS
;	COMDAT ?__LINE__Var@?1??nk_input_button@@9@9
_DATA	SEGMENT
?__LINE__Var@?1??nk_input_button@@9@9 DD 0313aH		; `nk_input_button'::`2'::__LINE__Var
_DATA	ENDS
;	COMDAT ?__LINE__Var@?1??nk_input_key@@9@9
_DATA	SEGMENT
?__LINE__Var@?1??nk_input_key@@9@9 DD 0312eH		; `nk_input_key'::`2'::__LINE__Var
_DATA	ENDS
;	COMDAT ?__LINE__Var@?1??nk_input_motion@@9@9
_DATA	SEGMENT
?__LINE__Var@?1??nk_input_motion@@9@9 DD 03121H		; `nk_input_motion'::`2'::__LINE__Var
_DATA	ENDS
;	COMDAT ?__LINE__Var@?1??nk_input_end@@9@9
_DATA	SEGMENT
?__LINE__Var@?1??nk_input_end@@9@9 DD 03111H		; `nk_input_end'::`2'::__LINE__Var
_DATA	ENDS
;	COMDAT ?__LINE__Var@?1??nk_input_begin@@9@9
_DATA	SEGMENT
?__LINE__Var@?1??nk_input_begin@@9@9 DD 030fcH		; `nk_input_begin'::`2'::__LINE__Var
_DATA	ENDS
;	COMDAT ?__LINE__Var@?1??nk_font_atlas_clear@@9@9
_DATA	SEGMENT
?__LINE__Var@?1??nk_font_atlas_clear@@9@9 DD 030dfH	; `nk_font_atlas_clear'::`2'::__LINE__Var
_DATA	ENDS
;	COMDAT ?__LINE__Var@?1??nk_font_atlas_cleanup@@9@9
_DATA	SEGMENT
?__LINE__Var@?1??nk_font_atlas_cleanup@@9@9 DD 030caH	; `nk_font_atlas_cleanup'::`2'::__LINE__Var
_DATA	ENDS
;	COMDAT ?__LINE__Var@?1??nk_font_atlas_end@@9@9
_DATA	SEGMENT
?__LINE__Var@?1??nk_font_atlas_end@@9@9 DD 030a7H	; `nk_font_atlas_end'::`2'::__LINE__Var
_DATA	ENDS
;	COMDAT ??_C@_1BC@POOMANHF@?$AAi?$AAm?$AAg?$AA_?$AAr?$AAg?$AAb?$AAa?$AA?$AA@
CONST	SEGMENT
??_C@_1BC@POOMANHF@?$AAi?$AAm?$AAg?$AA_?$AAr?$AAg?$AAb?$AAa?$AA?$AA@ DB 'i'
	DB	00H, 'm', 00H, 'g', 00H, '_', 00H, 'r', 00H, 'g', 00H, 'b', 00H
	DB	'a', 00H, 00H, 00H				; `string'
CONST	ENDS
;	COMDAT ??_C@_1BK@NNCEIJDJ@?$AAa?$AAt?$AAl?$AAa?$AAs?$AA?9?$AA?$DO?$AAp?$AAi?$AAx?$AAe?$AAl?$AA?$AA@
CONST	SEGMENT
??_C@_1BK@NNCEIJDJ@?$AAa?$AAt?$AAl?$AAa?$AAs?$AA?9?$AA?$DO?$AAp?$AAi?$AAx?$AAe?$AAl?$AA?$AA@ DB 'a'
	DB	00H, 't', 00H, 'l', 00H, 'a', 00H, 's', 00H, '-', 00H, '>', 00H
	DB	'p', 00H, 'i', 00H, 'x', 00H, 'e', 00H, 'l', 00H, 00H, 00H ; `string'
CONST	ENDS
;	COMDAT ??_C@_1BM@DILOJDLD@?$AAa?$AAt?$AAl?$AAa?$AAs?$AA?9?$AA?$DO?$AAg?$AAl?$AAy?$AAp?$AAh?$AAs?$AA?$AA@
CONST	SEGMENT
??_C@_1BM@DILOJDLD@?$AAa?$AAt?$AAl?$AAa?$AAs?$AA?9?$AA?$DO?$AAg?$AAl?$AAy?$AAp?$AAh?$AAs?$AA?$AA@ DB 'a'
	DB	00H, 't', 00H, 'l', 00H, 'a', 00H, 's', 00H, '-', 00H, '>', 00H
	DB	'g', 00H, 'l', 00H, 'y', 00H, 'p', 00H, 'h', 00H, 's', 00H, 00H
	DB	00H						; `string'
CONST	ENDS
;	COMDAT ??_C@_17GNJCADOE@?$AAt?$AAm?$AAp?$AA?$AA@
CONST	SEGMENT
??_C@_17GNJCADOE@?$AAt?$AAm?$AAp?$AA?$AA@ DB 't', 00H, 'm', 00H, 'p', 00H
	DB	00H, 00H					; `string'
CONST	ENDS
;	COMDAT ?__LINE__Var@?1??nk_font_atlas_bake@@9@9
_DATA	SEGMENT
?__LINE__Var@?1??nk_font_atlas_bake@@9@9 DD 0302aH	; `nk_font_atlas_bake'::`2'::__LINE__Var
_DATA	ENDS
;	COMDAT ?__LINE__Var@?1??nk_font_atlas_add_default@@9@9
_DATA	SEGMENT
?__LINE__Var@?1??nk_font_atlas_add_default@@9@9 DD 0301cH ; `nk_font_atlas_add_default'::`2'::__LINE__Var
_DATA	ENDS
;	COMDAT ??_C@_1BI@DCDGNPB@?$AAd?$AAa?$AAt?$AAa?$AA_?$AAb?$AAa?$AAs?$AAe?$AA8?$AA5?$AA?$AA@
CONST	SEGMENT
??_C@_1BI@DCDGNPB@?$AAd?$AAa?$AAt?$AAa?$AA_?$AAb?$AAa?$AAs?$AAe?$AA8?$AA5?$AA?$AA@ DB 'd'
	DB	00H, 'a', 00H, 't', 00H, 'a', 00H, '_', 00H, 'b', 00H, 'a', 00H
	DB	's', 00H, 'e', 00H, '8', 00H, '5', 00H, 00H, 00H ; `string'
CONST	ENDS
;	COMDAT ?__LINE__Var@?1??nk_font_atlas_add_compressed_base85@@9@9
_DATA	SEGMENT
?__LINE__Var@?1??nk_font_atlas_add_compressed_base85@@9@9 DD 02ffdH ; `nk_font_atlas_add_compressed_base85'::`2'::__LINE__Var
_DATA	ENDS
;	COMDAT ??_C@_1CE@NFICCMAF@?$AAd?$AAe?$AAc?$AAo?$AAm?$AAp?$AAr?$AAe?$AAs?$AAs?$AAe?$AAd?$AA_?$AAd?$AAa?$AAt?$AAa?$AA?$AA@
CONST	SEGMENT
??_C@_1CE@NFICCMAF@?$AAd?$AAe?$AAc?$AAo?$AAm?$AAp?$AAr?$AAe?$AAs?$AAs?$AAe?$AAd?$AA_?$AAd?$AAa?$AAt?$AAa?$AA?$AA@ DB 'd'
	DB	00H, 'e', 00H, 'c', 00H, 'o', 00H, 'm', 00H, 'p', 00H, 'r', 00H
	DB	'e', 00H, 's', 00H, 's', 00H, 'e', 00H, 'd', 00H, '_', 00H, 'd'
	DB	00H, 'a', 00H, 't', 00H, 'a', 00H, 00H, 00H	; `string'
CONST	ENDS
;	COMDAT ??_C@_1CA@HMLKODMG@?$AAc?$AAo?$AAm?$AAp?$AAr?$AAe?$AAs?$AAs?$AAe?$AAd?$AA_?$AAs?$AAi?$AAz?$AAe?$AA?$AA@
CONST	SEGMENT
??_C@_1CA@HMLKODMG@?$AAc?$AAo?$AAm?$AAp?$AAr?$AAe?$AAs?$AAs?$AAe?$AAd?$AA_?$AAs?$AAi?$AAz?$AAe?$AA?$AA@ DB 'c'
	DB	00H, 'o', 00H, 'm', 00H, 'p', 00H, 'r', 00H, 'e', 00H, 's', 00H
	DB	's', 00H, 'e', 00H, 'd', 00H, '_', 00H, 's', 00H, 'i', 00H, 'z'
	DB	00H, 'e', 00H, 00H, 00H			; `string'
CONST	ENDS
;	COMDAT ??_C@_1CA@NPEFJEMF@?$AAc?$AAo?$AAm?$AAp?$AAr?$AAe?$AAs?$AAs?$AAe?$AAd?$AA_?$AAd?$AAa?$AAt?$AAa?$AA?$AA@
CONST	SEGMENT
??_C@_1CA@NPEFJEMF@?$AAc?$AAo?$AAm?$AAp?$AAr?$AAe?$AAs?$AAs?$AAe?$AAd?$AA_?$AAd?$AAa?$AAt?$AAa?$AA?$AA@ DB 'c'
	DB	00H, 'o', 00H, 'm', 00H, 'p', 00H, 'r', 00H, 'e', 00H, 's', 00H
	DB	's', 00H, 'e', 00H, 'd', 00H, '_', 00H, 'd', 00H, 'a', 00H, 't'
	DB	00H, 'a', 00H, 00H, 00H			; `string'
CONST	ENDS
;	COMDAT ?__LINE__Var@?1??nk_font_atlas_add_compressed@@9@9
_DATA	SEGMENT
?__LINE__Var@?1??nk_font_atlas_add_compressed@@9@9 DD 02fdaH ; `nk_font_atlas_add_compressed'::`2'::__LINE__Var
_DATA	ENDS
;	COMDAT ?__LINE__Var@?1??nk_font_atlas_add_from_file@@9@9
_DATA	SEGMENT
?__LINE__Var@?1??nk_font_atlas_add_from_file@@9@9 DD 02fbeH ; `nk_font_atlas_add_from_file'::`2'::__LINE__Var
_DATA	ENDS
;	COMDAT ??_C@_1O@NIJNBMFJ@?$AAm?$AAe?$AAm?$AAo?$AAr?$AAy?$AA?$AA@
CONST	SEGMENT
??_C@_1O@NIJNBMFJ@?$AAm?$AAe?$AAm?$AAo?$AAr?$AAy?$AA?$AA@ DB 'm', 00H, 'e'
	DB	00H, 'm', 00H, 'o', 00H, 'r', 00H, 'y', 00H, 00H, 00H ; `string'
CONST	ENDS
;	COMDAT ?__LINE__Var@?1??nk_font_atlas_add_from_memory@@9@9
_DATA	SEGMENT
?__LINE__Var@?1??nk_font_atlas_add_from_memory@@9@9 DD 02fa4H ; `nk_font_atlas_add_from_memory'::`2'::__LINE__Var
_DATA	ENDS
;	COMDAT ??_C@_1BM@OLHJPPIM@?$AAc?$AAf?$AAg?$AA?9?$AA?$DO?$AAt?$AAt?$AAf?$AA_?$AAb?$AAl?$AAo?$AAb?$AA?$AA@
CONST	SEGMENT
??_C@_1BM@OLHJPPIM@?$AAc?$AAf?$AAg?$AA?9?$AA?$DO?$AAt?$AAt?$AAf?$AA_?$AAb?$AAl?$AAo?$AAb?$AA?$AA@ DB 'c'
	DB	00H, 'f', 00H, 'g', 00H, '-', 00H, '>', 00H, 't', 00H, 't', 00H
	DB	'f', 00H, '_', 00H, 'b', 00H, 'l', 00H, 'o', 00H, 'b', 00H, 00H
	DB	00H						; `string'
CONST	ENDS
;	COMDAT ??_C@_1CA@JLAHHNKC@?$AAa?$AAt?$AAl?$AAa?$AAs?$AA?9?$AA?$DO?$AAf?$AAo?$AAn?$AAt?$AA_?$AAn?$AAu?$AAm?$AA?$AA@
CONST	SEGMENT
??_C@_1CA@JLAHHNKC@?$AAa?$AAt?$AAl?$AAa?$AAs?$AA?9?$AA?$DO?$AAf?$AAo?$AAn?$AAt?$AA_?$AAn?$AAu?$AAm?$AA?$AA@ DB 'a'
	DB	00H, 't', 00H, 'l', 00H, 'a', 00H, 's', 00H, '-', 00H, '>', 00H
	DB	'f', 00H, 'o', 00H, 'n', 00H, 't', 00H, '_', 00H, 'n', 00H, 'u'
	DB	00H, 'm', 00H, 00H, 00H			; `string'
CONST	ENDS
;	COMDAT ??_C@_1CI@EPKOFENI@?$AAc?$AAo?$AAn?$AAf?$AAi?$AAg?$AA?9?$AA?$DO?$AAs?$AAi?$AAz?$AAe?$AA?5?$AA?$DO?$AA?5?$AA0?$AA?4?$AA0?$AAf?$AA?$AA@
CONST	SEGMENT
??_C@_1CI@EPKOFENI@?$AAc?$AAo?$AAn?$AAf?$AAi?$AAg?$AA?9?$AA?$DO?$AAs?$AAi?$AAz?$AAe?$AA?5?$AA?$DO?$AA?5?$AA0?$AA?4?$AA0?$AAf?$AA?$AA@ DB 'c'
	DB	00H, 'o', 00H, 'n', 00H, 'f', 00H, 'i', 00H, 'g', 00H, '-', 00H
	DB	'>', 00H, 's', 00H, 'i', 00H, 'z', 00H, 'e', 00H, ' ', 00H, '>'
	DB	00H, ' ', 00H, '0', 00H, '.', 00H, '0', 00H, 'f', 00H, 00H, 00H ; `string'
CONST	ENDS
;	COMDAT ??_C@_1CC@CPJMIME@?$AAc?$AAo?$AAn?$AAf?$AAi?$AAg?$AA?9?$AA?$DO?$AAt?$AAt?$AAf?$AA_?$AAs?$AAi?$AAz?$AAe?$AA?$AA@
CONST	SEGMENT
??_C@_1CC@CPJMIME@?$AAc?$AAo?$AAn?$AAf?$AAi?$AAg?$AA?9?$AA?$DO?$AAt?$AAt?$AAf?$AA_?$AAs?$AAi?$AAz?$AAe?$AA?$AA@ DB 'c'
	DB	00H, 'o', 00H, 'n', 00H, 'f', 00H, 'i', 00H, 'g', 00H, '-', 00H
	DB	'>', 00H, 't', 00H, 't', 00H, 'f', 00H, '_', 00H, 's', 00H, 'i'
	DB	00H, 'z', 00H, 'e', 00H, 00H, 00H		; `string'
CONST	ENDS
;	COMDAT ??_C@_1CC@EMLJIHOH@?$AAc?$AAo?$AAn?$AAf?$AAi?$AAg?$AA?9?$AA?$DO?$AAt?$AAt?$AAf?$AA_?$AAb?$AAl?$AAo?$AAb?$AA?$AA@
CONST	SEGMENT
??_C@_1CC@EMLJIHOH@?$AAc?$AAo?$AAn?$AAf?$AAi?$AAg?$AA?9?$AA?$DO?$AAt?$AAt?$AAf?$AA_?$AAb?$AAl?$AAo?$AAb?$AA?$AA@ DB 'c'
	DB	00H, 'o', 00H, 'n', 00H, 'f', 00H, 'i', 00H, 'g', 00H, '-', 00H
	DB	'>', 00H, 't', 00H, 't', 00H, 'f', 00H, '_', 00H, 'b', 00H, 'l'
	DB	00H, 'o', 00H, 'b', 00H, 00H, 00H		; `string'
CONST	ENDS
;	COMDAT ??_C@_1CM@BKPFMKJJ@?$AAa?$AAt?$AAl?$AAa?$AAs?$AA?9?$AA?$DO?$AAt?$AAe?$AAm?$AAp?$AAo?$AAr?$AAa?$AAr?$AAy?$AA?4?$AAf?$AAr?$AAe?$AAe?$AA?$AA@
CONST	SEGMENT
??_C@_1CM@BKPFMKJJ@?$AAa?$AAt?$AAl?$AAa?$AAs?$AA?9?$AA?$DO?$AAt?$AAe?$AAm?$AAp?$AAo?$AAr?$AAa?$AAr?$AAy?$AA?4?$AAf?$AAr?$AAe?$AAe?$AA?$AA@ DB 'a'
	DB	00H, 't', 00H, 'l', 00H, 'a', 00H, 's', 00H, '-', 00H, '>', 00H
	DB	't', 00H, 'e', 00H, 'm', 00H, 'p', 00H, 'o', 00H, 'r', 00H, 'a'
	DB	00H, 'r', 00H, 'y', 00H, '.', 00H, 'f', 00H, 'r', 00H, 'e', 00H
	DB	'e', 00H, 00H, 00H				; `string'
CONST	ENDS
;	COMDAT ??_C@_1CO@BIKDIHM@?$AAa?$AAt?$AAl?$AAa?$AAs?$AA?9?$AA?$DO?$AAt?$AAe?$AAm?$AAp?$AAo?$AAr?$AAa?$AAr?$AAy?$AA?4?$AAa?$AAl?$AAl?$AAo?$AAc?$AA?$AA@
CONST	SEGMENT
??_C@_1CO@BIKDIHM@?$AAa?$AAt?$AAl?$AAa?$AAs?$AA?9?$AA?$DO?$AAt?$AAe?$AAm?$AAp?$AAo?$AAr?$AAa?$AAr?$AAy?$AA?4?$AAa?$AAl?$AAl?$AAo?$AAc?$AA?$AA@ DB 'a'
	DB	00H, 't', 00H, 'l', 00H, 'a', 00H, 's', 00H, '-', 00H, '>', 00H
	DB	't', 00H, 'e', 00H, 'm', 00H, 'p', 00H, 'o', 00H, 'r', 00H, 'a'
	DB	00H, 'r', 00H, 'y', 00H, '.', 00H, 'a', 00H, 'l', 00H, 'l', 00H
	DB	'o', 00H, 'c', 00H, 00H, 00H			; `string'
CONST	ENDS
;	COMDAT ??_C@_1CM@IMJOFDOF@?$AAa?$AAt?$AAl?$AAa?$AAs?$AA?9?$AA?$DO?$AAp?$AAe?$AAr?$AAm?$AAa?$AAn?$AAe?$AAn?$AAt?$AA?4?$AAf?$AAr?$AAe?$AAe?$AA?$AA@
CONST	SEGMENT
??_C@_1CM@IMJOFDOF@?$AAa?$AAt?$AAl?$AAa?$AAs?$AA?9?$AA?$DO?$AAp?$AAe?$AAr?$AAm?$AAa?$AAn?$AAe?$AAn?$AAt?$AA?4?$AAf?$AAr?$AAe?$AAe?$AA?$AA@ DB 'a'
	DB	00H, 't', 00H, 'l', 00H, 'a', 00H, 's', 00H, '-', 00H, '>', 00H
	DB	'p', 00H, 'e', 00H, 'r', 00H, 'm', 00H, 'a', 00H, 'n', 00H, 'e'
	DB	00H, 'n', 00H, 't', 00H, '.', 00H, 'f', 00H, 'r', 00H, 'e', 00H
	DB	'e', 00H, 00H, 00H				; `string'
CONST	ENDS
;	COMDAT ??_C@_1CO@LNDLDAN@?$AAa?$AAt?$AAl?$AAa?$AAs?$AA?9?$AA?$DO?$AAp?$AAe?$AAr?$AAm?$AAa?$AAn?$AAe?$AAn?$AAt?$AA?4?$AAa?$AAl?$AAl?$AAo?$AAc?$AA?$AA@
CONST	SEGMENT
??_C@_1CO@LNDLDAN@?$AAa?$AAt?$AAl?$AAa?$AAs?$AA?9?$AA?$DO?$AAp?$AAe?$AAr?$AAm?$AAa?$AAn?$AAe?$AAn?$AAt?$AA?4?$AAa?$AAl?$AAl?$AAo?$AAc?$AA?$AA@ DB 'a'
	DB	00H, 't', 00H, 'l', 00H, 'a', 00H, 's', 00H, '-', 00H, '>', 00H
	DB	'p', 00H, 'e', 00H, 'r', 00H, 'm', 00H, 'a', 00H, 'n', 00H, 'e'
	DB	00H, 'n', 00H, 't', 00H, '.', 00H, 'a', 00H, 'l', 00H, 'l', 00H
	DB	'o', 00H, 'c', 00H, 00H, 00H			; `string'
CONST	ENDS
;	COMDAT ?__LINE__Var@?1??nk_font_atlas_add@@9@9
_DATA	SEGMENT
?__LINE__Var@?1??nk_font_atlas_add@@9@9 DD 02f59H	; `nk_font_atlas_add'::`2'::__LINE__Var
_DATA	ENDS
;	COMDAT ??_C@_1GA@EALBBIL@?$AAa?$AAt?$AAl?$AAa?$AAs?$AA?9?$AA?$DO?$AAp?$AAe?$AAr?$AAm?$AAa?$AAn?$AAe?$AAn?$AAt?$AA?4?$AAa?$AAl?$AAl?$AAo?$AAc?$AA?5?$AA?$CG?$AA?$CG?$AA?5?$AAa?$AAt?$AAl?$AAa?$AAs?$AA?9@
CONST	SEGMENT
??_C@_1GA@EALBBIL@?$AAa?$AAt?$AAl?$AAa?$AAs?$AA?9?$AA?$DO?$AAp?$AAe?$AAr?$AAm?$AAa?$AAn?$AAe?$AAn?$AAt?$AA?4?$AAa?$AAl?$AAl?$AAo?$AAc?$AA?5?$AA?$CG?$AA?$CG?$AA?5?$AAa?$AAt?$AAl?$AAa?$AAs?$AA?9@ DB 'a'
	DB	00H, 't', 00H, 'l', 00H, 'a', 00H, 's', 00H, '-', 00H, '>', 00H
	DB	'p', 00H, 'e', 00H, 'r', 00H, 'm', 00H, 'a', 00H, 'n', 00H, 'e'
	DB	00H, 'n', 00H, 't', 00H, '.', 00H, 'a', 00H, 'l', 00H, 'l', 00H
	DB	'o', 00H, 'c', 00H, ' ', 00H, '&', 00H, '&', 00H, ' ', 00H, 'a'
	DB	00H, 't', 00H, 'l', 00H, 'a', 00H, 's', 00H, '-', 00H, '>', 00H
	DB	'p', 00H, 'e', 00H, 'r', 00H, 'm', 00H, 'a', 00H, 'n', 00H, 'e'
	DB	00H, 'n', 00H, 't', 00H, '.', 00H, 'f', 00H, 'r', 00H, 'e', 00H
	DB	'e', 00H, 00H, 00H				; `string'
CONST	ENDS
;	COMDAT ??_C@_1GA@MNJGNIH@?$AAa?$AAt?$AAl?$AAa?$AAs?$AA?9?$AA?$DO?$AAt?$AAe?$AAm?$AAp?$AAo?$AAr?$AAa?$AAr?$AAy?$AA?4?$AAa?$AAl?$AAl?$AAo?$AAc?$AA?5?$AA?$CG?$AA?$CG?$AA?5?$AAa?$AAt?$AAl?$AAa?$AAs?$AA?9@
CONST	SEGMENT
??_C@_1GA@MNJGNIH@?$AAa?$AAt?$AAl?$AAa?$AAs?$AA?9?$AA?$DO?$AAt?$AAe?$AAm?$AAp?$AAo?$AAr?$AAa?$AAr?$AAy?$AA?4?$AAa?$AAl?$AAl?$AAo?$AAc?$AA?5?$AA?$CG?$AA?$CG?$AA?5?$AAa?$AAt?$AAl?$AAa?$AAs?$AA?9@ DB 'a'
	DB	00H, 't', 00H, 'l', 00H, 'a', 00H, 's', 00H, '-', 00H, '>', 00H
	DB	't', 00H, 'e', 00H, 'm', 00H, 'p', 00H, 'o', 00H, 'r', 00H, 'a'
	DB	00H, 'r', 00H, 'y', 00H, '.', 00H, 'a', 00H, 'l', 00H, 'l', 00H
	DB	'o', 00H, 'c', 00H, ' ', 00H, '&', 00H, '&', 00H, ' ', 00H, 'a'
	DB	00H, 't', 00H, 'l', 00H, 'a', 00H, 's', 00H, '-', 00H, '>', 00H
	DB	't', 00H, 'e', 00H, 'm', 00H, 'p', 00H, 'o', 00H, 'r', 00H, 'a'
	DB	00H, 'r', 00H, 'y', 00H, '.', 00H, 'f', 00H, 'r', 00H, 'e', 00H
	DB	'e', 00H, 00H, 00H				; `string'
CONST	ENDS
;	COMDAT ?__LINE__Var@?1??nk_font_atlas_begin@@9@9
_DATA	SEGMENT
?__LINE__Var@?1??nk_font_atlas_begin@@9@9 DD 02f47H	; `nk_font_atlas_begin'::`2'::__LINE__Var
_DATA	ENDS
;	COMDAT ??_C@_1BE@EMLGEEBK@?$AAt?$AAe?$AAm?$AAp?$AAo?$AAr?$AAa?$AAr?$AAy?$AA?$AA@
CONST	SEGMENT
??_C@_1BE@EMLGEEBK@?$AAt?$AAe?$AAm?$AAp?$AAo?$AAr?$AAa?$AAr?$AAy?$AA?$AA@ DB 't'
	DB	00H, 'e', 00H, 'm', 00H, 'p', 00H, 'o', 00H, 'r', 00H, 'a', 00H
	DB	'r', 00H, 'y', 00H, 00H, 00H			; `string'
CONST	ENDS
;	COMDAT ??_C@_1BE@GNEJBMGP@?$AAp?$AAe?$AAr?$AAm?$AAa?$AAn?$AAe?$AAn?$AAt?$AA?$AA@
CONST	SEGMENT
??_C@_1BE@GNEJBMGP@?$AAp?$AAe?$AAr?$AAm?$AAa?$AAn?$AAe?$AAn?$AAt?$AA?$AA@ DB 'p'
	DB	00H, 'e', 00H, 'r', 00H, 'm', 00H, 'a', 00H, 'n', 00H, 'e', 00H
	DB	'n', 00H, 't', 00H, 00H, 00H			; `string'
CONST	ENDS
;	COMDAT ?__LINE__Var@?1??nk_font_atlas_init_custom@@9@9
_DATA	SEGMENT
?__LINE__Var@?1??nk_font_atlas_init_custom@@9@9 DD 02f3bH ; `nk_font_atlas_init_custom'::`2'::__LINE__Var
_DATA	ENDS
;	COMDAT ?__LINE__Var@?1??nk_font_atlas_init@@9@9
_DATA	SEGMENT
?__LINE__Var@?1??nk_font_atlas_init@@9@9 DD 02f2fH	; `nk_font_atlas_init'::`2'::__LINE__Var
_DATA	ENDS
;	COMDAT ??_C@_1M@PFBJFKGM@?$AAa?$AAt?$AAl?$AAa?$AAs?$AA?$AA@
CONST	SEGMENT
??_C@_1M@PFBJFKGM@?$AAa?$AAt?$AAl?$AAa?$AAs?$AA?$AA@ DB 'a', 00H, 't', 00H
	DB	'l', 00H, 'a', 00H, 's', 00H, 00H, 00H	; `string'
CONST	ENDS
;	COMDAT ?__LINE__Var@?1??nk_font_atlas_init_default@@9@9
_DATA	SEGMENT
?__LINE__Var@?1??nk_font_atlas_init_default@@9@9 DD 02f20H ; `nk_font_atlas_init_default'::`2'::__LINE__Var
_DATA	ENDS
;	COMDAT ??_C@_1DE@IFJFDKGL@?$AAn?$AAk?$AA_?$AA_?$AAd?$AAo?$AAu?$AAt?$AA?5?$AA?$DM?$AA?$DN?$AA?5?$AAo?$AAu?$AAt?$AAp?$AAu?$AAt?$AA?5?$AA?$CL?$AA?5?$AAo?$AAl?$AAe?$AAn?$AA?$AA@
CONST	SEGMENT
??_C@_1DE@IFJFDKGL@?$AAn?$AAk?$AA_?$AA_?$AAd?$AAo?$AAu?$AAt?$AA?5?$AA?$DM?$AA?$DN?$AA?5?$AAo?$AAu?$AAt?$AAp?$AAu?$AAt?$AA?5?$AA?$CL?$AA?5?$AAo?$AAl?$AAe?$AAn?$AA?$AA@ DB 'n'
	DB	00H, 'k', 00H, '_', 00H, '_', 00H, 'd', 00H, 'o', 00H, 'u', 00H
	DB	't', 00H, ' ', 00H, '<', 00H, '=', 00H, ' ', 00H, 'o', 00H, 'u'
	DB	00H, 't', 00H, 'p', 00H, 'u', 00H, 't', 00H, ' ', 00H, '+', 00H
	DB	' ', 00H, 'o', 00H, 'l', 00H, 'e', 00H, 'n', 00H, 00H, 00H ; `string'
CONST	ENDS
;	COMDAT ??_C@_1DE@KBBHGLFN@?$AAn?$AAk?$AA_?$AA_?$AAd?$AAo?$AAu?$AAt?$AA?5?$AA?$DN?$AA?$DN?$AA?5?$AAo?$AAu?$AAt?$AAp?$AAu?$AAt?$AA?5?$AA?$CL?$AA?5?$AAo?$AAl?$AAe?$AAn?$AA?$AA@
CONST	SEGMENT
??_C@_1DE@KBBHGLFN@?$AAn?$AAk?$AA_?$AA_?$AAd?$AAo?$AAu?$AAt?$AA?5?$AA?$DN?$AA?$DN?$AA?5?$AAo?$AAu?$AAt?$AAp?$AAu?$AAt?$AA?5?$AA?$CL?$AA?5?$AAo?$AAl?$AAe?$AAn?$AA?$AA@ DB 'n'
	DB	00H, 'k', 00H, '_', 00H, '_', 00H, 'd', 00H, 'o', 00H, 'u', 00H
	DB	't', 00H, ' ', 00H, '=', 00H, '=', 00H, ' ', 00H, 'o', 00H, 'u'
	DB	00H, 't', 00H, 'p', 00H, 'u', 00H, 't', 00H, ' ', 00H, '+', 00H
	DB	' ', 00H, 'o', 00H, 'l', 00H, 'e', 00H, 'n', 00H, 00H, 00H ; `string'
CONST	ENDS
;	COMDAT ?__LINE__Var@?1??nk_decompress@@9@9@ddf8d5d8
_DATA	SEGMENT
?__LINE__Var@?1??nk_decompress@@9@9@ddf8d5d8 DD 02ec7H	; `nk_decompress'::`2'::__LINE__Var
_DATA	ENDS
;	COMDAT ?__LINE__Var@?1??nk__lit@@9@9@ddf8d5d8
_DATA	SEGMENT
?__LINE__Var@?1??nk__lit@@9@9@ddf8d5d8 DD 02e88H	; `nk__lit'::`2'::__LINE__Var
_DATA	ENDS
;	COMDAT ??_C@_1EC@MLCFIANA@?$AAn?$AAk?$AA_?$AA_?$AAd?$AAo?$AAu?$AAt?$AA?5?$AA?$CL?$AA?5?$AAl?$AAe?$AAn?$AAg?$AAt?$AAh?$AA?5?$AA?$DM?$AA?$DN?$AA?5?$AAn?$AAk?$AA_?$AA_?$AAb?$AAa?$AAr?$AAr?$AAi?$AAe?$AAr@
CONST	SEGMENT
??_C@_1EC@MLCFIANA@?$AAn?$AAk?$AA_?$AA_?$AAd?$AAo?$AAu?$AAt?$AA?5?$AA?$CL?$AA?5?$AAl?$AAe?$AAn?$AAg?$AAt?$AAh?$AA?5?$AA?$DM?$AA?$DN?$AA?5?$AAn?$AAk?$AA_?$AA_?$AAb?$AAa?$AAr?$AAr?$AAi?$AAe?$AAr@ DB 'n'
	DB	00H, 'k', 00H, '_', 00H, '_', 00H, 'd', 00H, 'o', 00H, 'u', 00H
	DB	't', 00H, ' ', 00H, '+', 00H, ' ', 00H, 'l', 00H, 'e', 00H, 'n'
	DB	00H, 'g', 00H, 't', 00H, 'h', 00H, ' ', 00H, '<', 00H, '=', 00H
	DB	' ', 00H, 'n', 00H, 'k', 00H, '_', 00H, '_', 00H, 'b', 00H, 'a'
	DB	00H, 'r', 00H, 'r', 00H, 'i', 00H, 'e', 00H, 'r', 00H, 00H, 00H ; `string'
CONST	ENDS
;	COMDAT ?__LINE__Var@?1??nk__match@@9@9@ddf8d5d8
_DATA	SEGMENT
?__LINE__Var@?1??nk__match@@9@9@ddf8d5d8 DD 02e7eH	; `nk__match'::`2'::__LINE__Var
_DATA	ENDS
;	COMDAT ??_C@_1BG@PADPEMOB@?$AAb?$AAa?$AAk?$AAe?$AAd?$AA_?$AAf?$AAo?$AAn?$AAt?$AA?$AA@
CONST	SEGMENT
??_C@_1BG@PADPEMOB@?$AAb?$AAa?$AAk?$AAe?$AAd?$AA_?$AAf?$AAo?$AAn?$AAt?$AA?$AA@ DB 'b'
	DB	00H, 'a', 00H, 'k', 00H, 'e', 00H, 'd', 00H, '_', 00H, 'f', 00H
	DB	'o', 00H, 'n', 00H, 't', 00H, 00H, 00H	; `string'
CONST	ENDS
;	COMDAT ??_C@_1O@NBCNDPNP@?$AAg?$AAl?$AAy?$AAp?$AAh?$AAs?$AA?$AA@
CONST	SEGMENT
??_C@_1O@NBCNDPNP@?$AAg?$AAl?$AAy?$AAp?$AAh?$AAs?$AA?$AA@ DB 'g', 00H, 'l'
	DB	00H, 'y', 00H, 'p', 00H, 'h', 00H, 's', 00H, 00H, 00H ; `string'
CONST	ENDS
;	COMDAT ?__LINE__Var@?1??nk_font_init@@9@9@ddf8d5d8
_DATA	SEGMENT
?__LINE__Var@?1??nk_font_init@@9@9@ddf8d5d8 DD 02dc2H	; `nk_font_init'::`2'::__LINE__Var
_DATA	ENDS
;	COMDAT ??_C@_1CE@EGBHPFHC@?$AAf?$AAo?$AAn?$AAt?$AA?9?$AA?$DO?$AAi?$AAn?$AAf?$AAo?$AA?4?$AAr?$AAa?$AAn?$AAg?$AAe?$AAs?$AA?$AA@
CONST	SEGMENT
??_C@_1CE@EGBHPFHC@?$AAf?$AAo?$AAn?$AAt?$AA?9?$AA?$DO?$AAi?$AAn?$AAf?$AAo?$AA?4?$AAr?$AAa?$AAn?$AAg?$AAe?$AAs?$AA?$AA@ DB 'f'
	DB	00H, 'o', 00H, 'n', 00H, 't', 00H, '-', 00H, '>', 00H, 'i', 00H
	DB	'n', 00H, 'f', 00H, 'o', 00H, '.', 00H, 'r', 00H, 'a', 00H, 'n'
	DB	00H, 'g', 00H, 'e', 00H, 's', 00H, 00H, 00H	; `string'
CONST	ENDS
;	COMDAT ?__LINE__Var@?1??nk_font_find_glyph@@9@9
_DATA	SEGMENT
?__LINE__Var@?1??nk_font_find_glyph@@9@9 DD 02da6H	; `nk_font_find_glyph'::`2'::__LINE__Var
_DATA	ENDS
;	COMDAT ??_C@_1M@FFJEAAHP@?$AAg?$AAl?$AAy?$AAp?$AAh?$AA?$AA@
CONST	SEGMENT
??_C@_1M@FFJEAAHP@?$AAg?$AAl?$AAy?$AAp?$AAh?$AA?$AA@ DB 'g', 00H, 'l', 00H
	DB	'y', 00H, 'p', 00H, 'h', 00H, 00H, 00H	; `string'
CONST	ENDS
;	COMDAT ?__LINE__Var@?1??nk_font_query_font_glyph@@9@9@ddf8d5d8
_DATA	SEGMENT
?__LINE__Var@?1??nk_font_query_font_glyph@@9@9@ddf8d5d8 DD 02d8bH ; `nk_font_query_font_glyph'::`2'::__LINE__Var
_DATA	ENDS
;	COMDAT ??_C@_1BK@JHIPEEHJ@?$AAf?$AAo?$AAn?$AAt?$AA?9?$AA?$DO?$AAg?$AAl?$AAy?$AAp?$AAh?$AAs?$AA?$AA@
CONST	SEGMENT
??_C@_1BK@JHIPEEHJ@?$AAf?$AAo?$AAn?$AAt?$AA?9?$AA?$DO?$AAg?$AAl?$AAy?$AAp?$AAh?$AAs?$AA?$AA@ DB 'f'
	DB	00H, 'o', 00H, 'n', 00H, 't', 00H, '-', 00H, '>', 00H, 'g', 00H
	DB	'l', 00H, 'y', 00H, 'p', 00H, 'h', 00H, 's', 00H, 00H, 00H ; `string'
CONST	ENDS
;	COMDAT ?__LINE__Var@?1??nk_font_text_width@@9@9@ddf8d5d8
_DATA	SEGMENT
?__LINE__Var@?1??nk_font_text_width@@9@9@ddf8d5d8 DD 02d68H ; `nk_font_text_width'::`2'::__LINE__Var
_DATA	ENDS
;	COMDAT ??_C@_1BE@GJBOJGHN@?$AAi?$AAn?$AA_?$AAm?$AAe?$AAm?$AAo?$AAr?$AAy?$AA?$AA@
CONST	SEGMENT
??_C@_1BE@GJBOJGHN@?$AAi?$AAn?$AA_?$AAm?$AAe?$AAm?$AAo?$AAr?$AAy?$AA?$AA@ DB 'i'
	DB	00H, 'n', 00H, '_', 00H, 'm', 00H, 'e', 00H, 'm', 00H, 'o', 00H
	DB	'r', 00H, 'y', 00H, 00H, 00H			; `string'
CONST	ENDS
;	COMDAT ??_C@_1BG@FPHPBKAN@?$AAo?$AAu?$AAt?$AA_?$AAm?$AAe?$AAm?$AAo?$AAr?$AAy?$AA?$AA@
CONST	SEGMENT
??_C@_1BG@FPHPBKAN@?$AAo?$AAu?$AAt?$AA_?$AAm?$AAe?$AAm?$AAo?$AAr?$AAy?$AA?$AA@ DB 'o'
	DB	00H, 'u', 00H, 't', 00H, '_', 00H, 'm', 00H, 'e', 00H, 'm', 00H
	DB	'o', 00H, 'r', 00H, 'y', 00H, 00H, 00H	; `string'
CONST	ENDS
;	COMDAT ?__LINE__Var@?1??nk_font_bake_convert@@9@9@ddf8d5d8
_DATA	SEGMENT
?__LINE__Var@?1??nk_font_bake_convert@@9@9@ddf8d5d8 DD 02d50H ; `nk_font_bake_convert'::`2'::__LINE__Var
_DATA	ENDS
;	COMDAT ??_C@_1CE@JMKMBGAG@?$AAt?$AAe?$AAx?$AAt?$AAu?$AAr?$AAe?$AA_?$AAd?$AAa?$AAt?$AAa?$AA_?$AAm?$AAa?$AAs?$AAk?$AA?$AA@
CONST	SEGMENT
??_C@_1CE@JMKMBGAG@?$AAt?$AAe?$AAx?$AAt?$AAu?$AAr?$AAe?$AA_?$AAd?$AAa?$AAt?$AAa?$AA_?$AAm?$AAa?$AAs?$AAk?$AA?$AA@ DB 't'
	DB	00H, 'e', 00H, 'x', 00H, 't', 00H, 'u', 00H, 'r', 00H, 'e', 00H
	DB	'_', 00H, 'd', 00H, 'a', 00H, 't', 00H, 'a', 00H, '_', 00H, 'm'
	DB	00H, 'a', 00H, 's', 00H, 'k', 00H, 00H, 00H	; `string'
CONST	ENDS
;	COMDAT ??_C@_1BG@JKDMJAOC@?$AAi?$AAm?$AAg?$AA_?$AAh?$AAe?$AAi?$AAg?$AAh?$AAt?$AA?$AA@
CONST	SEGMENT
??_C@_1BG@JKDMJAOC@?$AAi?$AAm?$AAg?$AA_?$AAh?$AAe?$AAi?$AAg?$AAh?$AAt?$AA?$AA@ DB 'i'
	DB	00H, 'm', 00H, 'g', 00H, '_', 00H, 'h', 00H, 'e', 00H, 'i', 00H
	DB	'g', 00H, 'h', 00H, 't', 00H, 00H, 00H	; `string'
CONST	ENDS
;	COMDAT ??_C@_1BE@MBHFANAC@?$AAi?$AAm?$AAg?$AA_?$AAw?$AAi?$AAd?$AAt?$AAh?$AA?$AA@
CONST	SEGMENT
??_C@_1BE@MBHFANAC@?$AAi?$AAm?$AAg?$AA_?$AAw?$AAi?$AAd?$AAt?$AAh?$AA?$AA@ DB 'i'
	DB	00H, 'm', 00H, 'g', 00H, '_', 00H, 'w', 00H, 'i', 00H, 'd', 00H
	DB	't', 00H, 'h', 00H, 00H, 00H			; `string'
CONST	ENDS
;	COMDAT ??_C@_1BG@JELGLMGA@?$AAi?$AAm?$AAg?$AA_?$AAm?$AAe?$AAm?$AAo?$AAr?$AAy?$AA?$AA@
CONST	SEGMENT
??_C@_1BG@JELGLMGA@?$AAi?$AAm?$AAg?$AA_?$AAm?$AAe?$AAm?$AAo?$AAr?$AAy?$AA?$AA@ DB 'i'
	DB	00H, 'm', 00H, 'g', 00H, '_', 00H, 'm', 00H, 'e', 00H, 'm', 00H
	DB	'o', 00H, 'r', 00H, 'y', 00H, 00H, 00H	; `string'
CONST	ENDS
;	COMDAT ?__LINE__Var@?1??nk_font_bake_custom_data@@9@9@ddf8d5d8
_DATA	SEGMENT
?__LINE__Var@?1??nk_font_bake_custom_data@@9@9@ddf8d5d8 DD 02d34H ; `nk_font_bake_custom_data'::`2'::__LINE__Var
_DATA	ENDS
;	COMDAT ??_C@_1BK@BAMJJACG@?$AAg?$AAl?$AAy?$AAp?$AAh?$AAs?$AA_?$AAc?$AAo?$AAu?$AAn?$AAt?$AA?$AA@
CONST	SEGMENT
??_C@_1BK@BAMJJACG@?$AAg?$AAl?$AAy?$AAp?$AAh?$AAs?$AA_?$AAc?$AAo?$AAu?$AAn?$AAt?$AA?$AA@ DB 'g'
	DB	00H, 'l', 00H, 'y', 00H, 'p', 00H, 'h', 00H, 's', 00H, '_', 00H
	DB	'c', 00H, 'o', 00H, 'u', 00H, 'n', 00H, 't', 00H, 00H, 00H ; `string'
CONST	ENDS
;	COMDAT ??_C@_1BG@PNHAFIJL@?$AAf?$AAo?$AAn?$AAt?$AA_?$AAc?$AAo?$AAu?$AAn?$AAt?$AA?$AA@
CONST	SEGMENT
??_C@_1BG@PNHAFIJL@?$AAf?$AAo?$AAn?$AAt?$AA_?$AAc?$AAo?$AAu?$AAn?$AAt?$AA?$AA@ DB 'f'
	DB	00H, 'o', 00H, 'n', 00H, 't', 00H, '_', 00H, 'c', 00H, 'o', 00H
	DB	'u', 00H, 'n', 00H, 't', 00H, 00H, 00H	; `string'
CONST	ENDS
;	COMDAT ??_C@_1M@GKOIOOFK@?$AAb?$AAa?$AAk?$AAe?$AAr?$AA?$AA@
CONST	SEGMENT
??_C@_1M@GKOIOOFK@?$AAb?$AAa?$AAk?$AAe?$AAr?$AA?$AA@ DB 'b', 00H, 'a', 00H
	DB	'k', 00H, 'e', 00H, 'r', 00H, 00H, 00H	; `string'
CONST	ENDS
;	COMDAT ?__LINE__Var@?1??nk_font_bake@@9@9@ddf8d5d8
_DATA	SEGMENT
?__LINE__Var@?1??nk_font_bake@@9@9@ddf8d5d8 DD 02cc6H	; `nk_font_bake'::`2'::__LINE__Var
_DATA	ENDS
;	COMDAT ??_C@_1DK@MJIDLFCD@?$AAr?$AAa?$AAn?$AAg?$AAe?$AA_?$AAn?$AA?5?$AA?$DN?$AA?$DN?$AA?5?$AAt?$AAo?$AAt?$AAa?$AAl?$AA_?$AAr?$AAa?$AAn?$AAg?$AAe?$AA_?$AAc?$AAo?$AAu?$AAn?$AAt?$AA?$AA@
CONST	SEGMENT
??_C@_1DK@MJIDLFCD@?$AAr?$AAa?$AAn?$AAg?$AAe?$AA_?$AAn?$AA?5?$AA?$DN?$AA?$DN?$AA?5?$AAt?$AAo?$AAt?$AAa?$AAl?$AA_?$AAr?$AAa?$AAn?$AAg?$AAe?$AA_?$AAc?$AAo?$AAu?$AAn?$AAt?$AA?$AA@ DB 'r'
	DB	00H, 'a', 00H, 'n', 00H, 'g', 00H, 'e', 00H, '_', 00H, 'n', 00H
	DB	' ', 00H, '=', 00H, '=', 00H, ' ', 00H, 't', 00H, 'o', 00H, 't'
	DB	00H, 'a', 00H, 'l', 00H, '_', 00H, 'r', 00H, 'a', 00H, 'n', 00H
	DB	'g', 00H, 'e', 00H, '_', 00H, 'c', 00H, 'o', 00H, 'u', 00H, 'n'
	DB	00H, 't', 00H, 00H, 00H			; `string'
CONST	ENDS
;	COMDAT ??_C@_1DI@OBHIIPHI@?$AAc?$AAh?$AAa?$AAr?$AA_?$AAn?$AA?5?$AA?$DN?$AA?$DN?$AA?5?$AAt?$AAo?$AAt?$AAa?$AAl?$AA_?$AAg?$AAl?$AAy?$AAp?$AAh?$AA_?$AAc?$AAo?$AAu?$AAn?$AAt?$AA?$AA@
CONST	SEGMENT
??_C@_1DI@OBHIIPHI@?$AAc?$AAh?$AAa?$AAr?$AA_?$AAn?$AA?5?$AA?$DN?$AA?$DN?$AA?5?$AAt?$AAo?$AAt?$AAa?$AAl?$AA_?$AAg?$AAl?$AAy?$AAp?$AAh?$AA_?$AAc?$AAo?$AAu?$AAn?$AAt?$AA?$AA@ DB 'c'
	DB	00H, 'h', 00H, 'a', 00H, 'r', 00H, '_', 00H, 'n', 00H, ' ', 00H
	DB	'=', 00H, '=', 00H, ' ', 00H, 't', 00H, 'o', 00H, 't', 00H, 'a'
	DB	00H, 'l', 00H, '_', 00H, 'g', 00H, 'l', 00H, 'y', 00H, 'p', 00H
	DB	'h', 00H, '_', 00H, 'c', 00H, 'o', 00H, 'u', 00H, 'n', 00H, 't'
	DB	00H, 00H, 00H				; `string'
CONST	ENDS
;	COMDAT ??_C@_1DI@IJAOEFPO@?$AAr?$AAe?$AAc?$AAt?$AA_?$AAn?$AA?5?$AA?$DN?$AA?$DN?$AA?5?$AAt?$AAo?$AAt?$AAa?$AAl?$AA_?$AAg?$AAl?$AAy?$AAp?$AAh?$AA_?$AAc?$AAo?$AAu?$AAn?$AAt?$AA?$AA@
CONST	SEGMENT
??_C@_1DI@IJAOEFPO@?$AAr?$AAe?$AAc?$AAt?$AA_?$AAn?$AA?5?$AA?$DN?$AA?$DN?$AA?5?$AAt?$AAo?$AAt?$AAa?$AAl?$AA_?$AAg?$AAl?$AAy?$AAp?$AAh?$AA_?$AAc?$AAo?$AAu?$AAn?$AAt?$AA?$AA@ DB 'r'
	DB	00H, 'e', 00H, 'c', 00H, 't', 00H, '_', 00H, 'n', 00H, ' ', 00H
	DB	'=', 00H, '=', 00H, ' ', 00H, 't', 00H, 'o', 00H, 't', 00H, 'a'
	DB	00H, 'l', 00H, '_', 00H, 'g', 00H, 'l', 00H, 'y', 00H, 'p', 00H
	DB	'h', 00H, '_', 00H, 'c', 00H, 'o', 00H, 'u', 00H, 'n', 00H, 't'
	DB	00H, 00H, 00H				; `string'
CONST	ENDS
;	COMDAT ??_C@_1M@MJBJBOIA@?$AAc?$AAo?$AAu?$AAn?$AAt?$AA?$AA@
CONST	SEGMENT
??_C@_1M@MJBJBOIA@?$AAc?$AAo?$AAu?$AAn?$AAt?$AA?$AA@ DB 'c', 00H, 'o', 00H
	DB	'u', 00H, 'n', 00H, 't', 00H, 00H, 00H	; `string'
CONST	ENDS
;	COMDAT ??_C@_1O@NGBHDANL@?$AAh?$AAe?$AAi?$AAg?$AAh?$AAt?$AA?$AA@
CONST	SEGMENT
??_C@_1O@NGBHDANL@?$AAh?$AAe?$AAi?$AAg?$AAh?$AAt?$AA?$AA@ DB 'h', 00H, 'e'
	DB	00H, 'i', 00H, 'g', 00H, 'h', 00H, 't', 00H, 00H, 00H ; `string'
CONST	ENDS
;	COMDAT ??_C@_1M@MDIKEACL@?$AAw?$AAi?$AAd?$AAt?$AAh?$AA?$AA@
CONST	SEGMENT
??_C@_1M@MDIKEACL@?$AAw?$AAi?$AAd?$AAt?$AAh?$AA?$AA@ DB 'w', 00H, 'i', 00H
	DB	'd', 00H, 't', 00H, 'h', 00H, 00H, 00H	; `string'
CONST	ENDS
;	COMDAT ??_C@_1BK@GDOOMBLP@?$AAi?$AAm?$AAa?$AAg?$AAe?$AA_?$AAm?$AAe?$AAm?$AAo?$AAr?$AAy?$AA?$AA@
CONST	SEGMENT
??_C@_1BK@GDOOMBLP@?$AAi?$AAm?$AAa?$AAg?$AAe?$AA_?$AAm?$AAe?$AAm?$AAo?$AAr?$AAy?$AA?$AA@ DB 'i'
	DB	00H, 'm', 00H, 'a', 00H, 'g', 00H, 'e', 00H, '_', 00H, 'm', 00H
	DB	'e', 00H, 'm', 00H, 'o', 00H, 'r', 00H, 'y', 00H, 00H, 00H ; `string'
CONST	ENDS
;	COMDAT ?__LINE__Var@?1??nk_font_bake_pack@@9@9@ddf8d5d8
_DATA	SEGMENT
?__LINE__Var@?1??nk_font_bake_pack@@9@9@ddf8d5d8 DD 02c56H ; `nk_font_bake_pack'::`2'::__LINE__Var
_DATA	ENDS
;	COMDAT ??_C@_1BI@JKPHGKFE@?$AAg?$AAl?$AAy?$AAp?$AAh?$AA_?$AAc?$AAo?$AAu?$AAn?$AAt?$AA?$AA@
CONST	SEGMENT
??_C@_1BI@JKPHGKFE@?$AAg?$AAl?$AAy?$AAp?$AAh?$AA_?$AAc?$AAo?$AAu?$AAn?$AAt?$AA?$AA@ DB 'g'
