; Listing generated by Microsoft (R) Optimizing Compiler Version 18.00.21005.1 

	TITLE	C:\Users\Marcos\Desktop\prj\mGear-1\mGear-1\engine.c
	.686P
	.XMM
	include listing.inc
	.model	flat

INCLUDELIB OLDNAMES

PUBLIC	??_C@_0PM@NPFOCGLD@?$CDversion?5130?6in?5vec3?5Position?$DL?6i@ ; `string'
PUBLIC	??_C@_0BDP@HLHOENOH@?$CDversion?5130?6uniform?5sampler2D?5t@ ; `string'
PUBLIC	??_C@_0NB@HNGLJMAI@?$CDversion?5130?6uniform?5sampler2D?5t@ ; `string'
PUBLIC	??_C@_0BFE@LHCNEGLH@?$CDversion?5130?6uniform?5sampler2D?5t@ ; `string'
PUBLIC	??_C@_0BAB@HLALIPKD@?$CDversion?5130?6uniform?5sampler2D?5t@ ; `string'
PUBLIC	??_C@_0CMF@PHINLJLD@?$CDversion?5130?6in?5vec2?5TexCoord2?$DL?6@ ; `string'
PUBLIC	??_C@_0BD@CBEDEJPH@unknown?5image?5type?$AA@	; `string'
PUBLIC	??_C@_08NOGIMCHF@outofmem?$AA@			; `string'
PUBLIC	??_C@_02JDPG@rb?$AA@				; `string'
PUBLIC	??_C@_0M@JPDHFAGK@can?8t?5fopen?$AA@		; `string'
PUBLIC	??_C@_0BB@FOKGPEKG@bad?5code?5lengths?$AA@	; `string'
PUBLIC	??_C@_0BB@IIMLINA@bad?5huffman?5code?$AA@	; `string'
PUBLIC	??_C@_0BG@PJBJDAGM@can?8t?5merge?5dc?5and?5ac?$AA@ ; `string'
PUBLIC	??_C@_0BA@KLNDOKJD@expected?5marker?$AA@	; `string'
PUBLIC	??_C@_0M@LPHNODCG@bad?5DRI?5len?$AA@		; `string'
PUBLIC	??_C@_0N@BOFJCHAP@bad?5DQT?5type?$AA@		; `string'
PUBLIC	??_C@_0O@CNHKKDIM@bad?5DQT?5table?$AA@		; `string'
PUBLIC	??_C@_0P@JLGKOCGN@bad?5DHT?5header?$AA@		; `string'
PUBLIC	??_C@_0M@CICAFFCH@bad?5COM?5len?$AA@		; `string'
PUBLIC	??_C@_0M@EENLKPDI@bad?5APP?5len?$AA@		; `string'
PUBLIC	??_C@_0P@NNGPHMMK@unknown?5marker?$AA@		; `string'
PUBLIC	??_C@_0BI@DHFJCMBA@bad?5SOS?5component?5count?$AA@ ; `string'
PUBLIC	??_C@_0M@GNEHAHOH@bad?5SOS?5len?$AA@		; `string'
PUBLIC	??_C@_0M@NOCCBFAC@bad?5DC?5huff?$AA@		; `string'
PUBLIC	??_C@_0M@JGMCBLGG@bad?5AC?5huff?$AA@		; `string'
PUBLIC	??_C@_07EEJOMGGP@bad?5SOS?$AA@			; `string'
PUBLIC	??_C@_0M@DOFMJEMP@bad?5SOF?5len?$AA@		; `string'
PUBLIC	??_C@_0L@BCINMEBJ@only?58?9bit?$AA@		; `string'
PUBLIC	??_C@_0BB@LNEGOMA@no?5header?5height?$AA@	; `string'
PUBLIC	??_C@_07BIDACDEF@0?5width?$AA@			; `string'
PUBLIC	??_C@_0BE@DAPHADHL@bad?5component?5count?$AA@	; `string'
PUBLIC	??_C@_05BLPKENEJ@bad?5H?$AA@			; `string'
PUBLIC	??_C@_05MPLLHCJG@bad?5V?$AA@			; `string'
PUBLIC	??_C@_06LJIHDFHI@bad?5TQ?$AA@			; `string'
PUBLIC	??_C@_09OJDLMMBJ@too?5large?$AA@		; `string'
PUBLIC	??_C@_06CLMBLEP@no?5SOI?$AA@			; `string'
PUBLIC	??_C@_06IFCEAHIA@no?5SOF?$AA@			; `string'
PUBLIC	??_C@_0M@EPMOIECP@bad?5DNL?5len?$AA@		; `string'
PUBLIC	??_C@_0P@PNCLKCLJ@bad?5DNL?5height?$AA@		; `string'
PUBLIC	??_C@_0N@KBPNPPBJ@bad?5req_comp?$AA@		; `string'
PUBLIC	??_C@_09EOHLEIKL@bad?5sizes?$AA@		; `string'
PUBLIC	??_C@_0BA@MDNKOBMC@bad?5codelengths?$AA@	; `string'
PUBLIC	??_C@_0BE@IBFIPFO@output?5buffer?5limit?$AA@	; `string'
PUBLIC	??_C@_08DIAPIMGJ@bad?5dist?$AA@			; `string'
PUBLIC	??_C@_0N@IECDHMDI@zlib?5corrupt?$AA@		; `string'
PUBLIC	??_C@_0BB@PIPBCKIA@read?5past?5buffer?$AA@	; `string'
PUBLIC	??_C@_0BA@OBKOPAFL@bad?5zlib?5header?$AA@	; `string'
PUBLIC	??_C@_0P@DOGMHEBI@no?5preset?5dict?$AA@		; `string'
PUBLIC	??_C@_0BA@MCNBDLPD@bad?5compression?$AA@	; `string'
PUBLIC	??_C@_0M@DMDNBACF@bad?5png?5sig?$AA@		; `string'
PUBLIC	??_C@_0BC@BHMPBBMG@not?5enough?5pixels?$AA@	; `string'
PUBLIC	??_C@_0P@FBBCPGMN@invalid?5filter?$AA@		; `string'
PUBLIC	??_C@_0O@KBHBNJOK@multiple?5IHDR?$AA@		; `string'
PUBLIC	??_C@_0N@POJLKMKK@bad?5IHDR?5len?$AA@		; `string'
PUBLIC	??_C@_0BE@EJHIPKNO@1?12?14?18?116?9bit?5only?$AA@ ; `string'
PUBLIC	??_C@_09MBBNGCKB@bad?5ctype?$AA@		; `string'
PUBLIC	??_C@_0BA@MDMBDDFG@bad?5comp?5method?$AA@	; `string'
PUBLIC	??_C@_0BC@GHLIKKMD@bad?5filter?5method?$AA@	; `string'
PUBLIC	??_C@_0BF@JCGDPBAA@bad?5interlace?5method?$AA@	; `string'
PUBLIC	??_C@_0O@FNFBHCOO@0?9pixel?5image?$AA@		; `string'
PUBLIC	??_C@_0P@JEAFOMAF@first?5not?5IHDR?$AA@		; `string'
PUBLIC	??_C@_0N@JCPAJAKB@invalid?5PLTE?$AA@		; `string'
PUBLIC	??_C@_0BA@PCPJHDKJ@tRNS?5after?5IDAT?$AA@	; `string'
PUBLIC	??_C@_0BB@CEDNNLBG@tRNS?5before?5PLTE?$AA@	; `string'
PUBLIC	??_C@_0N@KDLCCKCH@bad?5tRNS?5len?$AA@		; `string'
PUBLIC	??_C@_0BA@ENDPGCHB@tRNS?5with?5alpha?$AA@	; `string'
PUBLIC	??_C@_07CKIELOEH@no?5PLTE?$AA@			; `string'
PUBLIC	??_C@_09MNNCNKEO@outofdata?$AA@			; `string'
PUBLIC	??_C@_07MLPECBNA@no?5IDAT?$AA@			; `string'
PUBLIC	??_C@_07IANEBNLB@not?5BMP?$AA@			; `string'
PUBLIC	??_C@_0M@KHBIBJBG@unknown?5BMP?$AA@		; `string'
PUBLIC	??_C@_07IEJCHBDI@bad?5BMP?$AA@			; `string'
PUBLIC	??_C@_0L@FEJFGKNE@monochrome?$AA@		; `string'
PUBLIC	??_C@_07IMHMNOIB@BMP?5RLE?$AA@			; `string'
PUBLIC	??_C@_07MALOAKCI@invalid?$AA@			; `string'
PUBLIC	??_C@_07JNJHIMGH@bad?5bpp?$AA@			; `string'
PUBLIC	??_C@_09DAEBACAB@bad?5masks?$AA@		; `string'
PUBLIC	??_C@_0L@DMAPJJO@bad?5format?$AA@		; `string'
PUBLIC	??_C@_0M@ILLOCNCO@bad?5palette?$AA@		; `string'
PUBLIC	??_C@_02DPNLHKJD@a?$CL?$AA@			; `string'
PUBLIC	??_C@_09JFHIBJMD@mgear?4log?$AA@		; `string'
PUBLIC	??_C@_1DA@PFAEBODD@?$AAO?$AAp?$AAe?$AAn?$AAi?$AAn?$AAg?$AA?5?$AAl?$AAo?$AAg?$AA?5?$AAf?$AAi?$AAl?$AAe?$AA?5?$AAf?$AAa?$AAi?$AAl?$AAe?$AAd?$AA?$AA@ ; `string'
PUBLIC	??_C@_03OFAPEBGM@?$CFs?6?$AA@			; `string'
PUBLIC	??_C@_01NOFIACDB@w?$AA@				; `string'
PUBLIC	??_C@_1CE@CDPPCMAP@?$AAC?$AAr?$AAe?$AAa?$AAt?$AAe?$AA?5?$AAl?$AAo?$AAg?$AA?5?$AAf?$AAa?$AAi?$AAl?$AAe?$AAd?$AA?$AA@ ; `string'
PUBLIC	??_C@_08PJPFOJIA@?$CFs?5?$CF?42f?6?$AA@		; `string'
PUBLIC	??_C@_0BA@BIGBPAJK@Engine?5started?6?$AA@	; `string'
PUBLIC	??_C@_0N@JPOOLMEG@Log?5created?6?$AA@		; `string'
PUBLIC	??_C@_0N@NDCMMGFF@?$CFs?5fps?3?5?$CF?42f?$AA@	; `string'
PUBLIC	??_C@_05PDOBBJNA@Color?$AA@			; `string'
PUBLIC	??_C@_08GCJNLIKG@Position?$AA@			; `string'
PUBLIC	??_C@_08NGMLKGCO@TexCoord?$AA@			; `string'
PUBLIC	??_C@_08DGBKPNED@TexLight?$AA@			; `string'
PUBLIC	??_C@_0BM@HCNBMJIE@SDL?5Initilization?5failed?5?$CFs?$AA@ ; `string'
PUBLIC	??_C@_0BD@DNBPCBJE@SDL?52?40?5initialzed?$AA@	; `string'
PUBLIC	??_C@_0CG@LLIBEPGC@Error?5while?5initializing?5SDL?5TTF@ ; `string'
PUBLIC	??_C@_0BE@MBBIJNFJ@SDL?5TTF?5initialized?$AA@	; `string'
PUBLIC	??_C@_0DJ@GHPNMNEC@Error?5setting?5fullscreen?5video?5m@ ; `string'
PUBLIC	??_C@_0DG@HINKMIAE@Error?5setting?5widowed?5video?5mode@ ; `string'
PUBLIC	??_C@_0CB@CJINDJOG@Window?5created?0?5?$CFd?5x?5?$CFd?0?5?$CFd?5bits@ ; `string'
PUBLIC	??_C@_0BL@JKBAOCCM@Error?5setting?5renderer?3?5?$CFs?$AA@ ; `string'
PUBLIC	??_C@_0BH@PJDJGOFF@Opengl?5context?5created?$AA@ ; `string'
PUBLIC	??_C@_0BL@PNJKGHIL@GL_ARB_vertex_array_object?$AA@ ; `string'
PUBLIC	??_C@_0FD@HGLPPOCA@VAO?5not?5supported?0?5check?5your?5vi@ ; `string'
PUBLIC	??_C@_0BD@HLIFEONF@GL_EXT_framebuffer?$AA@	; `string'
PUBLIC	??_C@_0DP@GKIFJBKD@Your?5video?5card?5is?5not?5adequate?5@ ; `string'
PUBLIC	??_C@_0O@BNBOBIPB@Shader?5?$CFd?3?5?$CFs?$AA@	; `string'
PUBLIC	??_C@_0BK@JJHKDBGE@Counld?5not?5compile?5shader?$AA@ ; `string'
PUBLIC	??_C@_04DBNNPNIH@texu?$AA@			; `string'
PUBLIC	??_C@_05JOJNJPAP@texu2?$AA@			; `string'
PUBLIC	??_C@_05IHIGKOEO@texu3?$AA@			; `string'
PUBLIC	??_C@_06IKLLLDHL@normal?$AA@			; `string'
PUBLIC	??_C@_0L@GLKJCCIE@light_type?$AA@		; `string'
PUBLIC	??_C@_0BD@MFHDJABA@Opengl?5initialized?$AA@	; `string'
PUBLIC	??_C@_0CA@IICOLDCN@GL_ARB_texture_non_power_of_two?$AA@ ; `string'
PUBLIC	??_C@_0GF@JPJDLJAN@Non?5power?5of?5two?5textures?5not?5su@ ; `string'
PUBLIC	??_C@_0BJ@NKHMPMDJ@GL_ARB_texture_rectangle?$AA@ ; `string'
PUBLIC	??_C@_0BI@KIAKBMLM@GL_NV_texture_rectangle?$AA@	; `string'
PUBLIC	??_C@_0FP@HOKOFLMI@Rectangle?5textures?5not?5supported@ ; `string'
PUBLIC	??_C@_0BC@DHDBMALK@Input?5initialized?$AA@	; `string'
PUBLIC	??_C@_0CC@HAGAANID@Error?5while?5opening?5TTF?5font?5?3?5?$CF@ ; `string'
PUBLIC	??_C@_0BA@NDONFOIB@Video?5restarted?$AA@	; `string'
PUBLIC	??_C@_0DH@KKJPEJIP@Error?5setting?5windowed?5video?5mod@ ; `string'
PUBLIC	??_C@_0BK@MKEONLB@Window?5resized?5to?5?$CFd?5x?5?$CFd?$AA@ ; `string'
PUBLIC	??_C@_0BK@JNFOJKPO@Error?5reading?5MGG?5file?5?$CFs?$AA@ ; `string'
PUBLIC	??_C@_0BD@IGEJGLBO@MGG?5File?5Version?51?$AA@	; `string'
PUBLIC	??_C@_0BL@HGJNDNHB@Invalid?5MGG?5file?5header?5?$CFs?$AA@ ; `string'
PUBLIC	??_C@_0BE@GOCIOEKA@Invalid?5MGG?5file?5?$CFs?$AA@ ; `string'
PUBLIC	??_C@_0BJ@MDEIDPPP@Invalid?5MGG?5file?5info?5?$CFs?$AA@ ; `string'
PUBLIC	??_C@_0DJ@PPPGBEPE@Error?5allocating?5memory?5for?5text@ ; `string'
PUBLIC	??_C@_0CC@PLAHMHNO@Error?5loading?5texture?5from?5memor@ ; `string'
PUBLIC	??_C@_0EI@OCDBEPGI@Error?5allocating?5memory?5for?5norm@ ; `string'
PUBLIC	??_C@_0DB@EBPLCLOB@Error?5loading?5normal?5mapping?5tex@ ; `string'
PUBLIC	??_C@_0DG@BNCAOHGG@Error?5could?5not?5allocate?5memory?5@ ; `string'
PUBLIC	??_C@_0CH@GLOGGAHF@Warning?3?5max?5number?5os?5strings?5r@ ; `string'
PUBLIC	??_C@_01CLKCMJKC@?5?$AA@			; `string'
PUBLIC	_vbdt_num
PUBLIC	_texone_num
EXTRN	__imp__SDL_FreeSurface:PROC
EXTRN	__imp__SDL_Quit:PROC
EXTRN	__imp__TTF_Quit:PROC
EXTRN	__imp__glLoadIdentity@0:PROC
EXTRN	__GLEE_VERSION_3_0:BYTE
EXTRN	_GLeeFuncPtr_glDrawBuffers:DWORD
EXTRN	_GLeeFuncPtr_glRenderbufferStorage:DWORD
EXTRN	_exit:PROC
EXTRN	_GLeeFuncPtr_glCreateProgram:DWORD
EXTRN	_GLeeFuncPtr_glGenerateMipmap:DWORD
EXTRN	__imp__glGenTextures@8:PROC
EXTRN	_fclose:PROC
EXTRN	_GLeeFuncPtr_glBufferSubData:DWORD
EXTRN	_GLeeFuncPtr_glGetShaderiv:DWORD
EXTRN	__imp__SDL_SetWindowTitle:PROC
EXTRN	_fseek:PROC
EXTRN	__imp__glEnable@4:PROC
EXTRN	__imp__SDL_GL_SetAttribute:PROC
EXTRN	_realloc:PROC
EXTRN	_GLeeFuncPtr_glFramebufferRenderbuffer:DWORD
EXTRN	__imp__SDL_GetError:PROC
EXTRN	_ftell:PROC
EXTRN	__imp__SDL_GetTicks:PROC
EXTRN	_GLeeFuncPtr_glGetProgramiv:DWORD
EXTRN	_GLeeFuncPtr_glDeleteShader:DWORD
EXTRN	__imp__glViewport@16:PROC
EXTRN	__imp__glMatrixMode@4:PROC
EXTRN	_GLeeFuncPtr_glBufferData:DWORD
EXTRN	__imp__TTF_Init:PROC
EXTRN	_GLeeFuncPtr_glCompileShader:DWORD
EXTRN	__imp__glBlendFunc@8:PROC
EXTRN	_GLeeFuncPtr_glUniform1f:DWORD
EXTRN	_GLeeFuncPtr_glGenBuffers:DWORD
EXTRN	__imp__SDL_GetRelativeMouseMode:PROC
EXTRN	_GLeeFuncPtr_glDrawRangeElements:DWORD
EXTRN	_GLeeFuncPtr_glEnableVertexAttribArray:DWORD
EXTRN	__imp__TTF_OpenFont:PROC
EXTRN	_fprintf:PROC
EXTRN	_GLeeFuncPtr_glGenVertexArrays:DWORD
EXTRN	_fread:PROC
EXTRN	__imp__SDL_Log:PROC
EXTRN	__imp__TTF_RenderUTF8_Blended:PROC
EXTRN	_fopen:PROC
EXTRN	__imp__glTexParameteri@12:PROC
EXTRN	_GLeeFuncPtr_glUseProgram:DWORD
EXTRN	__imp__SDL_GL_CreateContext:PROC
EXTRN	__imp__SDL_SetRelativeMouseMode:PROC
EXTRN	_GLeeFuncPtr_glBindRenderbuffer:DWORD
EXTRN	__imp__glGetTexImage@20:PROC
EXTRN	_fopen_s:PROC
EXTRN	_GLeeFuncPtr_glActiveTexture:DWORD
EXTRN	_GLeeFuncPtr_glBindBuffer:DWORD
EXTRN	_GLeeFuncPtr_glGetUniformLocation:DWORD
EXTRN	_GLeeFuncPtr_glUniform1i:DWORD
EXTRN	__imp__glGetString@4:PROC
EXTRN	_GLeeFuncPtr_glGetShaderInfoLog:DWORD
EXTRN	_GLeeEnabled:PROC
EXTRN	_GLeeFuncPtr_glCreateShader:DWORD
EXTRN	__imp__glTexImage2D@36:PROC
EXTRN	_GLeeFuncPtr_glGetAttribLocation:DWORD
EXTRN	_GLeeFuncPtr_glDeleteProgram:DWORD
EXTRN	_GLeeFuncPtr_glDisableVertexAttribArray:DWORD
EXTRN	__imp__glBindTexture@8:PROC
EXTRN	__imp__SDL_CreateWindow:PROC
EXTRN	_GLeeFuncPtr_glShaderSource:DWORD
EXTRN	__imp__glPixelStorei@8:PROC
EXTRN	_GLeeFuncPtr_glDetachShader:DWORD
EXTRN	_GLeeFuncPtr_glLinkProgram:DWORD
EXTRN	_strstr:PROC
EXTRN	_rewind:PROC
EXTRN	_malloc:PROC
EXTRN	_GLeeFuncPtr_glBindVertexArray:DWORD
EXTRN	_calloc:PROC
EXTRN	__imp__glOrtho@48:PROC
EXTRN	__imp__glTexParameterf@12:PROC
EXTRN	_free:PROC
EXTRN	__imp__MessageBoxW@16:PROC
EXTRN	__imp__SDL_LogSetOutputFunction:PROC
EXTRN	__imp__glTexSubImage2D@36:PROC
EXTRN	__imp__SDL_GL_SetSwapInterval:PROC
EXTRN	__imp__SDL_DestroyWindow:PROC
EXTRN	_GLeeFuncPtr_glGenFramebuffers:DWORD
EXTRN	__imp__SDL_Init:PROC
EXTRN	__imp__glClearColor@16:PROC
EXTRN	__imp__glClear@4:PROC
EXTRN	_GLeeFuncPtr_glAttachShader:DWORD
EXTRN	__imp__glDepthFunc@4:PROC
EXTRN	_GLeeFuncPtr_glVertexAttribPointer:DWORD
EXTRN	_feof:PROC
EXTRN	_GLeeFuncPtr_glBindFramebuffer:DWORD
EXTRN	_sprintf:PROC
EXTRN	_GLeeFuncPtr_glGenRenderbuffers:DWORD
EXTRN	_GLeeFuncPtr_glGetProgramInfoLog:DWORD
EXTRN	__imp__glClearDepth@8:PROC
EXTRN	__imp__glDeleteTextures@8:PROC
EXTRN	_GLeeFuncPtr_glFramebufferTexture2D:DWORD
EXTRN	@__security_check_cookie@4:PROC
COMM	_lm:DWORD
COMM	_z_buffer:WORD:01c800H
COMM	_events:BYTE:038H
COMM	_DATA_TEST:DWORD
_stbi__vertically_flip_on_load DD 01H DUP (?)
COMM	_movie:BYTE:03cH
COMM	_z_slot:WORD:039H
_vbdt_num DW	01H DUP (?)
	ALIGN	4

_stbi__unpremultiply_on_load DD 01H DUP (?)
COMM	_mgg_map:BYTE:0f00H
COMM	_game_lights:BYTE:0280H
COMM	_lmp:BYTE:08400H
COMM	_wn:DWORD
_stbi__de_iphone_flag DD 01H DUP (?)
COMM	_mgg_sys:BYTE:0b4H
COMM	_texone_ids:WORD:0800H
COMM	_st:BYTE:0328140H
COMM	_mgg_game:BYTE:01e00H
COMM	_vbd:BYTE:040H
?tesg@?1??Renderer@@9@9 DD 01H DUP (?)			; `Renderer'::`2'::tesg
COMM	_DataNT:DWORD
COMM	_DataN:DWORD
COMM	_z_used:BYTE
COMM	_ent:BYTE:084000H
_texone_num DW	01H DUP (?)
COMM	_vbdt:DWORD
_DATA	ENDS
_Texture_VShader DD FLAT:??_C@_0PM@NPFOCGLD@?$CDversion?5130?6in?5vec3?5Position?$DL?6i@
	ORG $+252
_TextureNoT_FShader DD FLAT:??_C@_0NB@HNGLJMAI@?$CDversion?5130?6uniform?5sampler2D?5t@
	ORG $+252
_stbi__stdio_callbacks DD FLAT:_stbi__stdio_read
	DD	FLAT:_stbi__stdio_skip
	DD	FLAT:_stbi__stdio_eof
?invalid_chunk@?BO@??stbi__parse_png_file@@9@9 DB 'XXXX PNG chunk not kno'
	DB	'wn', 00H					; `stbi__parse_png_file'::`30'::invalid_chunk
	ORG $+3
_Texture_FShader DD FLAT:??_C@_0BDP@HLHOENOH@?$CDversion?5130?6uniform?5sampler2D?5t@
	ORG $+252
_Blend_FShader DD FLAT:??_C@_0BAB@HLALIPKD@?$CDversion?5130?6uniform?5sampler2D?5t@
	ORG $+252
_TextureT_FShader DD FLAT:??_C@_0BFE@LHCNEGLH@?$CDversion?5130?6uniform?5sampler2D?5t@
	ORG $+252
_Lightmap_FShader DD FLAT:??_C@_0CMF@PHINLJLD@?$CDversion?5130?6in?5vec2?5TexCoord2?$DL?6@
	ORG $+508
_stbi__zlength_base DD 03H
	DD	04H
	DD	05H
	DD	06H
	DD	07H
	DD	08H
	DD	09H
	DD	0aH
	DD	0bH
	DD	0dH
	DD	0fH
	DD	011H
	DD	013H
	DD	017H
	DD	01bH
	DD	01fH
	DD	023H
	DD	02bH
	DD	033H
	DD	03bH
	DD	043H
	DD	053H
	DD	063H
	DD	073H
	DD	083H
	DD	0a3H
	DD	0c3H
	DD	0e3H
	DD	0102H
	DD	00H
	DD	00H
?length_dezigzag@?1??stbi__compute_huffman_codes@@9@9 DB 010H ; `stbi__compute_huffman_codes'::`2'::length_dezigzag
	DB	011H
	DB	012H
	DB	00H
	DB	08H
	DB	07H
	DB	09H
	DB	06H
	DB	0aH
	DB	05H
	DB	0bH
	DB	04H
	DB	0cH
	DB	03H
	DB	0dH
	DB	02H
	DB	0eH
	DB	01H
	DB	0fH
	ORG $+1
_stbi__zdefault_length DB 08H
	DB	08H
	DB	08H
	DB	08H
	DB	08H
	DB	08H
	DB	08H
	DB	08H
	DB	08H
	DB	08H
	DB	08H
	DB	08H
	DB	08H
	DB	08H
	DB	08H
	DB	08H
	DB	08H
	DB	08H
	DB	08H
	DB	08H
	DB	08H
	DB	08H
	DB	08H
	DB	08H
	DB	08H
	DB	08H
	DB	08H
	DB	08H
	DB	08H
	DB	08H
	DB	08H
	DB	08H
	DB	08H
	DB	08H
	DB	08H
	DB	08H
	DB	08H
	DB	08H
	DB	08H
	DB	08H
	DB	08H
	DB	08H
	DB	08H
	DB	08H
	DB	08H
	DB	08H
	DB	08H
	DB	08H
	DB	08H
	DB	08H
	DB	08H
	DB	08H
	DB	08H
	DB	08H
	DB	08H
	DB	08H
	DB	08H
	DB	08H
	DB	08H
	DB	08H
	DB	08H
	DB	08H
	DB	08H
	DB	08H
	DB	08H
	DB	08H
	DB	08H
	DB	08H
	DB	08H
	DB	08H
	DB	08H
	DB	08H
	DB	08H
	DB	08H
	DB	08H
	DB	08H
	DB	08H
	DB	08H
	DB	08H
	DB	08H
	DB	08H
	DB	08H
	DB	08H
	DB	08H
	DB	08H
	DB	08H
	DB	08H
	DB	08H
	DB	08H
	DB	08H
	DB	08H
	DB	08H
	DB	08H
	DB	08H
	DB	08H
	DB	08H
	DB	08H
	DB	08H
	DB	08H
	DB	08H
	DB	08H
	DB	08H
	DB	08H
	DB	08H
	DB	08H
	DB	08H
	DB	08H
	DB	08H
	DB	08H
	DB	08H
	DB	08H
	DB	08H
	DB	08H
	DB	08H
	DB	08H
	DB	08H
	DB	08H
	DB	08H
	DB	08H
	DB	08H
	DB	08H
	DB	08H
	DB	08H
	DB	08H
	DB	08H
	DB	08H
	DB	08H
	DB	08H
	DB	08H
	DB	08H
	DB	08H
	DB	08H
	DB	08H
	DB	08H
	DB	08H
	DB	08H
	DB	08H
	DB	08H
	DB	08H
	DB	08H
	DB	08H
	DB	08H
	DB	08H
	DB	08H
	DB	09H
	DB	09H
	DB	09H
	DB	09H
	DB	09H
	DB	09H
	DB	09H
	DB	09H
	DB	09H
	DB	09H
	DB	09H
	DB	09H
	DB	09H
	DB	09H
	DB	09H
	DB	09H
	DB	09H
	DB	09H
	DB	09H
	DB	09H
	DB	09H
	DB	09H
	DB	09H
	DB	09H
	DB	09H
	DB	09H
	DB	09H
	DB	09H
	DB	09H
	DB	09H
	DB	09H
	DB	09H
	DB	09H
	DB	09H
	DB	09H
	DB	09H
	DB	09H
	DB	09H
	DB	09H
	DB	09H
	DB	09H
	DB	09H
	DB	09H
	DB	09H
	DB	09H
	DB	09H
	DB	09H
	DB	09H
	DB	09H
	DB	09H
	DB	09H
	DB	09H
	DB	09H
	DB	09H
	DB	09H
	DB	09H
	DB	09H
	DB	09H
	DB	09H
	DB	09H
	DB	09H
	DB	09H
	DB	09H
	DB	09H
	DB	09H
	DB	09H
	DB	09H
	DB	09H
	DB	09H
	DB	09H
	DB	09H
	DB	09H
	DB	09H
	DB	09H
	DB	09H
	DB	09H
	DB	09H
	DB	09H
	DB	09H
	DB	09H
	DB	09H
	DB	09H
	DB	09H
	DB	09H
	DB	09H
	DB	09H
	DB	09H
	DB	09H
	DB	09H
	DB	09H
	DB	09H
	DB	09H
	DB	09H
	DB	09H
	DB	09H
	DB	09H
	DB	09H
	DB	09H
	DB	09H
	DB	09H
	DB	09H
	DB	09H
	DB	09H
	DB	09H
	DB	09H
	DB	09H
	DB	09H
	DB	09H
	DB	09H
	DB	09H
	DB	09H
	DB	09H
	DB	07H
	DB	07H
	DB	07H
	DB	07H
	DB	07H
	DB	07H
	DB	07H
	DB	07H
	DB	07H
	DB	07H
	DB	07H
	DB	07H
	DB	07H
	DB	07H
	DB	07H
	DB	07H
	DB	07H
	DB	07H
	DB	07H
	DB	07H
	DB	07H
	DB	07H
	DB	07H
	DB	07H
	DB	08H
	DB	08H
	DB	08H
	DB	08H
	DB	08H
	DB	08H
	DB	08H
	DB	08H
_stbi__zdist_base DD 01H
	DD	02H
	DD	03H
	DD	04H
	DD	05H
	DD	07H
	DD	09H
	DD	0dH
	DD	011H
	DD	019H
	DD	021H
	DD	031H
	DD	041H
	DD	061H
	DD	081H
	DD	0c1H
	DD	0101H
	DD	0181H
	DD	0201H
	DD	0301H
	DD	0401H
	DD	0601H
	DD	0801H
	DD	0c01H
	DD	01001H
	DD	01801H
	DD	02001H
	DD	03001H
	DD	04001H
	DD	06001H
	DD	00H
	DD	00H
_stbi__depth_scale_table DB 00H
	DB	0ffH
	DB	055H
	DB	00H
	DB	011H
	DB	00H
	DB	00H
	DB	00H
	DB	01H
	ORG $+3
?png_sig@?1??stbi__check_png_header@@9@9 DB 089H	; `stbi__check_png_header'::`2'::png_sig
	DB	050H
	DB	04eH
	DB	047H
	DB	0dH
	DB	0aH
	DB	01aH
	DB	0aH
?rgb@?5??stbi__process_frame_header@@9@9 DB 052H	; `stbi__process_frame_header'::`6'::rgb
	DB	047H
	DB	042H
	ORG $+1
_stbi__zdist_extra DD 00H
	DD	00H
	DD	00H
	DD	00H
	DD	01H
	DD	01H
	DD	02H
	DD	02H
	DD	03H
	DD	03H
	DD	04H
	DD	04H
	DD	05H
	DD	05H
	DD	06H
	DD	06H
	DD	07H
	DD	07H
	DD	08H
	DD	08H
	DD	09H
	DD	09H
	DD	0aH
	DD	0aH
	DD	0bH
	DD	0bH
	DD	0cH
	DD	0cH
	DD	0dH
	DD	0dH
	ORG $+8
_stbi__zdefault_distance DB 05H
	DB	05H
	DB	05H
	DB	05H
	DB	05H
	DB	05H
	DB	05H
	DB	05H
	DB	05H
	DB	05H
	DB	05H
	DB	05H
	DB	05H
	DB	05H
	DB	05H
	DB	05H
	DB	05H
	DB	05H
	DB	05H
	DB	05H
	DB	05H
	DB	05H
	DB	05H
	DB	05H
	DB	05H
	DB	05H
	DB	05H
	DB	05H
	DB	05H
	DB	05H
	DB	05H
	DB	05H
?tag@?O@??stbi__process_marker@@9@9 DB 04aH		; `stbi__process_marker'::`14'::tag
	DB	046H
	DB	049H
	DB	046H
	DB	00H
	ORG $+3
_stbi__jpeg_dezigzag DB 00H
	DB	01H
	DB	08H
	DB	010H
	DB	09H
	DB	02H
	DB	03H
	DB	0aH
	DB	011H
	DB	018H
	DB	020H
	DB	019H
	DB	012H
	DB	0bH
	DB	04H
	DB	05H
	DB	0cH
	DB	013H
	DB	01aH
	DB	021H
	DB	028H
	DB	030H
	DB	029H
	DB	022H
	DB	01bH
	DB	014H
	DB	0dH
	DB	06H
	DB	07H
	DB	0eH
	DB	015H
	DB	01cH
	DB	023H
	DB	02aH
	DB	031H
	DB	038H
	DB	039H
	DB	032H
	DB	02bH
	DB	024H
	DB	01dH
	DB	016H
	DB	0fH
	DB	017H
	DB	01eH
	DB	025H
	DB	02cH
	DB	033H
	DB	03aH
	DB	03bH
	DB	034H
	DB	02dH
	DB	026H
	DB	01fH
	DB	027H
	DB	02eH
	DB	035H
	DB	03cH
	DB	03dH
	DB	036H
	DB	02fH
	DB	037H
	DB	03eH
	DB	03fH
	DB	03fH
	DB	03fH
	DB	03fH
	DB	03fH
	DB	03fH
	DB	03fH
	DB	03fH
	DB	03fH
	DB	03fH
	DB	03fH
	DB	03fH
	DB	03fH
	DB	03fH
	DB	03fH
	DB	03fH
	ORG $+1
_stbi__zlength_extra DD 00H
	DD	00H
	DD	00H
	DD	00H
	DD	00H
	DD	00H
	DD	00H
	DD	00H
	DD	01H
	DD	01H
	DD	01H
	DD	01H
	DD	02H
	DD	02H
	DD	02H
	DD	02H
	DD	03H
	DD	03H
	DD	03H
	DD	03H
	DD	04H
	DD	04H
	DD	04H
	DD	04H
	DD	05H
	DD	05H
	DD	05H
	DD	05H
	DD	00H
	DD	00H
	DD	00H
?tag@?BA@??stbi__process_marker@@9@9 DB 041H		; `stbi__process_marker'::`16'::tag
	DB	064H
	DB	06fH
	DB	062H
	DB	065H
	DB	00H
	ORG $+2
_first_row_filter DB 00H
	DB	01H
	DB	00H
	DB	05H
	DB	06H
CONST	ENDS
;	COMDAT ??_C@_01CLKCMJKC@?5?$AA@
CONST	SEGMENT
??_C@_01CLKCMJKC@?5?$AA@ DB ' ', 00H			; `string'
CONST	ENDS
;	COMDAT ??_C@_0CH@GLOGGAHF@Warning?3?5max?5number?5os?5strings?5r@
CONST	SEGMENT
??_C@_0CH@GLOGGAHF@Warning?3?5max?5number?5os?5strings?5r@ DB 'Warning: m'
	DB	'ax number os strings reached', 00H		; `string'
CONST	ENDS
;	COMDAT ??_C@_0DG@BNCAOHGG@Error?5could?5not?5allocate?5memory?5@
CONST	SEGMENT
??_C@_0DG@BNCAOHGG@Error?5could?5not?5allocate?5memory?5@ DB 'Error could'
	DB	' not allocate memory for the Vertex Buffer', 00H ; `string'
CONST	ENDS
;	COMDAT ??_C@_0DB@EBPLCLOB@Error?5loading?5normal?5mapping?5tex@
CONST	SEGMENT
??_C@_0DB@EBPLCLOB@Error?5loading?5normal?5mapping?5tex@ DB 'Error loadin'
	DB	'g normal mapping texture from memory', 00H	; `string'
CONST	ENDS
;	COMDAT ??_C@_0EI@OCDBEPGI@Error?5allocating?5memory?5for?5norm@
CONST	SEGMENT
??_C@_0EI@OCDBEPGI@Error?5allocating?5memory?5for?5norm@ DB 'Error alloca'
	DB	'ting memory for normal mapping texture %d, size %d, file %s', 00H ; `string'
CONST	ENDS
;	COMDAT ??_C@_0CC@PLAHMHNO@Error?5loading?5texture?5from?5memor@
CONST	SEGMENT
??_C@_0CC@PLAHMHNO@Error?5loading?5texture?5from?5memor@ DB 'Error loadin'
	DB	'g texture from memory', 00H			; `string'
CONST	ENDS
;	COMDAT ??_C@_0DJ@PPPGBEPE@Error?5allocating?5memory?5for?5text@
CONST	SEGMENT
??_C@_0DJ@PPPGBEPE@Error?5allocating?5memory?5for?5text@ DB 'Error alloca'
	DB	'ting memory for texture %d, size %d, file %s', 00H ; `string'
CONST	ENDS
;	COMDAT ??_C@_0BJ@MDEIDPPP@Invalid?5MGG?5file?5info?5?$CFs?$AA@
CONST	SEGMENT
??_C@_0BJ@MDEIDPPP@Invalid?5MGG?5file?5info?5?$CFs?$AA@ DB 'Invalid MGG f'
	DB	'ile info %s', 00H				; `string'
CONST	ENDS
;	COMDAT ??_C@_0BE@GOCIOEKA@Invalid?5MGG?5file?5?$CFs?$AA@
CONST	SEGMENT
??_C@_0BE@GOCIOEKA@Invalid?5MGG?5file?5?$CFs?$AA@ DB 'Invalid MGG file %s'
	DB	00H						; `string'
CONST	ENDS
;	COMDAT ??_C@_0BL@HGJNDNHB@Invalid?5MGG?5file?5header?5?$CFs?$AA@
CONST	SEGMENT
??_C@_0BL@HGJNDNHB@Invalid?5MGG?5file?5header?5?$CFs?$AA@ DB 'Invalid MGG'
	DB	' file header %s', 00H			; `string'
CONST	ENDS
;	COMDAT ??_C@_0BD@IGEJGLBO@MGG?5File?5Version?51?$AA@
CONST	SEGMENT
??_C@_0BD@IGEJGLBO@MGG?5File?5Version?51?$AA@ DB 'MGG File Version 1', 00H ; `string'
CONST	ENDS
;	COMDAT ??_C@_0BK@JNFOJKPO@Error?5reading?5MGG?5file?5?$CFs?$AA@
CONST	SEGMENT
??_C@_0BK@JNFOJKPO@Error?5reading?5MGG?5file?5?$CFs?$AA@ DB 'Error readin'
	DB	'g MGG file %s', 00H				; `string'
CONST	ENDS
;	COMDAT ??_C@_0BK@MKEONLB@Window?5resized?5to?5?$CFd?5x?5?$CFd?$AA@
CONST	SEGMENT
??_C@_0BK@MKEONLB@Window?5resized?5to?5?$CFd?5x?5?$CFd?$AA@ DB 'Window re'
	DB	'sized to %d x %d', 00H			; `string'
CONST	ENDS
;	COMDAT ??_C@_0DH@KKJPEJIP@Error?5setting?5windowed?5video?5mod@
CONST	SEGMENT
??_C@_0DH@KKJPEJIP@Error?5setting?5windowed?5video?5mod@ DB 'Error settin'
	DB	'g windowed video mode %d x %d %d bits - %s', 00H ; `string'
CONST	ENDS
;	COMDAT ??_C@_0BA@NDONFOIB@Video?5restarted?$AA@
CONST	SEGMENT
??_C@_0BA@NDONFOIB@Video?5restarted?$AA@ DB 'Video restarted', 00H ; `string'
CONST	ENDS
;	COMDAT ??_C@_0CC@HAGAANID@Error?5while?5opening?5TTF?5font?5?3?5?$CF@
CONST	SEGMENT
??_C@_0CC@HAGAANID@Error?5while?5opening?5TTF?5font?5?3?5?$CF@ DB 'Error '
	DB	'while opening TTF font : %s', 00H		; `string'
CONST	ENDS
;	COMDAT ??_C@_0BC@DHDBMALK@Input?5initialized?$AA@
CONST	SEGMENT
??_C@_0BC@DHDBMALK@Input?5initialized?$AA@ DB 'Input initialized', 00H ; `string'
CONST	ENDS
;	COMDAT ??_C@_0FP@HOKOFLMI@Rectangle?5textures?5not?5supported@
CONST	SEGMENT
??_C@_0FP@HOKOFLMI@Rectangle?5textures?5not?5supported@ DB 'Rectangle tex'
	DB	'tures not supported, your video card is not supported or try '
	DB	'updating your driver', 00H			; `string'
CONST	ENDS
;	COMDAT ??_C@_0BI@KIAKBMLM@GL_NV_texture_rectangle?$AA@
CONST	SEGMENT
??_C@_0BI@KIAKBMLM@GL_NV_texture_rectangle?$AA@ DB 'GL_NV_texture_rectang'
	DB	'le', 00H					; `string'
CONST	ENDS
;	COMDAT ??_C@_0BJ@NKHMPMDJ@GL_ARB_texture_rectangle?$AA@
CONST	SEGMENT
??_C@_0BJ@NKHMPMDJ@GL_ARB_texture_rectangle?$AA@ DB 'GL_ARB_texture_recta'
	DB	'ngle', 00H					; `string'
CONST	ENDS
;	COMDAT ??_C@_0GF@JPJDLJAN@Non?5power?5of?5two?5textures?5not?5su@
CONST	SEGMENT
??_C@_0GF@JPJDLJAN@Non?5power?5of?5two?5textures?5not?5su@ DB 'Non power '
	DB	'of two textures not supported, loading times might increase a'
	DB	'nd video''s fps might decrease', 00H	; `string'
CONST	ENDS
;	COMDAT ??_C@_0CA@IICOLDCN@GL_ARB_texture_non_power_of_two?$AA@
CONST	SEGMENT
??_C@_0CA@IICOLDCN@GL_ARB_texture_non_power_of_two?$AA@ DB 'GL_ARB_textur'
	DB	'e_non_power_of_two', 00H			; `string'
CONST	ENDS
;	COMDAT ??_C@_0BD@MFHDJABA@Opengl?5initialized?$AA@
CONST	SEGMENT
??_C@_0BD@MFHDJABA@Opengl?5initialized?$AA@ DB 'Opengl initialized', 00H ; `string'
CONST	ENDS
;	COMDAT ??_C@_0L@GLKJCCIE@light_type?$AA@
CONST	SEGMENT
??_C@_0L@GLKJCCIE@light_type?$AA@ DB 'light_type', 00H	; `string'
CONST	ENDS
;	COMDAT ??_C@_06IKLLLDHL@normal?$AA@
CONST	SEGMENT
??_C@_06IKLLLDHL@normal?$AA@ DB 'normal', 00H		; `string'
CONST	ENDS
;	COMDAT ??_C@_05IHIGKOEO@texu3?$AA@
CONST	SEGMENT
??_C@_05IHIGKOEO@texu3?$AA@ DB 'texu3', 00H		; `string'
CONST	ENDS
;	COMDAT ??_C@_05JOJNJPAP@texu2?$AA@
CONST	SEGMENT
??_C@_05JOJNJPAP@texu2?$AA@ DB 'texu2', 00H		; `string'
CONST	ENDS
;	COMDAT ??_C@_04DBNNPNIH@texu?$AA@
CONST	SEGMENT
??_C@_04DBNNPNIH@texu?$AA@ DB 'texu', 00H		; `string'
CONST	ENDS
;	COMDAT ??_C@_0BK@JJHKDBGE@Counld?5not?5compile?5shader?$AA@
CONST	SEGMENT
??_C@_0BK@JJHKDBGE@Counld?5not?5compile?5shader?$AA@ DB 'Counld not compi'
	DB	'le shader', 00H				; `string'
CONST	ENDS
;	COMDAT ??_C@_0O@BNBOBIPB@Shader?5?$CFd?3?5?$CFs?$AA@
CONST	SEGMENT
??_C@_0O@BNBOBIPB@Shader?5?$CFd?3?5?$CFs?$AA@ DB 'Shader %d: %s', 00H ; `string'
CONST	ENDS
;	COMDAT ??_C@_0DP@GKIFJBKD@Your?5video?5card?5is?5not?5adequate?5@
CONST	SEGMENT
??_C@_0DP@GKIFJBKD@Your?5video?5card?5is?5not?5adequate?5@ DB 'Your video'
	DB	' card is not adequate to play this game... Goodbye!!', 00H ; `string'
CONST	ENDS
;	COMDAT ??_C@_0BD@HLIFEONF@GL_EXT_framebuffer?$AA@
CONST	SEGMENT
??_C@_0BD@HLIFEONF@GL_EXT_framebuffer?$AA@ DB 'GL_EXT_framebuffer', 00H ; `string'
CONST	ENDS
;	COMDAT ??_C@_0FD@HGLPPOCA@VAO?5not?5supported?0?5check?5your?5vi@
CONST	SEGMENT
??_C@_0FD@HGLPPOCA@VAO?5not?5supported?0?5check?5your?5vi@ DB 'VAO not su'
	DB	'pported, check your video''s card driver for updates... Using'
	DB	' VBO instead', 00H				; `string'
CONST	ENDS
;	COMDAT ??_C@_0BL@PNJKGHIL@GL_ARB_vertex_array_object?$AA@
CONST	SEGMENT
??_C@_0BL@PNJKGHIL@GL_ARB_vertex_array_object?$AA@ DB 'GL_ARB_vertex_arra'
	DB	'y_object', 00H				; `string'
CONST	ENDS
;	COMDAT ??_C@_0BH@PJDJGOFF@Opengl?5context?5created?$AA@
CONST	SEGMENT
??_C@_0BH@PJDJGOFF@Opengl?5context?5created?$AA@ DB 'Opengl context creat'
	DB	'ed', 00H					; `string'
CONST	ENDS
;	COMDAT ??_C@_0BL@JKBAOCCM@Error?5setting?5renderer?3?5?$CFs?$AA@
CONST	SEGMENT
??_C@_0BL@JKBAOCCM@Error?5setting?5renderer?3?5?$CFs?$AA@ DB 'Error setti'
	DB	'ng renderer: %s', 00H			; `string'
CONST	ENDS
;	COMDAT ??_C@_0CB@CJINDJOG@Window?5created?0?5?$CFd?5x?5?$CFd?0?5?$CFd?5bits@
CONST	SEGMENT
??_C@_0CB@CJINDJOG@Window?5created?0?5?$CFd?5x?5?$CFd?0?5?$CFd?5bits@ DB 'W'
	DB	'indow created, %d x %d, %d bits', 00H	; `string'
CONST	ENDS
;	COMDAT ??_C@_0DG@HINKMIAE@Error?5setting?5widowed?5video?5mode@
CONST	SEGMENT
??_C@_0DG@HINKMIAE@Error?5setting?5widowed?5video?5mode@ DB 'Error settin'
	DB	'g widowed video mode %d x %d %d bits - %s', 00H ; `string'
CONST	ENDS
;	COMDAT ??_C@_0DJ@GHPNMNEC@Error?5setting?5fullscreen?5video?5m@
CONST	SEGMENT
??_C@_0DJ@GHPNMNEC@Error?5setting?5fullscreen?5video?5m@ DB 'Error settin'
	DB	'g fullscreen video mode %d x %d %d bits - %s', 00H ; `string'
CONST	ENDS
;	COMDAT ??_C@_0BE@MBBIJNFJ@SDL?5TTF?5initialized?$AA@
CONST	SEGMENT
??_C@_0BE@MBBIJNFJ@SDL?5TTF?5initialized?$AA@ DB 'SDL TTF initialized', 00H ; `string'
CONST	ENDS
;	COMDAT ??_C@_0CG@LLIBEPGC@Error?5while?5initializing?5SDL?5TTF@
CONST	SEGMENT
??_C@_0CG@LLIBEPGC@Error?5while?5initializing?5SDL?5TTF@ DB 'Error while '
	DB	'initializing SDL TTF : %s', 00H		; `string'
CONST	ENDS
;	COMDAT ??_C@_0BD@DNBPCBJE@SDL?52?40?5initialzed?$AA@
CONST	SEGMENT
??_C@_0BD@DNBPCBJE@SDL?52?40?5initialzed?$AA@ DB 'SDL 2.0 initialzed', 00H ; `string'
CONST	ENDS
;	COMDAT ??_C@_0BM@HCNBMJIE@SDL?5Initilization?5failed?5?$CFs?$AA@
CONST	SEGMENT
??_C@_0BM@HCNBMJIE@SDL?5Initilization?5failed?5?$CFs?$AA@ DB 'SDL Initili'
	DB	'zation failed %s', 00H			; `string'
CONST	ENDS
;	COMDAT ??_C@_08DGBKPNED@TexLight?$AA@
CONST	SEGMENT
??_C@_08DGBKPNED@TexLight?$AA@ DB 'TexLight', 00H	; `string'
CONST	ENDS
;	COMDAT ??_C@_08NGMLKGCO@TexCoord?$AA@
CONST	SEGMENT
??_C@_08NGMLKGCO@TexCoord?$AA@ DB 'TexCoord', 00H	; `string'
CONST	ENDS
;	COMDAT ??_C@_08GCJNLIKG@Position?$AA@
CONST	SEGMENT
??_C@_08GCJNLIKG@Position?$AA@ DB 'Position', 00H	; `string'
CONST	ENDS
;	COMDAT ??_C@_05PDOBBJNA@Color?$AA@
CONST	SEGMENT
??_C@_05PDOBBJNA@Color?$AA@ DB 'Color', 00H		; `string'
CONST	ENDS
;	COMDAT ??_C@_0N@NDCMMGFF@?$CFs?5fps?3?5?$CF?42f?$AA@
CONST	SEGMENT
??_C@_0N@NDCMMGFF@?$CFs?5fps?3?5?$CF?42f?$AA@ DB '%s fps: %.2f', 00H ; `string'
CONST	ENDS
;	COMDAT ??_C@_0N@JPOOLMEG@Log?5created?6?$AA@
CONST	SEGMENT
??_C@_0N@JPOOLMEG@Log?5created?6?$AA@ DB 'Log created', 0aH, 00H ; `string'
CONST	ENDS
;	COMDAT ??_C@_0BA@BIGBPAJK@Engine?5started?6?$AA@
CONST	SEGMENT
??_C@_0BA@BIGBPAJK@Engine?5started?6?$AA@ DB 'Engine started', 0aH, 00H ; `string'
CONST	ENDS
;	COMDAT ??_C@_08PJPFOJIA@?$CFs?5?$CF?42f?6?$AA@
CONST	SEGMENT
??_C@_08PJPFOJIA@?$CFs?5?$CF?42f?6?$AA@ DB '%s %.2f', 0aH, 00H ; `string'
CONST	ENDS
;	COMDAT ??_C@_1CE@CDPPCMAP@?$AAC?$AAr?$AAe?$AAa?$AAt?$AAe?$AA?5?$AAl?$AAo?$AAg?$AA?5?$AAf?$AAa?$AAi?$AAl?$AAe?$AAd?$AA?$AA@
CONST	SEGMENT
??_C@_1CE@CDPPCMAP@?$AAC?$AAr?$AAe?$AAa?$AAt?$AAe?$AA?5?$AAl?$AAo?$AAg?$AA?5?$AAf?$AAa?$AAi?$AAl?$AAe?$AAd?$AA?$AA@ DB 'C'
	DB	00H, 'r', 00H, 'e', 00H, 'a', 00H, 't', 00H, 'e', 00H, ' ', 00H
	DB	'l', 00H, 'o', 00H, 'g', 00H, ' ', 00H, 'f', 00H, 'a', 00H, 'i'
	DB	00H, 'l', 00H, 'e', 00H, 'd', 00H, 00H, 00H	; `string'
CONST	ENDS
;	COMDAT ??_C@_01NOFIACDB@w?$AA@
CONST	SEGMENT
??_C@_01NOFIACDB@w?$AA@ DB 'w', 00H			; `string'
CONST	ENDS
;	COMDAT ??_C@_03OFAPEBGM@?$CFs?6?$AA@
CONST	SEGMENT
??_C@_03OFAPEBGM@?$CFs?6?$AA@ DB '%s', 0aH, 00H		; `string'
CONST	ENDS
;	COMDAT ??_C@_1DA@PFAEBODD@?$AAO?$AAp?$AAe?$AAn?$AAi?$AAn?$AAg?$AA?5?$AAl?$AAo?$AAg?$AA?5?$AAf?$AAi?$AAl?$AAe?$AA?5?$AAf?$AAa?$AAi?$AAl?$AAe?$AAd?$AA?$AA@
CONST	SEGMENT
??_C@_1DA@PFAEBODD@?$AAO?$AAp?$AAe?$AAn?$AAi?$AAn?$AAg?$AA?5?$AAl?$AAo?$AAg?$AA?5?$AAf?$AAi?$AAl?$AAe?$AA?5?$AAf?$AAa?$AAi?$AAl?$AAe?$AAd?$AA?$AA@ DB 'O'
	DB	00H, 'p', 00H, 'e', 00H, 'n', 00H, 'i', 00H, 'n', 00H, 'g', 00H
	DB	' ', 00H, 'l', 00H, 'o', 00H, 'g', 00H, ' ', 00H, 'f', 00H, 'i'
	DB	00H, 'l', 00H, 'e', 00H, ' ', 00H, 'f', 00H, 'a', 00H, 'i', 00H
	DB	'l', 00H, 'e', 00H, 'd', 00H, 00H, 00H	; `string'
CONST	ENDS
;	COMDAT ??_C@_09JFHIBJMD@mgear?4log?$AA@
CONST	SEGMENT
??_C@_09JFHIBJMD@mgear?4log?$AA@ DB 'mgear.log', 00H	; `string'
CONST	ENDS
;	COMDAT ??_C@_02DPNLHKJD@a?$CL?$AA@
CONST	SEGMENT
??_C@_02DPNLHKJD@a?$CL?$AA@ DB 'a+', 00H		; `string'
CONST	ENDS
;	COMDAT ??_C@_0M@ILLOCNCO@bad?5palette?$AA@
CONST	SEGMENT
??_C@_0M@ILLOCNCO@bad?5palette?$AA@ DB 'bad palette', 00H ; `string'
CONST	ENDS
;	COMDAT ??_C@_0L@DMAPJJO@bad?5format?$AA@
CONST	SEGMENT
??_C@_0L@DMAPJJO@bad?5format?$AA@ DB 'bad format', 00H	; `string'
CONST	ENDS
;	COMDAT ??_C@_09DAEBACAB@bad?5masks?$AA@
CONST	SEGMENT
??_C@_09DAEBACAB@bad?5masks?$AA@ DB 'bad masks', 00H	; `string'
CONST	ENDS
;	COMDAT ??_C@_07JNJHIMGH@bad?5bpp?$AA@
CONST	SEGMENT
??_C@_07JNJHIMGH@bad?5bpp?$AA@ DB 'bad bpp', 00H	; `string'
CONST	ENDS
;	COMDAT ??_C@_07MALOAKCI@invalid?$AA@
CONST	SEGMENT
??_C@_07MALOAKCI@invalid?$AA@ DB 'invalid', 00H		; `string'
CONST	ENDS
;	COMDAT ??_C@_07IMHMNOIB@BMP?5RLE?$AA@
CONST	SEGMENT
??_C@_07IMHMNOIB@BMP?5RLE?$AA@ DB 'BMP RLE', 00H	; `string'
CONST	ENDS
;	COMDAT ??_C@_0L@FEJFGKNE@monochrome?$AA@
CONST	SEGMENT
??_C@_0L@FEJFGKNE@monochrome?$AA@ DB 'monochrome', 00H	; `string'
CONST	ENDS
;	COMDAT ??_C@_07IEJCHBDI@bad?5BMP?$AA@
CONST	SEGMENT
??_C@_07IEJCHBDI@bad?5BMP?$AA@ DB 'bad BMP', 00H	; `string'
CONST	ENDS
;	COMDAT ??_C@_0M@KHBIBJBG@unknown?5BMP?$AA@
CONST	SEGMENT
??_C@_0M@KHBIBJBG@unknown?5BMP?$AA@ DB 'unknown BMP', 00H ; `string'
CONST	ENDS
;	COMDAT ??_C@_07IANEBNLB@not?5BMP?$AA@
CONST	SEGMENT
??_C@_07IANEBNLB@not?5BMP?$AA@ DB 'not BMP', 00H	; `string'
CONST	ENDS
;	COMDAT ??_C@_07MLPECBNA@no?5IDAT?$AA@
CONST	SEGMENT
??_C@_07MLPECBNA@no?5IDAT?$AA@ DB 'no IDAT', 00H	; `string'
CONST	ENDS
;	COMDAT ??_C@_09MNNCNKEO@outofdata?$AA@
CONST	SEGMENT
??_C@_09MNNCNKEO@outofdata?$AA@ DB 'outofdata', 00H	; `string'
CONST	ENDS
;	COMDAT ??_C@_07CKIELOEH@no?5PLTE?$AA@
CONST	SEGMENT
??_C@_07CKIELOEH@no?5PLTE?$AA@ DB 'no PLTE', 00H	; `string'
CONST	ENDS
;	COMDAT ??_C@_0BA@ENDPGCHB@tRNS?5with?5alpha?$AA@
CONST	SEGMENT
??_C@_0BA@ENDPGCHB@tRNS?5with?5alpha?$AA@ DB 'tRNS with alpha', 00H ; `string'
CONST	ENDS
;	COMDAT ??_C@_0N@KDLCCKCH@bad?5tRNS?5len?$AA@
CONST	SEGMENT
??_C@_0N@KDLCCKCH@bad?5tRNS?5len?$AA@ DB 'bad tRNS len', 00H ; `string'
CONST	ENDS
;	COMDAT ??_C@_0BB@CEDNNLBG@tRNS?5before?5PLTE?$AA@
CONST	SEGMENT
??_C@_0BB@CEDNNLBG@tRNS?5before?5PLTE?$AA@ DB 'tRNS before PLTE', 00H ; `string'
CONST	ENDS
;	COMDAT ??_C@_0BA@PCPJHDKJ@tRNS?5after?5IDAT?$AA@
CONST	SEGMENT
??_C@_0BA@PCPJHDKJ@tRNS?5after?5IDAT?$AA@ DB 'tRNS after IDAT', 00H ; `string'
CONST	ENDS
;	COMDAT ??_C@_0N@JCPAJAKB@invalid?5PLTE?$AA@
CONST	SEGMENT
??_C@_0N@JCPAJAKB@invalid?5PLTE?$AA@ DB 'invalid PLTE', 00H ; `string'
CONST	ENDS
;	COMDAT ??_C@_0P@JEAFOMAF@first?5not?5IHDR?$AA@
CONST	SEGMENT
??_C@_0P@JEAFOMAF@first?5not?5IHDR?$AA@ DB 'first not IHDR', 00H ; `string'
CONST	ENDS
;	COMDAT ??_C@_0O@FNFBHCOO@0?9pixel?5image?$AA@
CONST	SEGMENT
??_C@_0O@FNFBHCOO@0?9pixel?5image?$AA@ DB '0-pixel image', 00H ; `string'
CONST	ENDS
;	COMDAT ??_C@_0BF@JCGDPBAA@bad?5interlace?5method?$AA@
CONST	SEGMENT
??_C@_0BF@JCGDPBAA@bad?5interlace?5method?$AA@ DB 'bad interlace method', 00H ; `string'
CONST	ENDS
;	COMDAT ??_C@_0BC@GHLIKKMD@bad?5filter?5method?$AA@
CONST	SEGMENT
??_C@_0BC@GHLIKKMD@bad?5filter?5method?$AA@ DB 'bad filter method', 00H ; `string'
CONST	ENDS
;	COMDAT ??_C@_0BA@MDMBDDFG@bad?5comp?5method?$AA@
CONST	SEGMENT
??_C@_0BA@MDMBDDFG@bad?5comp?5method?$AA@ DB 'bad comp method', 00H ; `string'
CONST	ENDS
;	COMDAT ??_C@_09MBBNGCKB@bad?5ctype?$AA@
CONST	SEGMENT
??_C@_09MBBNGCKB@bad?5ctype?$AA@ DB 'bad ctype', 00H	; `string'
CONST	ENDS
;	COMDAT ??_C@_0BE@EJHIPKNO@1?12?14?18?116?9bit?5only?$AA@
CONST	SEGMENT
??_C@_0BE@EJHIPKNO@1?12?14?18?116?9bit?5only?$AA@ DB '1/2/4/8/16-bit only'
	DB	00H						; `string'
CONST	ENDS
;	COMDAT ??_C@_0N@POJLKMKK@bad?5IHDR?5len?$AA@
CONST	SEGMENT
??_C@_0N@POJLKMKK@bad?5IHDR?5len?$AA@ DB 'bad IHDR len', 00H ; `string'
CONST	ENDS
;	COMDAT ??_C@_0O@KBHBNJOK@multiple?5IHDR?$AA@
CONST	SEGMENT
??_C@_0O@KBHBNJOK@multiple?5IHDR?$AA@ DB 'multiple IHDR', 00H ; `string'
CONST	ENDS
;	COMDAT ??_C@_0P@FBBCPGMN@invalid?5filter?$AA@
CONST	SEGMENT
??_C@_0P@FBBCPGMN@invalid?5filter?$AA@ DB 'invalid filter', 00H ; `string'
CONST	ENDS
;	COMDAT ??_C@_0BC@BHMPBBMG@not?5enough?5pixels?$AA@
CONST	SEGMENT
??_C@_0BC@BHMPBBMG@not?5enough?5pixels?$AA@ DB 'not enough pixels', 00H ; `string'
CONST	ENDS
;	COMDAT ??_C@_0M@DMDNBACF@bad?5png?5sig?$AA@
CONST	SEGMENT
??_C@_0M@DMDNBACF@bad?5png?5sig?$AA@ DB 'bad png sig', 00H ; `string'
CONST	ENDS
;	COMDAT ??_C@_0BA@MCNBDLPD@bad?5compression?$AA@
CONST	SEGMENT
??_C@_0BA@MCNBDLPD@bad?5compression?$AA@ DB 'bad compression', 00H ; `string'
CONST	ENDS
;	COMDAT ??_C@_0P@DOGMHEBI@no?5preset?5dict?$AA@
CONST	SEGMENT
??_C@_0P@DOGMHEBI@no?5preset?5dict?$AA@ DB 'no preset dict', 00H ; `string'
CONST	ENDS
;	COMDAT ??_C@_0BA@OBKOPAFL@bad?5zlib?5header?$AA@
CONST	SEGMENT
??_C@_0BA@OBKOPAFL@bad?5zlib?5header?$AA@ DB 'bad zlib header', 00H ; `string'
CONST	ENDS
;	COMDAT ??_C@_0BB@PIPBCKIA@read?5past?5buffer?$AA@
CONST	SEGMENT
??_C@_0BB@PIPBCKIA@read?5past?5buffer?$AA@ DB 'read past buffer', 00H ; `string'
CONST	ENDS
;	COMDAT ??_C@_0N@IECDHMDI@zlib?5corrupt?$AA@
CONST	SEGMENT
??_C@_0N@IECDHMDI@zlib?5corrupt?$AA@ DB 'zlib corrupt', 00H ; `string'
CONST	ENDS
;	COMDAT ??_C@_08DIAPIMGJ@bad?5dist?$AA@
CONST	SEGMENT
??_C@_08DIAPIMGJ@bad?5dist?$AA@ DB 'bad dist', 00H	; `string'
CONST	ENDS
;	COMDAT ??_C@_0BE@IBFIPFO@output?5buffer?5limit?$AA@
CONST	SEGMENT
??_C@_0BE@IBFIPFO@output?5buffer?5limit?$AA@ DB 'output buffer limit', 00H ; `string'
CONST	ENDS
;	COMDAT ??_C@_0BA@MDNKOBMC@bad?5codelengths?$AA@
CONST	SEGMENT
??_C@_0BA@MDNKOBMC@bad?5codelengths?$AA@ DB 'bad codelengths', 00H ; `string'
CONST	ENDS
;	COMDAT ??_C@_09EOHLEIKL@bad?5sizes?$AA@
CONST	SEGMENT
??_C@_09EOHLEIKL@bad?5sizes?$AA@ DB 'bad sizes', 00H	; `string'
CONST	ENDS
;	COMDAT ??_C@_0N@KBPNPPBJ@bad?5req_comp?$AA@
CONST	SEGMENT
??_C@_0N@KBPNPPBJ@bad?5req_comp?$AA@ DB 'bad req_comp', 00H ; `string'
CONST	ENDS
;	COMDAT ??_C@_0P@PNCLKCLJ@bad?5DNL?5height?$AA@
CONST	SEGMENT
??_C@_0P@PNCLKCLJ@bad?5DNL?5height?$AA@ DB 'bad DNL height', 00H ; `string'
CONST	ENDS
;	COMDAT ??_C@_0M@EPMOIECP@bad?5DNL?5len?$AA@
CONST	SEGMENT
??_C@_0M@EPMOIECP@bad?5DNL?5len?$AA@ DB 'bad DNL len', 00H ; `string'
CONST	ENDS
;	COMDAT ??_C@_06IFCEAHIA@no?5SOF?$AA@
CONST	SEGMENT
??_C@_06IFCEAHIA@no?5SOF?$AA@ DB 'no SOF', 00H		; `string'
CONST	ENDS
;	COMDAT ??_C@_06CLMBLEP@no?5SOI?$AA@
CONST	SEGMENT
??_C@_06CLMBLEP@no?5SOI?$AA@ DB 'no SOI', 00H		; `string'
CONST	ENDS
;	COMDAT ??_C@_09OJDLMMBJ@too?5large?$AA@
CONST	SEGMENT
??_C@_09OJDLMMBJ@too?5large?$AA@ DB 'too large', 00H	; `string'
CONST	ENDS
;	COMDAT ??_C@_06LJIHDFHI@bad?5TQ?$AA@
CONST	SEGMENT
??_C@_06LJIHDFHI@bad?5TQ?$AA@ DB 'bad TQ', 00H		; `string'
CONST	ENDS
;	COMDAT ??_C@_05MPLLHCJG@bad?5V?$AA@
CONST	SEGMENT
??_C@_05MPLLHCJG@bad?5V?$AA@ DB 'bad V', 00H		; `string'
CONST	ENDS
;	COMDAT ??_C@_05BLPKENEJ@bad?5H?$AA@
CONST	SEGMENT
??_C@_05BLPKENEJ@bad?5H?$AA@ DB 'bad H', 00H		; `string'
CONST	ENDS
;	COMDAT ??_C@_0BE@DAPHADHL@bad?5component?5count?$AA@
CONST	SEGMENT
??_C@_0BE@DAPHADHL@bad?5component?5count?$AA@ DB 'bad component count', 00H ; `string'
CONST	ENDS
;	COMDAT ??_C@_07BIDACDEF@0?5width?$AA@
CONST	SEGMENT
??_C@_07BIDACDEF@0?5width?$AA@ DB '0 width', 00H	; `string'
CONST	ENDS
;	COMDAT ??_C@_0BB@LNEGOMA@no?5header?5height?$AA@
CONST	SEGMENT
??_C@_0BB@LNEGOMA@no?5header?5height?$AA@ DB 'no header height', 00H ; `string'
CONST	ENDS
;	COMDAT ??_C@_0L@BCINMEBJ@only?58?9bit?$AA@
CONST	SEGMENT
??_C@_0L@BCINMEBJ@only?58?9bit?$AA@ DB 'only 8-bit', 00H ; `string'
CONST	ENDS
;	COMDAT ??_C@_0M@DOFMJEMP@bad?5SOF?5len?$AA@
CONST	SEGMENT
??_C@_0M@DOFMJEMP@bad?5SOF?5len?$AA@ DB 'bad SOF len', 00H ; `string'
CONST	ENDS
;	COMDAT ??_C@_07EEJOMGGP@bad?5SOS?$AA@
CONST	SEGMENT
??_C@_07EEJOMGGP@bad?5SOS?$AA@ DB 'bad SOS', 00H	; `string'
CONST	ENDS
;	COMDAT ??_C@_0M@JGMCBLGG@bad?5AC?5huff?$AA@
CONST	SEGMENT
??_C@_0M@JGMCBLGG@bad?5AC?5huff?$AA@ DB 'bad AC huff', 00H ; `string'
CONST	ENDS
;	COMDAT ??_C@_0M@NOCCBFAC@bad?5DC?5huff?$AA@
CONST	SEGMENT
??_C@_0M@NOCCBFAC@bad?5DC?5huff?$AA@ DB 'bad DC huff', 00H ; `string'
CONST	ENDS
;	COMDAT ??_C@_0M@GNEHAHOH@bad?5SOS?5len?$AA@
CONST	SEGMENT
??_C@_0M@GNEHAHOH@bad?5SOS?5len?$AA@ DB 'bad SOS len', 00H ; `string'
CONST	ENDS
;	COMDAT ??_C@_0BI@DHFJCMBA@bad?5SOS?5component?5count?$AA@
CONST	SEGMENT
??_C@_0BI@DHFJCMBA@bad?5SOS?5component?5count?$AA@ DB 'bad SOS component '
	DB	'count', 00H					; `string'
CONST	ENDS
;	COMDAT ??_C@_0P@NNGPHMMK@unknown?5marker?$AA@
CONST	SEGMENT
??_C@_0P@NNGPHMMK@unknown?5marker?$AA@ DB 'unknown marker', 00H ; `string'
CONST	ENDS
;	COMDAT ??_C@_0M@EENLKPDI@bad?5APP?5len?$AA@
CONST	SEGMENT
??_C@_0M@EENLKPDI@bad?5APP?5len?$AA@ DB 'bad APP len', 00H ; `string'
CONST	ENDS
;	COMDAT ??_C@_0M@CICAFFCH@bad?5COM?5len?$AA@
CONST	SEGMENT
??_C@_0M@CICAFFCH@bad?5COM?5len?$AA@ DB 'bad COM len', 00H ; `string'
CONST	ENDS
;	COMDAT ??_C@_0P@JLGKOCGN@bad?5DHT?5header?$AA@
CONST	SEGMENT
??_C@_0P@JLGKOCGN@bad?5DHT?5header?$AA@ DB 'bad DHT header', 00H ; `string'
CONST	ENDS
;	COMDAT ??_C@_0O@CNHKKDIM@bad?5DQT?5table?$AA@
CONST	SEGMENT
??_C@_0O@CNHKKDIM@bad?5DQT?5table?$AA@ DB 'bad DQT table', 00H ; `string'
CONST	ENDS
;	COMDAT ??_C@_0N@BOFJCHAP@bad?5DQT?5type?$AA@
CONST	SEGMENT
??_C@_0N@BOFJCHAP@bad?5DQT?5type?$AA@ DB 'bad DQT type', 00H ; `string'
CONST	ENDS
;	COMDAT ??_C@_0M@LPHNODCG@bad?5DRI?5len?$AA@
CONST	SEGMENT
??_C@_0M@LPHNODCG@bad?5DRI?5len?$AA@ DB 'bad DRI len', 00H ; `string'
CONST	ENDS
;	COMDAT ??_C@_0BA@KLNDOKJD@expected?5marker?$AA@
CONST	SEGMENT
??_C@_0BA@KLNDOKJD@expected?5marker?$AA@ DB 'expected marker', 00H ; `string'
CONST	ENDS
;	COMDAT ??_C@_0BG@PJBJDAGM@can?8t?5merge?5dc?5and?5ac?$AA@
CONST	SEGMENT
??_C@_0BG@PJBJDAGM@can?8t?5merge?5dc?5and?5ac?$AA@ DB 'can''t merge dc an'
	DB	'd ac', 00H					; `string'
CONST	ENDS
;	COMDAT ??_C@_0BB@IIMLINA@bad?5huffman?5code?$AA@
CONST	SEGMENT
??_C@_0BB@IIMLINA@bad?5huffman?5code?$AA@ DB 'bad huffman code', 00H ; `string'
CONST	ENDS
;	COMDAT ??_C@_0BB@FOKGPEKG@bad?5code?5lengths?$AA@
CONST	SEGMENT
??_C@_0BB@FOKGPEKG@bad?5code?5lengths?$AA@ DB 'bad code lengths', 00H ; `string'
CONST	ENDS
;	COMDAT ??_C@_0M@JPDHFAGK@can?8t?5fopen?$AA@
CONST	SEGMENT
??_C@_0M@JPDHFAGK@can?8t?5fopen?$AA@ DB 'can''t fopen', 00H ; `string'
CONST	ENDS
;	COMDAT ??_C@_02JDPG@rb?$AA@
CONST	SEGMENT
??_C@_02JDPG@rb?$AA@ DB 'rb', 00H			; `string'
CONST	ENDS
;	COMDAT ??_C@_08NOGIMCHF@outofmem?$AA@
CONST	SEGMENT
??_C@_08NOGIMCHF@outofmem?$AA@ DB 'outofmem', 00H	; `string'
CONST	ENDS
;	COMDAT ??_C@_0BD@CBEDEJPH@unknown?5image?5type?$AA@
CONST	SEGMENT
??_C@_0BD@CBEDEJPH@unknown?5image?5type?$AA@ DB 'unknown image type', 00H ; `string'
CONST	ENDS
;	COMDAT ??_C@_0CMF@PHINLJLD@?$CDversion?5130?6in?5vec2?5TexCoord2?$DL?6@
CONST	SEGMENT
??_C@_0CMF@PHINLJLD@?$CDversion?5130?6in?5vec2?5TexCoord2?$DL?6@ DB '#ver'
	DB	'sion 130', 0aH, 'in vec2 TexCoord2;', 0aH, 'in vec4 colore;', 0aH
	DB	'in vec2 TexLight2;', 0aH, 'out vec4 FColor;', 0aH, 'uniform s'
	DB	'ampler2D texu;', 0aH, 'uniform sampler2D texu2;', 0aH, 'unifo'
	DB	'rm sampler2D texu3;', 0aH, 'uniform float normal;', 0aH, 'voi'
	DB	'd main()', 0aH, '{', 0aH, 'if(normal == 0.0)', 0aH, 'FColor ='
	DB	' texture(texu, TexCoord2) * colore;', 0aH, 'else', 0aH, 'if(n'
	DB	'ormal == 1.0)', 0aH, '{', 0aH, 'vec4 Lightmap = texture(texu2'
	DB	', TexLight2) * 4.0;', 0aH, 'vec3 L = normalize(Lightmap.rgb);'
	DB	0aH, 'vec3 N = normalize(texture(texu3, TexCoord2).rgb * 2.0 -'
	DB	' 1.0);', 0aH, 'FColor = texture(texu, TexCoord2) * colore * ('
	DB	'Lightmap * max(dot(N, L), 0.0));', 0aH, '}', 0aH, 'else', 0aH
	DB	'if(normal == 2.0)', 0aH, '{', 0aH, 'vec4 Lightmap = texture(t'
	DB	'exu2, TexLight2) * 4.0;', 0aH, 'FColor = texture(texu, TexCoo'
	DB	'rd2) * colore * Lightmap;', 0aH, '}', 0aH, 'else', 0aH, 'if(n'
	DB	'ormal == 3.0)', 0aH, 'FColor = texture(texu, TexCoord2) * col'
	DB	'ore;', 0aH, '}', 0aH, 00H			; `string'
CONST	ENDS
;	COMDAT ??_C@_0BAB@HLALIPKD@?$CDversion?5130?6uniform?5sampler2D?5t@
CONST	SEGMENT
??_C@_0BAB@HLALIPKD@?$CDversion?5130?6uniform?5sampler2D?5t@ DB '#version'
	DB	' 130', 0aH, 'uniform sampler2D texu;', 0aH, 'uniform sampler2'
	DB	'D texu2;', 0aH, 'in vec2 TexCoord2;', 0aH, 'in vec4 colore;', 0aH
	DB	'out vec4 FColor;', 0aH, 'void main()', 0aH, '{', 0aH, 'vec4 D'
	DB	'iffuse = texture(texu, TexCoord2);', 0aH, 'vec4 Alpha = textu'
	DB	're(texu2, TexCoord2);', 0aH, 'FColor = vec4(Alpha.rgb * Diffu'
	DB	'se.rgb,1.0);', 0aH, '};', 0aH, 00H		; `string'
CONST	ENDS
;	COMDAT ??_C@_0BFE@LHCNEGLH@?$CDversion?5130?6uniform?5sampler2D?5t@
CONST	SEGMENT
??_C@_0BFE@LHCNEGLH@?$CDversion?5130?6uniform?5sampler2D?5t@ DB '#version'
	DB	' 130', 0aH, 'uniform sampler2D texu;', 0aH, 'uniform sampler2'
	DB	'D texu2;', 0aH, 'in vec2 TexCoord2;', 0aH, 'in vec4 colore;', 0aH
	DB	'out vec4 FColor;', 0aH, 'void main()', 0aH, '{', 0aH, 'vec4 D'
	DB	'iffuse = texture(texu, TexCoord2) * colore;', 0aH, 'vec4 Bckg'
	DB	' = texture(texu2, TexCoord2);', 0aH, 'if(Diffuse.a == 1.0)', 0aH
	DB	'discard;', 0aH, 'else', 0aH, '{', 0aH, 'FColor = vec4((Diffus'
	DB	'e.a * Diffuse.rgb) + ((1.0 - Diffuse.a) * Bckg.rgb), 1.0);', 0aH
	DB	'}', 0aH, '};', 0aH, 00H			; `string'
CONST	ENDS
;	COMDAT ??_C@_0NB@HNGLJMAI@?$CDversion?5130?6uniform?5sampler2D?5t@
CONST	SEGMENT
??_C@_0NB@HNGLJMAI@?$CDversion?5130?6uniform?5sampler2D?5t@ DB '#version '
	DB	'130', 0aH, 'uniform sampler2D texu;', 0aH, 'in vec2 TexCoord2'
	DB	';', 0aH, 'in vec4 colore;', 0aH, 'out vec4 FColor;', 0aH, 'vo'
	DB	'id main()', 0aH, '{', 0aH, 'vec4 Diffuse = texture(texu, TexC'
	DB	'oord2) * colore;', 0aH, 'if(Diffuse.a < 1.0)', 0aH, 'discard;'
	DB	0aH, 'else', 0aH, 'FColor = Diffuse;', 0aH, '};', 0aH, 00H ; `string'
CONST	ENDS
;	COMDAT ??_C@_0BDP@HLHOENOH@?$CDversion?5130?6uniform?5sampler2D?5t@
CONST	SEGMENT
??_C@_0BDP@HLHOENOH@?$CDversion?5130?6uniform?5sampler2D?5t@ DB '#version'
	DB	' 130', 0aH, 'uniform sampler2D texu;', 0aH, 'uniform int ligh'
	DB	't_type;in vec2 TexCoord2;', 0aH, 'in vec4 colore;', 0aH, 'out'
	DB	' vec4 FColor;', 0aH, 'void main()', 0aH, '{', 0aH, 'if( light'
	DB	'_type == 0)', 0aH, 'FColor = texture(texu, TexCoord2);', 0aH, 'e'
	DB	'lse', 0aH, 'if( light_type == 1)', 0aH, 'FColor = texture(tex'
	DB	'u, TexCoord2) * 2.0;', 0aH, 'else', 0aH, 'if( light_type == 2'
	DB	')', 0aH, 'FColor = texture(texu, TexCoord2) * 4.0;', 0aH, '};'
	DB	00H						; `string'
CONST	ENDS
;	COMDAT ??_C@_0PM@NPFOCGLD@?$CDversion?5130?6in?5vec3?5Position?$DL?6i@
CONST	SEGMENT
??_C@_0PM@NPFOCGLD@?$CDversion?5130?6in?5vec3?5Position?$DL?6i@ DB '#vers'
	DB	'ion 130', 0aH, 'in vec3 Position;', 0aH, 'in vec2 TexCoord;', 0aH
	DB	'in vec4 Color;', 0aH, 'in vec2 TexLight;', 0aH, 'out vec2 Tex'
	DB	'Coord2;', 0aH, 'out vec4 colore;', 0aH, 'out vec2 TexLight2;', 0aH
	DB	'void main()', 0aH, '{', 0aH, 'gl_Position = vec4(Position, 1.'
	DB	'0);', 0aH, 'TexCoord2 = TexCoord;', 0aH, 'colore = Color;', 0aH
	DB	'TexLight2 = TexLight;', 0aH, '};', 0aH, 00H	; `string'
CONST	ENDS
PUBLIC	_Finish
PUBLIC	_Renderer
PUBLIC	_DrawSys
PUBLIC	_DrawString2UI
PUBLIC	_DrawStringUI
PUBLIC	_DrawStringUIv
PUBLIC	_DrawString2
PUBLIC	_DrawLine
PUBLIC	_DrawUI
PUBLIC	_BASICBKD
PUBLIC	_InitMGG
PUBLIC	_LoadMGG
PUBLIC	_CheckMGGInSystem
PUBLIC	_WindowEvents
PUBLIC	_RestartVideo
PUBLIC	_OpenFont
PUBLIC	_Init
PUBLIC	_Quit
PUBLIC	_mSin
PUBLIC	_mCos
PUBLIC	_WTSf
PUBLIC	_FPSCounter
PUBLIC	@SetTimerM@8
PUBLIC	_CreateLog
PUBLIC	_LogIn
PUBLIC	__real@00000000
PUBLIC	__real@0c780258
PUBLIC	__real@296b8c59
PUBLIC	__real@358637bd
PUBLIC	__real@38000000
PUBLIC	__real@38800000
PUBLIC	__real@39000000
PUBLIC	__real@3910f359
PUBLIC	__real@39638e39
PUBLIC	__real@3a000000
PUBLIC	__real@3a800000
PUBLIC	__real@3a81c79e
PUBLIC	__real@3b473a13
PUBLIC	__real@3b808081
PUBLIC	__real@3ba3d70a
PUBLIC	__real@3c23d70a
PUBLIC	__real@3c46b2e5
PUBLIC	__real@3c98e4a6
PUBLIC	__real@3caa6a57
PUBLIC	__real@3cdb0412
PUBLIC	__real@3d1c6f36
PUBLIC	__real@3d4ccccd
PUBLIC	__real@3dcccccd
PUBLIC	__real@3ddb63b9
PUBLIC	__real@3df1f042
PUBLIC	__real@3e0d6486
PUBLIC	__real@3e800000
PUBLIC	__real@3eb33333
PUBLIC	__real@3ec9ec7b
PUBLIC	__real@3f000000
PUBLIC	__real@3f800000
PUBLIC	__real@3f801c6e
PUBLIC	__real@3f804e2f
PUBLIC	__real@3f847ae140000000
PUBLIC	__real@3fc00000
PUBLIC	__real@3ff0000000000000
PUBLIC	__real@40000000
PUBLIC	__real@400921fb53c8d4f1
PUBLIC	__real@40400000
PUBLIC	__real@40490fdb
PUBLIC	__real@404ca5dc1af05a77
PUBLIC	__real@4066800000000000
PUBLIC	__real@40800000
PUBLIC	__real@40c90fdb
PUBLIC	__real@41200000
PUBLIC	__real@41400000
PUBLIC	__real@41500000
PUBLIC	__real@41c80000
PUBLIC	__real@41f00000
PUBLIC	__real@42340000
PUBLIC	__real@42c80000
PUBLIC	__real@42fe0000
PUBLIC	__real@437f0000
PUBLIC	__real@43800000
PUBLIC	__real@43b40ccd
PUBLIC	__real@447a0000
PUBLIC	__real@46100000
PUBLIC	__real@46fffe00
PUBLIC	__real@477fff00
PUBLIC	__real@4f000000
PUBLIC	__real@4f800000
PUBLIC	__real@bf800000
PUBLIC	__real@c2fe0000
PUBLIC	__real@c6fffe00
PUBLIC	__real@cf000000
PUBLIC	__xmm@00000000000000000000000040000000
PUBLIC	__xmm@0000000000000000c000000000000000
PUBLIC	__xmm@000000003f8000000000000000000000
PUBLIC	__xmm@00000000461000000000000000000000
PUBLIC	__xmm@00000000bf8000000000000000000000
PUBLIC	__xmm@00000003000000020000000100000000
PUBLIC	__xmm@00000008000000080000000800000008
PUBLIC	__xmm@00000200000002000000020000000200
PUBLIC	__xmm@00080008000800080008000800080008
PUBLIC	__xmm@00ff00ff00ff00ff00ff00ff00ff00ff
PUBLIC	__xmm@01010000010100000101000001010000
PUBLIC	__xmm@08a914e808a914e808a914e808a914e8
PUBLIC	__xmm@11c8e09e11c8e09e11c8e09e11c8e09e
PUBLIC	__xmm@11c8f9c311c8f9c311c8f9c311c8f9c3
PUBLIC	__xmm@12d0046b12d0046b12d0046b12d0046b
PUBLIC	__xmm@166f166f166f166f166f166f166f166f
PUBLIC	__xmm@1c5a1c5a1c5a1c5a1c5a1c5a1c5a1c5a
PUBLIC	__xmm@3f80000000000000000000003f800000
PUBLIC	__xmm@3f800000000000003f8000003f800000
PUBLIC	__xmm@3f800000000000003f800000bf800000
PUBLIC	__xmm@41f00000000000000000000000000000
PUBLIC	__xmm@46100000468000000000000000000000
PUBLIC	__xmm@46800000000000000000000000000000
PUBLIC	__xmm@7fffffff7fffffff7fffffff7fffffff
PUBLIC	__xmm@80000000800000008000000080000000
PUBLIC	__xmm@80808080808080808080808080808080
PUBLIC	__xmm@e09ee565e09ee565e09ee565e09ee565
PUBLIC	__xmm@e9cf12d0e9cf12d0e9cf12d0e9cf12d0
PUBLIC	__xmm@eb1a08a9eb1a08a9eb1a08a9eb1a08a9
PUBLIC	__xmm@f493f493f493f493f493f493f493f493
PUBLIC	__xmm@f9c31a9df9c31a9df9c31a9df9c31a9d
PUBLIC	__xmm@fa7efa7efa7efa7efa7efa7efa7efa7e
EXTRN	__CIatan2:PROC
EXTRN	__chkstk:PROC
EXTRN	__ftoui3:PROC
EXTRN	__libm_sse2_cos_precise:PROC
EXTRN	__libm_sse2_sin_precise:PROC
EXTRN	__libm_sse2_tan_precise:PROC
EXTRN	_memcpy:PROC
EXTRN	_memset:PROC
EXTRN	___security_cookie:DWORD
EXTRN	__fltused:DWORD
;	COMDAT __xmm@fa7efa7efa7efa7efa7efa7efa7efa7e
CONST	SEGMENT
__xmm@fa7efa7efa7efa7efa7efa7efa7efa7e DB '~', 0faH, '~', 0faH, '~', 0faH
	DB	'~', 0faH, '~', 0faH, '~', 0faH, '~', 0faH, '~', 0faH
CONST	ENDS
;	COMDAT __xmm@f9c31a9df9c31a9df9c31a9df9c31a9d
CONST	SEGMENT
__xmm@f9c31a9df9c31a9df9c31a9df9c31a9d DB 09dH, 01aH, 0c3H, 0f9H, 09dH, 01aH
	DB	0c3H, 0f9H, 09dH, 01aH, 0c3H, 0f9H, 09dH, 01aH, 0c3H, 0f9H
CONST	ENDS
;	COMDAT __xmm@f493f493f493f493f493f493f493f493
CONST	SEGMENT
__xmm@f493f493f493f493f493f493f493f493 DB 093H, 0f4H, 093H, 0f4H, 093H, 0f4H
	DB	093H, 0f4H, 093H, 0f4H, 093H, 0f4H, 093H, 0f4H, 093H, 0f4H
CONST	ENDS
;	COMDAT __xmm@eb1a08a9eb1a08a9eb1a08a9eb1a08a9
CONST	SEGMENT
__xmm@eb1a08a9eb1a08a9eb1a08a9eb1a08a9 DB 0a9H, 08H, 01aH, 0ebH, 0a9H, 08H
	DB	01aH, 0ebH, 0a9H, 08H, 01aH, 0ebH, 0a9H, 08H, 01aH, 0ebH
CONST	ENDS
;	COMDAT __xmm@e9cf12d0e9cf12d0e9cf12d0e9cf12d0
CONST	SEGMENT
__xmm@e9cf12d0e9cf12d0e9cf12d0e9cf12d0 DB 0d0H, 012H, 0cfH, 0e9H, 0d0H, 012H
	DB	0cfH, 0e9H, 0d0H, 012H, 0cfH, 0e9H, 0d0H, 012H, 0cfH, 0e9H
CONST	ENDS
;	COMDAT __xmm@e09ee565e09ee565e09ee565e09ee565
CONST	SEGMENT
__xmm@e09ee565e09ee565e09ee565e09ee565 DB 'e', 0e5H, 09eH, 0e0H, 'e', 0e5H
	DB	09eH, 0e0H, 'e', 0e5H, 09eH, 0e0H, 'e', 0e5H, 09eH, 0e0H
CONST	ENDS
;	COMDAT __xmm@80808080808080808080808080808080
CONST	SEGMENT
__xmm@80808080808080808080808080808080 DB 080H, 080H, 080H, 080H, 080H, 080H
	DB	080H, 080H, 080H, 080H, 080H, 080H, 080H, 080H, 080H, 080H
CONST	ENDS
;	COMDAT __xmm@80000000800000008000000080000000
CONST	SEGMENT
__xmm@80000000800000008000000080000000 DB 00H, 00H, 00H, 080H, 00H, 00H, 00H
	DB	080H, 00H, 00H, 00H, 080H, 00H, 00H, 00H, 080H
CONST	ENDS
;	COMDAT __xmm@7fffffff7fffffff7fffffff7fffffff
CONST	SEGMENT
__xmm@7fffffff7fffffff7fffffff7fffffff DB 0ffH, 0ffH, 0ffH, 07fH, 0ffH, 0ffH
	DB	0ffH, 07fH, 0ffH, 0ffH, 0ffH, 07fH, 0ffH, 0ffH, 0ffH, 07fH
CONST	ENDS
;	COMDAT __xmm@46800000000000000000000000000000
CONST	SEGMENT
__xmm@46800000000000000000000000000000 DB 00H, 00H, 00H, 00H, 00H, 00H, 00H
	DB	00H, 00H, 00H, 00H, 00H, 00H, 00H, 080H, 'F'
CONST	ENDS
;	COMDAT __xmm@46100000468000000000000000000000
CONST	SEGMENT
__xmm@46100000468000000000000000000000 DB 00H, 00H, 00H, 00H, 00H, 00H, 00H
	DB	00H, 00H, 00H, 080H, 'F', 00H, 00H, 010H, 'F'
CONST	ENDS
;	COMDAT __xmm@41f00000000000000000000000000000
CONST	SEGMENT
__xmm@41f00000000000000000000000000000 DB 00H, 00H, 00H, 00H, 00H, 00H, 00H
	DB	00H, 00H, 00H, 00H, 00H, 00H, 00H, 0f0H, 'A'
CONST	ENDS
;	COMDAT __xmm@3f800000000000003f800000bf800000
CONST	SEGMENT
__xmm@3f800000000000003f800000bf800000 DB 00H, 00H, 080H, 0bfH, 00H, 00H, 080H
	DB	'?', 00H, 00H, 00H, 00H, 00H, 00H, 080H, '?'
CONST	ENDS
;	COMDAT __xmm@3f800000000000003f8000003f800000
CONST	SEGMENT
__xmm@3f800000000000003f8000003f800000 DB 00H, 00H, 080H, '?', 00H, 00H, 080H
	DB	'?', 00H, 00H, 00H, 00H, 00H, 00H, 080H, '?'
CONST	ENDS
;	COMDAT __xmm@3f80000000000000000000003f800000
CONST	SEGMENT
__xmm@3f80000000000000000000003f800000 DB 00H, 00H, 080H, '?', 00H, 00H, 00H
	DB	00H, 00H, 00H, 00H, 00H, 00H, 00H, 080H, '?'
CONST	ENDS
;	COMDAT __xmm@1c5a1c5a1c5a1c5a1c5a1c5a1c5a1c5a
CONST	SEGMENT
__xmm@1c5a1c5a1c5a1c5a1c5a1c5a1c5a1c5a DB 'Z', 01cH, 'Z', 01cH, 'Z', 01cH
	DB	'Z', 01cH, 'Z', 01cH, 'Z', 01cH, 'Z', 01cH, 'Z', 01cH
CONST	ENDS
;	COMDAT __xmm@166f166f166f166f166f166f166f166f
CONST	SEGMENT
__xmm@166f166f166f166f166f166f166f166f DB 'o', 016H, 'o', 016H, 'o', 016H
	DB	'o', 016H, 'o', 016H, 'o', 016H, 'o', 016H, 'o', 016H
CONST	ENDS
;	COMDAT __xmm@12d0046b12d0046b12d0046b12d0046b
CONST	SEGMENT
__xmm@12d0046b12d0046b12d0046b12d0046b DB 'k', 04H, 0d0H, 012H, 'k', 04H, 0d0H
	DB	012H, 'k', 04H, 0d0H, 012H, 'k', 04H, 0d0H, 012H
CONST	ENDS
;	COMDAT __xmm@11c8f9c311c8f9c311c8f9c311c8f9c3
CONST	SEGMENT
__xmm@11c8f9c311c8f9c311c8f9c311c8f9c3 DB 0c3H, 0f9H, 0c8H, 011H, 0c3H, 0f9H
	DB	0c8H, 011H, 0c3H, 0f9H, 0c8H, 011H, 0c3H, 0f9H, 0c8H, 011H
CONST	ENDS
;	COMDAT __xmm@11c8e09e11c8e09e11c8e09e11c8e09e
CONST	SEGMENT
__xmm@11c8e09e11c8e09e11c8e09e11c8e09e DB 09eH, 0e0H, 0c8H, 011H, 09eH, 0e0H
	DB	0c8H, 011H, 09eH, 0e0H, 0c8H, 011H, 09eH, 0e0H, 0c8H, 011H
CONST	ENDS
;	COMDAT __xmm@08a914e808a914e808a914e808a914e8
CONST	SEGMENT
__xmm@08a914e808a914e808a914e808a914e8 DB 0e8H, 014H, 0a9H, 08H, 0e8H, 014H
	DB	0a9H, 08H, 0e8H, 014H, 0a9H, 08H, 0e8H, 014H, 0a9H, 08H
CONST	ENDS
;	COMDAT __xmm@01010000010100000101000001010000
CONST	SEGMENT
__xmm@01010000010100000101000001010000 DB 00H, 00H, 01H, 01H, 00H, 00H, 01H
	DB	01H, 00H, 00H, 01H, 01H, 00H, 00H, 01H, 01H
CONST	ENDS
;	COMDAT __xmm@00ff00ff00ff00ff00ff00ff00ff00ff
CONST	SEGMENT
__xmm@00ff00ff00ff00ff00ff00ff00ff00ff DB 0ffH, 00H, 0ffH, 00H, 0ffH, 00H
	DB	0ffH, 00H, 0ffH, 00H, 0ffH, 00H, 0ffH, 00H, 0ffH, 00H
CONST	ENDS
;	COMDAT __xmm@00080008000800080008000800080008
CONST	SEGMENT
__xmm@00080008000800080008000800080008 DB 08H, 00H, 08H, 00H, 08H, 00H, 08H
	DB	00H, 08H, 00H, 08H, 00H, 08H, 00H, 08H, 00H
CONST	ENDS
;	COMDAT __xmm@00000200000002000000020000000200
CONST	SEGMENT
__xmm@00000200000002000000020000000200 DB 00H, 02H, 00H, 00H, 00H, 02H, 00H
	DB	00H, 00H, 02H, 00H, 00H, 00H, 02H, 00H, 00H
CONST	ENDS
;	COMDAT __xmm@00000008000000080000000800000008
CONST	SEGMENT
__xmm@00000008000000080000000800000008 DB 08H, 00H, 00H, 00H, 08H, 00H, 00H
	DB	00H, 08H, 00H, 00H, 00H, 08H, 00H, 00H, 00H
CONST	ENDS
;	COMDAT __xmm@00000003000000020000000100000000
CONST	SEGMENT
__xmm@00000003000000020000000100000000 DB 00H, 00H, 00H, 00H, 01H, 00H, 00H
	DB	00H, 02H, 00H, 00H, 00H, 03H, 00H, 00H, 00H
CONST	ENDS
;	COMDAT __xmm@00000000bf8000000000000000000000
CONST	SEGMENT
__xmm@00000000bf8000000000000000000000 DB 00H, 00H, 00H, 00H, 00H, 00H, 00H
	DB	00H, 00H, 00H, 080H, 0bfH, 00H, 00H, 00H, 00H
CONST	ENDS
;	COMDAT __xmm@00000000461000000000000000000000
CONST	SEGMENT
__xmm@00000000461000000000000000000000 DB 00H, 00H, 00H, 00H, 00H, 00H, 00H
	DB	00H, 00H, 00H, 010H, 'F', 00H, 00H, 00H, 00H
CONST	ENDS
;	COMDAT __xmm@000000003f8000000000000000000000
CONST	SEGMENT
__xmm@000000003f8000000000000000000000 DB 00H, 00H, 00H, 00H, 00H, 00H, 00H
	DB	00H, 00H, 00H, 080H, '?', 00H, 00H, 00H, 00H
CONST	ENDS
;	COMDAT __xmm@0000000000000000c000000000000000
CONST	SEGMENT
__xmm@0000000000000000c000000000000000 DB 00H, 00H, 00H, 00H, 00H, 00H, 00H
	DB	0c0H, 00H, 00H, 00H, 00H, 00H, 00H, 00H, 00H
CONST	ENDS
;	COMDAT __xmm@00000000000000000000000040000000
CONST	SEGMENT
__xmm@00000000000000000000000040000000 DB 00H, 00H, 00H, '@', 00H, 00H, 00H
	DB	00H, 00H, 00H, 00H, 00H, 00H, 00H, 00H, 00H
CONST	ENDS
;	COMDAT __real@cf000000
CONST	SEGMENT
__real@cf000000 DD 0cf000000r			; -2.14748e+009
CONST	ENDS
;	COMDAT __real@c6fffe00
CONST	SEGMENT
__real@c6fffe00 DD 0c6fffe00r			; -32767
CONST	ENDS
;	COMDAT __real@c2fe0000
CONST	SEGMENT
__real@c2fe0000 DD 0c2fe0000r			; -127
CONST	ENDS
;	COMDAT __real@bf800000
CONST	SEGMENT
__real@bf800000 DD 0bf800000r			; -1
CONST	ENDS
;	COMDAT __real@4f800000
CONST	SEGMENT
__real@4f800000 DD 04f800000r			; 4.29497e+009
CONST	ENDS
;	COMDAT __real@4f000000
CONST	SEGMENT
__real@4f000000 DD 04f000000r			; 2.14748e+009
CONST	ENDS
;	COMDAT __real@477fff00
CONST	SEGMENT
__real@477fff00 DD 0477fff00r			; 65535
CONST	ENDS
;	COMDAT __real@46fffe00
CONST	SEGMENT
__real@46fffe00 DD 046fffe00r			; 32767
CONST	ENDS
;	COMDAT __real@46100000
CONST	SEGMENT
__real@46100000 DD 046100000r			; 9216
CONST	ENDS
;	COMDAT __real@447a0000
CONST	SEGMENT
__real@447a0000 DD 0447a0000r			; 1000
CONST	ENDS
;	COMDAT __real@43b40ccd
CONST	SEGMENT
__real@43b40ccd DD 043b40ccdr			; 360.1
CONST	ENDS
;	COMDAT __real@43800000
CONST	SEGMENT
__real@43800000 DD 043800000r			; 256
CONST	ENDS
;	COMDAT __real@437f0000
CONST	SEGMENT
__real@437f0000 DD 0437f0000r			; 255
CONST	ENDS
;	COMDAT __real@42fe0000
CONST	SEGMENT
__real@42fe0000 DD 042fe0000r			; 127
CONST	ENDS
;	COMDAT __real@42c80000
CONST	SEGMENT
__real@42c80000 DD 042c80000r			; 100
CONST	ENDS
;	COMDAT __real@42340000
CONST	SEGMENT
__real@42340000 DD 042340000r			; 45
CONST	ENDS
;	COMDAT __real@41f00000
CONST	SEGMENT
__real@41f00000 DD 041f00000r			; 30
CONST	ENDS
;	COMDAT __real@41c80000
CONST	SEGMENT
__real@41c80000 DD 041c80000r			; 25
CONST	ENDS
;	COMDAT __real@41500000
CONST	SEGMENT
__real@41500000 DD 041500000r			; 13
CONST	ENDS
;	COMDAT __real@41400000
CONST	SEGMENT
__real@41400000 DD 041400000r			; 12
CONST	ENDS
;	COMDAT __real@41200000
CONST	SEGMENT
__real@41200000 DD 041200000r			; 10
CONST	ENDS
;	COMDAT __real@40c90fdb
CONST	SEGMENT
__real@40c90fdb DD 040c90fdbr			; 6.28319
CONST	ENDS
;	COMDAT __real@40800000
CONST	SEGMENT
__real@40800000 DD 040800000r			; 4
CONST	ENDS
;	COMDAT __real@4066800000000000
CONST	SEGMENT
__real@4066800000000000 DQ 04066800000000000r	; 180
CONST	ENDS
;	COMDAT __real@404ca5dc1af05a77
CONST	SEGMENT
__real@404ca5dc1af05a77 DQ 0404ca5dc1af05a77r	; 57.2958
CONST	ENDS
;	COMDAT __real@40490fdb
CONST	SEGMENT
__real@40490fdb DD 040490fdbr			; 3.14159
CONST	ENDS
;	COMDAT __real@40400000
CONST	SEGMENT
__real@40400000 DD 040400000r			; 3
CONST	ENDS
;	COMDAT __real@400921fb53c8d4f1
CONST	SEGMENT
__real@400921fb53c8d4f1 DQ 0400921fb53c8d4f1r	; 3.14159
CONST	ENDS
;	COMDAT __real@40000000
CONST	SEGMENT
__real@40000000 DD 040000000r			; 2
CONST	ENDS
;	COMDAT __real@3ff0000000000000
CONST	SEGMENT
__real@3ff0000000000000 DQ 03ff0000000000000r	; 1
CONST	ENDS
;	COMDAT __real@3fc00000
CONST	SEGMENT
__real@3fc00000 DD 03fc00000r			; 1.5
CONST	ENDS
;	COMDAT __real@3f847ae140000000
CONST	SEGMENT
__real@3f847ae140000000 DQ 03f847ae140000000r	; 0.01
CONST	ENDS
;	COMDAT __real@3f804e2f
CONST	SEGMENT
__real@3f804e2f DD 03f804e2fr			; 1.00239
CONST	ENDS
;	COMDAT __real@3f801c6e
CONST	SEGMENT
__real@3f801c6e DD 03f801c6er			; 1.00087
CONST	ENDS
;	COMDAT __real@3f800000
CONST	SEGMENT
__real@3f800000 DD 03f800000r			; 1
CONST	ENDS
;	COMDAT __real@3f000000
CONST	SEGMENT
__real@3f000000 DD 03f000000r			; 0.5
CONST	ENDS
;	COMDAT __real@3ec9ec7b
CONST	SEGMENT
__real@3ec9ec7b DD 03ec9ec7br			; 0.394382
CONST	ENDS
;	COMDAT __real@3eb33333
CONST	SEGMENT
__real@3eb33333 DD 03eb33333r			; 0.35
CONST	ENDS
;	COMDAT __real@3e800000
CONST	SEGMENT
__real@3e800000 DD 03e800000r			; 0.25
CONST	ENDS
;	COMDAT __real@3e0d6486
CONST	SEGMENT
__real@3e0d6486 DD 03e0d6486r			; 0.138079
CONST	ENDS
;	COMDAT __real@3df1f042
CONST	SEGMENT
__real@3df1f042 DD 03df1f042r			; 0.118134
CONST	ENDS
;	COMDAT __real@3ddb63b9
CONST	SEGMENT
__real@3ddb63b9 DD 03ddb63b9r			; 0.107124
CONST	ENDS
;	COMDAT __real@3dcccccd
CONST	SEGMENT
__real@3dcccccd DD 03dcccccdr			; 0.1
CONST	ENDS
;	COMDAT __real@3d4ccccd
CONST	SEGMENT
__real@3d4ccccd DD 03d4ccccdr			; 0.05
CONST	ENDS
;	COMDAT __real@3d1c6f36
CONST	SEGMENT
__real@3d1c6f36 DD 03d1c6f36r			; 0.038192
CONST	ENDS
;	COMDAT __real@3cdb0412
CONST	SEGMENT
__real@3cdb0412 DD 03cdb0412r			; 0.0267353
CONST	ENDS
;	COMDAT __real@3caa6a57
CONST	SEGMENT
__real@3caa6a57 DD 03caa6a57r			; 0.0208027
CONST	ENDS
;	COMDAT __real@3c98e4a6
CONST	SEGMENT
__real@3c98e4a6 DD 03c98e4a6r			; 0.0186637
CONST	ENDS
;	COMDAT __real@3c46b2e5
CONST	SEGMENT
__real@3c46b2e5 DD 03c46b2e5r			; 0.0121276
CONST	ENDS
;	COMDAT __real@3c23d70a
CONST	SEGMENT
__real@3c23d70a DD 03c23d70ar			; 0.01
CONST	ENDS
;	COMDAT __real@3ba3d70a
CONST	SEGMENT
__real@3ba3d70a DD 03ba3d70ar			; 0.005
CONST	ENDS
;	COMDAT __real@3b808081
CONST	SEGMENT
__real@3b808081 DD 03b808081r			; 0.00392157
CONST	ENDS
;	COMDAT __real@3b473a13
CONST	SEGMENT
__real@3b473a13 DD 03b473a13r			; 0.00303996
CONST	ENDS
;	COMDAT __real@3a81c79e
CONST	SEGMENT
__real@3a81c79e DD 03a81c79er			; 0.000990141
CONST	ENDS
;	COMDAT __real@3a800000
CONST	SEGMENT
__real@3a800000 DD 03a800000r			; 0.000976563
CONST	ENDS
;	COMDAT __real@3a000000
CONST	SEGMENT
__real@3a000000 DD 03a000000r			; 0.000488281
CONST	ENDS
;	COMDAT __real@39638e39
CONST	SEGMENT
__real@39638e39 DD 039638e39r			; 0.000217014
CONST	ENDS
;	COMDAT __real@3910f359
CONST	SEGMENT
__real@3910f359 DD 03910f359r			; 0.000138236
CONST	ENDS
;	COMDAT __real@39000000
CONST	SEGMENT
__real@39000000 DD 039000000r			; 0.00012207
CONST	ENDS
;	COMDAT __real@38800000
CONST	SEGMENT
__real@38800000 DD 038800000r			; 6.10352e-005
CONST	ENDS
;	COMDAT __real@38000000
CONST	SEGMENT
__real@38000000 DD 038000000r			; 3.05176e-005
CONST	ENDS
;	COMDAT __real@358637bd
CONST	SEGMENT
__real@358637bd DD 0358637bdr			; 1e-006
CONST	ENDS
;	COMDAT __real@296b8c59
CONST	SEGMENT
__real@296b8c59 DD 0296b8c59r			; 5.23022e-014
CONST	ENDS
;	COMDAT __real@0c780258
CONST	SEGMENT
__real@0c780258 DD 00c780258r			; 1.91059e-031
CONST	ENDS
;	COMDAT __real@00000000
CONST	SEGMENT
__real@00000000 DD 000000000r			; 0
CONST	ENDS
; Function compile flags: /Ogtp
; File c:\users\marcos\desktop\prj\mgear-1\apis\stb\stb_image.h
;	COMDAT _stbi__stdio_read
_TEXT	SEGMENT
_user$ = 8						; size = 4
_data$ = 12						; size = 4
_size$ = 16						; size = 4
_stbi__stdio_read PROC					; COMDAT

; 725  : {

	push	ebp
	mov	ebp, esp

; 726  :    return (int) fread(data,1,size,(FILE*) user);

	push	DWORD PTR _user$[ebp]
	push	DWORD PTR _size$[ebp]
	push	1
	push	DWORD PTR _data$[ebp]
	call	_fread
	add	esp, 16					; 00000010H

; 727  : }

	pop	ebp
	ret	0
_stbi__stdio_read ENDP
_TEXT	ENDS
; Function compile flags: /Ogtp
; File c:\users\marcos\desktop\prj\mgear-1\apis\stb\stb_image.h
;	COMDAT _stbi__stdio_skip
_TEXT	SEGMENT
_user$ = 8						; size = 4
_n$ = 12						; size = 4
_stbi__stdio_skip PROC					; COMDAT

; 730  : {

	push	ebp
	mov	ebp, esp

; 731  :    fseek((FILE*) user, n, SEEK_CUR);

	push	1
	push	DWORD PTR _n$[ebp]
	push	DWORD PTR _user$[ebp]
	call	_fseek
	add	esp, 12					; 0000000cH

; 732  : }

	pop	ebp
	ret	0
_stbi__stdio_skip ENDP
_TEXT	ENDS
; Function compile flags: /Ogtp
; File c:\users\marcos\desktop\prj\mgear-1\apis\stb\stb_image.h
;	COMDAT _stbi__stdio_eof
_TEXT	SEGMENT
_user$ = 8						; size = 4
_stbi__stdio_eof PROC					; COMDAT

; 735  : {

	push	ebp
	mov	ebp, esp

; 737  : }

	pop	ebp

; 736  :    return feof((FILE*) user);

	jmp	_feof
_stbi__stdio_eof ENDP
_TEXT	ENDS
; Function compile flags: /Ogtp
; File c:\users\marcos\desktop\prj\mgear-1\apis\stb\stb_image.h
;	COMDAT _stbi__clamp
_TEXT	SEGMENT
_stbi__clamp PROC					; COMDAT
; _x$ = ecx

; 2106 :    // trick to use a single test to catch both cases
; 2107 :    if ((unsigned int) x > 255) {

	cmp	ecx, 255				; 000000ffH
	jbe	SHORT $LN1@stbi__clam

; 2108 :       if (x < 0) return 0;

	test	ecx, ecx
	jns	SHORT $LN2@stbi__clam
	xor	al, al

; 2112 : }

	ret	0
$LN2@stbi__clam:

; 2109 :       if (x > 255) return 255;

	cmp	ecx, 255				; 000000ffH
	jle	SHORT $LN1@stbi__clam
	or	al, 255					; 000000ffH

; 2112 : }

	ret	0
$LN1@stbi__clam:

; 2110 :    }
; 2111 :    return (stbi_uc) x;

	mov	al, cl

; 2112 : }

	ret	0
_stbi__clamp ENDP
_TEXT	ENDS
; Function compile flags: /Ogtp
; File c:\users\marcos\desktop\prj\mgear-1\apis\stb\stb_image.h
;	COMDAT _stbi__idct_block
_TEXT	SEGMENT
_out_stride$GSCopy$1$ = -312				; size = 4
_t0$3$ = -308						; size = 4
_x$1$ = -304						; size = 4
_x1$1$ = -304						; size = 4
_x$1$ = -300						; size = 4
_t2$3$ = -300						; size = 4
_x$1$ = -296						; size = 4
_x0$1$ = -296						; size = 4
tv1383 = -292						; size = 4
tv1379 = -292						; size = 4
_out$GSCopy$1$ = -288					; size = 4
_p4$1$ = -288						; size = 4
_t3$3$ = -288						; size = 4
_t2$3$ = -284						; size = 4
_t3$3$ = -284						; size = 4
_t3$2$ = -284						; size = 4
_x2$1$ = -280						; size = 4
tv1377 = -280						; size = 4
_t1$3$ = -276						; size = 4
_p2$3$ = -276						; size = 4
_x3$1$ = -276						; size = 4
_x$1$ = -272						; size = 4
tv1382 = -272						; size = 4
tv1381 = -268						; size = 4
tv1380 = -268						; size = 4
_x$1$ = -264						; size = 4
_p4$1$ = -264						; size = 4
_t1$3$ = -264						; size = 4
tv1378 = -264						; size = 4
_val$ = -260						; size = 256
__$ArrayPad$ = -4					; size = 4
_out$ = 8						; size = 4
_out_stride$ = 12					; size = 4
_data$ = 16						; size = 4
_stbi__idct_block PROC					; COMDAT

; 2156 : {

	push	ebp
	mov	ebp, esp
	sub	esp, 312				; 00000138H
	mov	eax, DWORD PTR ___security_cookie
	xor	eax, ebp
	mov	DWORD PTR __$ArrayPad$[ebp], eax
	mov	eax, DWORD PTR _out$[ebp]
	push	ebx
	mov	ebx, DWORD PTR _data$[ebp]
	push	esi
	mov	DWORD PTR _out$GSCopy$1$[ebp], eax
	lea	esi, DWORD PTR _val$[ebp+32]
	mov	eax, DWORD PTR _out_stride$[ebp]
	add	ebx, 96					; 00000060H
	push	edi
	mov	DWORD PTR _out_stride$GSCopy$1$[ebp], eax
	mov	DWORD PTR tv1382[ebp], esi
	mov	DWORD PTR tv1381[ebp], ebx
	mov	DWORD PTR tv1383[ebp], 8
	npad	6
$LL8@stbi__idct:

; 2163 :       // if all zeroes, shortcut -- this avoids dequantizing 0s and IDCTing
; 2164 :       if (d[ 8]==0 && d[16]==0 && d[24]==0 && d[32]==0
; 2165 :            && d[40]==0 && d[48]==0 && d[56]==0) {

	movzx	eax, WORD PTR [ebx-80]
	mov	DWORD PTR tv1378[ebp], eax
	test	ax, ax
	jne	SHORT $LN5@stbi__idct
	cmp	WORD PTR [ebx-64], ax
	jne	SHORT $LN5@stbi__idct
	cmp	WORD PTR [ebx-48], ax
	jne	SHORT $LN5@stbi__idct
	cmp	WORD PTR [ebx-32], ax
	jne	SHORT $LN5@stbi__idct
	cmp	WORD PTR [ebx-16], ax
	jne	SHORT $LN5@stbi__idct
	cmp	WORD PTR [ebx], ax
	jne	SHORT $LN5@stbi__idct
	cmp	WORD PTR [ebx+16], ax
	jne	SHORT $LN5@stbi__idct

; 2166 :          //    no shortcut                 0     seconds
; 2167 :          //    (1|2|3|4|5|6|7)==0          0     seconds
; 2168 :          //    all separate               -0.047 seconds
; 2169 :          //    1 && 2|3 && 4|5 && 6|7:    -0.047 seconds
; 2170 :          int dcterm = d[0] << 2;

	movsx	eax, WORD PTR [ebx-96]
	shl	eax, 2

; 2171 :          v[0] = v[8] = v[16] = v[24] = v[32] = v[40] = v[48] = v[56] = dcterm;

	mov	DWORD PTR [esi+192], eax
	mov	DWORD PTR [esi+160], eax
	mov	DWORD PTR [esi+128], eax
	mov	DWORD PTR [esi+96], eax
	mov	DWORD PTR [esi+32], eax
	mov	DWORD PTR [esi], eax
	mov	DWORD PTR [esi-32], eax

; 2172 :       } else {

	jmp	$LN59@stbi__idct
$LN5@stbi__idct:

; 2173 :          STBI__IDCT_1D(d[ 0],d[ 8],d[16],d[24],d[32],d[40],d[48],d[56])

	movsx	esi, WORD PTR [ebx-64]
	movsx	ecx, WORD PTR [ebx]
	lea	eax, DWORD PTR [ecx+esi]
	imul	edx, eax, 2217
	imul	eax, ecx, 7567
	imul	ecx, esi, 3135
	mov	edi, edx
	sub	edi, eax
	movsx	eax, WORD PTR [ebx-32]
	add	ecx, edx
	movsx	edx, WORD PTR [ebx-96]
	lea	ebx, DWORD PTR [eax+edx]
	sub	edx, eax
	shl	ebx, 12					; 0000000cH
	shl	edx, 12					; 0000000cH
	lea	eax, DWORD PTR [ebx+ecx]
	sub	ebx, ecx
	mov	ecx, DWORD PTR tv1378[ebp]
	mov	DWORD PTR _x0$1$[ebp], eax
	lea	eax, DWORD PTR [edx+edi]
	mov	DWORD PTR _x1$1$[ebp], eax
	sub	edx, edi
	mov	eax, DWORD PTR tv1381[ebp]
	mov	DWORD PTR _x2$1$[ebp], edx
	movsx	esi, cx
	mov	DWORD PTR _x3$1$[ebp], ebx
	movsx	edi, WORD PTR [eax+16]
	movsx	edx, WORD PTR [eax-16]
	movsx	eax, WORD PTR [eax-48]
	add	edx, esi
	mov	DWORD PTR _t3$2$[ebp], esi
	mov	DWORD PTR _p4$1$[ebp], edx

; 2174 :          // constants scaled things up by 1<<12; let's bring them back
; 2175 :          // down, but keep 2 extra bits of precision
; 2176 :          x0 += 512; x1 += 512; x2 += 512; x3 += 512;

	add	DWORD PTR _x2$1$[ebp], 512		; 00000200H
	lea	ecx, DWORD PTR [edi+eax]
	add	DWORD PTR _x3$1$[ebp], 512		; 00000200H
	lea	eax, DWORD PTR [edx+ecx]
	imul	ecx, ecx, -8034
	imul	ebx, eax, 4816
	lea	eax, DWORD PTR [edi+esi]
	mov	esi, DWORD PTR tv1381[ebp]
	imul	eax, eax, 3685
	movsx	edx, WORD PTR [esi-16]
	mov	edi, ebx
	sub	edi, eax
	movsx	eax, WORD PTR [esi-48]
	add	eax, edx
	imul	edx, DWORD PTR _t3$2$[ebp], 6149
	imul	eax, eax, 10497
	sub	ebx, eax
	imul	eax, DWORD PTR _p4$1$[ebp], -1597
	add	edx, eax
	add	edx, edi
	mov	DWORD PTR _t3$3$[ebp], edx
	mov	edx, esi
	movsx	esi, WORD PTR [edx-48]
	imul	esi, esi, 12586
	add	esi, ecx
	add	esi, ebx
	mov	DWORD PTR _t2$3$[ebp], esi
	movsx	esi, WORD PTR [edx-16]
	imul	esi, esi, 8410
	add	esi, eax
	mov	DWORD PTR _t1$3$[ebp], esi
	add	DWORD PTR _t1$3$[ebp], ebx
	mov	ebx, edx

; 2177 :          v[ 0] = (x0+t3) >> 10;

	mov	edx, DWORD PTR _t3$3$[ebp]
	mov	esi, DWORD PTR tv1382[ebp]
	movsx	eax, WORD PTR [ebx+16]
	imul	ebx, eax, 1223
	add	ebx, edi
	mov	edi, DWORD PTR _x1$1$[ebp]
	add	ebx, ecx
	add	edi, 512				; 00000200H
	mov	ecx, DWORD PTR _x0$1$[ebp]
	add	ecx, 512				; 00000200H
	lea	eax, DWORD PTR [ecx+edx]

; 2178 :          v[56] = (x0-t3) >> 10;

	sub	ecx, edx
	sar	eax, 10					; 0000000aH
	mov	edx, esi
	mov	DWORD PTR [esi-32], eax
	sar	ecx, 10					; 0000000aH

; 2179 :          v[ 8] = (x1+t2) >> 10;

	mov	esi, DWORD PTR _t2$3$[ebp]
	mov	DWORD PTR [edx+192], ecx

; 2180 :          v[48] = (x1-t2) >> 10;
; 2181 :          v[16] = (x2+t1) >> 10;

	mov	ecx, DWORD PTR _t1$3$[ebp]
	lea	eax, DWORD PTR [edi+esi]
	sub	edi, esi
	sar	eax, 10					; 0000000aH
	mov	esi, edx
	mov	DWORD PTR [edx], eax
	mov	edx, DWORD PTR _x2$1$[ebp]
	sar	edi, 10					; 0000000aH
	mov	DWORD PTR [esi+160], edi
	lea	eax, DWORD PTR [edx+ecx]

; 2182 :          v[40] = (x2-t1) >> 10;

	sub	edx, ecx

; 2183 :          v[24] = (x3+t0) >> 10;

	mov	ecx, DWORD PTR _x3$1$[ebp]
	sar	eax, 10					; 0000000aH
	mov	DWORD PTR [esi+32], eax
	sar	edx, 10					; 0000000aH
	lea	eax, DWORD PTR [ecx+ebx]
	mov	DWORD PTR [esi+128], edx

; 2184 :          v[32] = (x3-t0) >> 10;

	sub	ecx, ebx
	sar	eax, 10					; 0000000aH
	mov	ebx, DWORD PTR tv1381[ebp]
	sar	ecx, 10					; 0000000aH
	mov	DWORD PTR [esi+96], ecx
$LN59@stbi__idct:

; 2157 :    int i,val[64],*v=val;
; 2158 :    stbi_uc *o;
; 2159 :    short *d = data;
; 2160 : 
; 2161 :    // columns
; 2162 :    for (i=0; i < 8; ++i,++d, ++v) {

	mov	DWORD PTR [esi+64], eax
	add	ebx, 2
	add	esi, 4
	mov	DWORD PTR tv1381[ebp], ebx
	dec	DWORD PTR tv1383[ebp]
	mov	DWORD PTR tv1382[ebp], esi
	jne	$LL8@stbi__idct

; 2185 :       }
; 2186 :    }
; 2187 : 
; 2188 :    for (i=0, v=val, o=out; i < 8; ++i,v+=8,o+=out_stride) {

	mov	eax, DWORD PTR _out$GSCopy$1$[ebp]
	lea	ebx, DWORD PTR _val$[ebp+24]
	inc	eax
	mov	DWORD PTR tv1380[ebp], ebx
	mov	DWORD PTR tv1379[ebp], eax
	mov	DWORD PTR tv1377[ebp], 8
$LL3@stbi__idct:

; 2189 :       // no fast case since the first 1D IDCT spread components out
; 2190 :       STBI__IDCT_1D(v[0],v[1],v[2],v[3],v[4],v[5],v[6],v[7])

	mov	ecx, DWORD PTR [ebx]
	mov	esi, DWORD PTR [ebx-16]
	lea	eax, DWORD PTR [ecx+esi]
	imul	esi, esi, 3135
	imul	edx, eax, 2217
	imul	eax, ecx, 7567
	mov	ecx, DWORD PTR [ebx-8]
	mov	edi, edx
	add	esi, edx
	sub	edi, eax
	mov	eax, DWORD PTR [ebx-24]
	lea	edx, DWORD PTR [ecx+eax]
	sub	eax, ecx
	shl	eax, 12					; 0000000cH
	shl	edx, 12					; 0000000cH
	lea	ecx, DWORD PTR [edx+esi]
	sub	edx, esi
	mov	esi, DWORD PTR tv1380[ebp]
	mov	DWORD PTR _x$1$[ebp], ecx
	lea	ecx, DWORD PTR [eax+edi]
	sub	eax, edi
	mov	DWORD PTR _x$1$[ebp], edx
	mov	edx, DWORD PTR [ebx+4]
	mov	ebx, DWORD PTR [ebx-4]
	mov	edi, DWORD PTR [esi-20]
	add	edx, DWORD PTR [esi-12]
	mov	DWORD PTR _x$1$[ebp], ecx
	mov	DWORD PTR _x$1$[ebp], eax
	lea	esi, DWORD PTR [ebx+edi]

; 2191 :       // constants scaled things up by 1<<12, plus we had 1<<2 from first
; 2192 :       // loop, plus horizontal and vertical each scale by sqrt(8) so together
; 2193 :       // we've got an extra 1<<3, so 1<<17 total we need to remove.
; 2194 :       // so we want to round that, which means adding 0.5 * 1<<17,
; 2195 :       // aka 65536. Also, we'll end up with -128 to 127 that we want
; 2196 :       // to encode as 0..255 by adding 128, so we'll add that before the shift
; 2197 :       x0 += 65536 + (128<<17);
; 2198 :       x1 += 65536 + (128<<17);
; 2199 :       x2 += 65536 + (128<<17);
; 2200 :       x3 += 65536 + (128<<17);

	add	DWORD PTR _x$1$[ebp], 16842752		; 01010000H
	lea	ecx, DWORD PTR [esi+edx]
	mov	DWORD PTR _p4$1$[ebp], esi
	mov	esi, DWORD PTR tv1380[ebp]
	mov	eax, esi
	imul	ebx, ecx, 4816
	imul	edx, edx, -8034
	mov	ecx, DWORD PTR [esi+4]
	add	ecx, edi
	imul	ecx, ecx, 3685
	mov	DWORD PTR _p2$3$[ebp], ebx
	sub	ebx, ecx
	mov	ecx, DWORD PTR [eax-12]
	add	ecx, DWORD PTR [eax-4]
	imul	ecx, ecx, 10497
	imul	eax, edi, 6149
	mov	edi, esi
	sub	DWORD PTR _p2$3$[ebp], ecx
	imul	ecx, DWORD PTR _p4$1$[ebp], -1597
	add	eax, ecx
	add	eax, ebx
	mov	DWORD PTR _t3$3$[ebp], eax
	imul	eax, DWORD PTR [edi-12], 12586

; 2201 :       // tried computing the shifts into temps, or'ing the temps to see
; 2202 :       // if any were out of range, but that was slower
; 2203 :       o[0] = stbi__clamp((x0+t3) >> 17);

	mov	edi, DWORD PTR _t3$3$[ebp]
	add	eax, edx
	add	eax, DWORD PTR _p2$3$[ebp]
	mov	DWORD PTR _t2$3$[ebp], eax
	mov	eax, esi
	imul	eax, DWORD PTR [eax-4], 8410
	add	eax, ecx
	add	DWORD PTR _p2$3$[ebp], eax
	imul	eax, DWORD PTR [esi+4], 1223
	add	eax, ebx
	mov	ebx, DWORD PTR _x$1$[ebp]
	add	eax, edx
	add	ebx, 16842752				; 01010000H
	mov	edx, DWORD PTR _x$1$[ebp]
	mov	DWORD PTR _t0$3$[ebp], eax
	add	edx, 16842752				; 01010000H
	mov	eax, DWORD PTR _x$1$[ebp]
	lea	ecx, DWORD PTR [ebx+edi]
	add	eax, 16842752				; 01010000H
	sar	ecx, 17					; 00000011H
	mov	DWORD PTR _x$1$[ebp], ecx

; 2107 :    if ((unsigned int) x > 255) {

	cmp	ecx, 255				; 000000ffH
	jbe	SHORT $LN11@stbi__idct

; 2108 :       if (x < 0) return 0;

	test	ecx, ecx
	jge	SHORT $LN12@stbi__idct
	mov	BYTE PTR _x$1$[ebp], 0
	jmp	SHORT $LN11@stbi__idct
$LN12@stbi__idct:

; 2109 :       if (x > 255) return 255;

	cmp	DWORD PTR _x$1$[ebp], 255		; 000000ffH
	jle	SHORT $LN11@stbi__idct
	mov	BYTE PTR _x$1$[ebp], 255		; 000000ffH
$LN11@stbi__idct:

; 2201 :       // tried computing the shifts into temps, or'ing the temps to see
; 2202 :       // if any were out of range, but that was slower
; 2203 :       o[0] = stbi__clamp((x0+t3) >> 17);

	mov	esi, DWORD PTR tv1379[ebp]

; 2204 :       o[7] = stbi__clamp((x0-t3) >> 17);

	sub	ebx, edi
	mov	ecx, DWORD PTR _x$1$[ebp]
	sar	ebx, 17					; 00000011H
	mov	BYTE PTR [esi-1], cl

; 2107 :    if ((unsigned int) x > 255) {

	mov	ecx, DWORD PTR _x$1$[ebp]
	cmp	ebx, 255				; 000000ffH
	jbe	SHORT $LN16@stbi__idct

; 2108 :       if (x < 0) return 0;

	test	ebx, ebx
	jns	SHORT $LN17@stbi__idct
	xor	bl, bl
	jmp	SHORT $LN16@stbi__idct
$LN17@stbi__idct:

; 2109 :       if (x > 255) return 255;

	cmp	ebx, 255				; 000000ffH
	jle	SHORT $LN16@stbi__idct
	or	bl, 255					; 000000ffH
$LN16@stbi__idct:

; 2205 :       o[1] = stbi__clamp((x1+t2) >> 17);

	mov	edi, DWORD PTR _t2$3$[ebp]
	mov	BYTE PTR [esi+6], bl
	lea	ebx, DWORD PTR [edx+edi]
	sar	ebx, 17					; 00000011H

; 2107 :    if ((unsigned int) x > 255) {

	cmp	ebx, 255				; 000000ffH
	jbe	SHORT $LN21@stbi__idct

; 2108 :       if (x < 0) return 0;

	test	ebx, ebx
	jns	SHORT $LN22@stbi__idct
	xor	bl, bl
	jmp	SHORT $LN21@stbi__idct
$LN22@stbi__idct:

; 2109 :       if (x > 255) return 255;

	cmp	ebx, 255				; 000000ffH
	jle	SHORT $LN21@stbi__idct
	or	bl, 255					; 000000ffH
$LN21@stbi__idct:

; 2206 :       o[6] = stbi__clamp((x1-t2) >> 17);

	sub	edx, edi
	mov	BYTE PTR [esi], bl
	sar	edx, 17					; 00000011H

; 2107 :    if ((unsigned int) x > 255) {

	cmp	edx, 255				; 000000ffH
	jbe	SHORT $LN26@stbi__idct

; 2108 :       if (x < 0) return 0;

	test	edx, edx
	jns	SHORT $LN27@stbi__idct
	xor	dl, dl
	jmp	SHORT $LN26@stbi__idct
$LN27@stbi__idct:

; 2109 :       if (x > 255) return 255;

	cmp	edx, 255				; 000000ffH
	jle	SHORT $LN26@stbi__idct
	or	dl, 255					; 000000ffH
$LN26@stbi__idct:

; 2207 :       o[2] = stbi__clamp((x2+t1) >> 17);

	mov	edi, DWORD PTR _t1$3$[ebp]
	mov	BYTE PTR [esi+5], dl
	lea	edx, DWORD PTR [eax+edi]
	sar	edx, 17					; 00000011H

; 2107 :    if ((unsigned int) x > 255) {

	cmp	edx, 255				; 000000ffH
	jbe	SHORT $LN31@stbi__idct

; 2108 :       if (x < 0) return 0;

	test	edx, edx
	jns	SHORT $LN32@stbi__idct
	xor	dl, dl
	jmp	SHORT $LN31@stbi__idct
$LN32@stbi__idct:

; 2109 :       if (x > 255) return 255;

	cmp	edx, 255				; 000000ffH
	jle	SHORT $LN31@stbi__idct
	or	dl, 255					; 000000ffH
$LN31@stbi__idct:

; 2208 :       o[5] = stbi__clamp((x2-t1) >> 17);

	sub	eax, edi
	mov	BYTE PTR [esi+1], dl
	sar	eax, 17					; 00000011H

; 2107 :    if ((unsigned int) x > 255) {

	cmp	eax, 255				; 000000ffH
	jbe	SHORT $LN36@stbi__idct

; 2108 :       if (x < 0) return 0;

	test	eax, eax
	jns	SHORT $LN37@stbi__idct
	xor	al, al
	jmp	SHORT $LN36@stbi__idct
$LN37@stbi__idct:

; 2109 :       if (x > 255) return 255;

	cmp	eax, 255				; 000000ffH
	jle	SHORT $LN36@stbi__idct
	or	al, 255					; 000000ffH
$LN36@stbi__idct:

; 2209 :       o[3] = stbi__clamp((x3+t0) >> 17);

	mov	edx, DWORD PTR _t0$3$[ebp]
	mov	BYTE PTR [esi+4], al
	lea	eax, DWORD PTR [ecx+edx]
	sar	eax, 17					; 00000011H

; 2107 :    if ((unsigned int) x > 255) {

	cmp	eax, 255				; 000000ffH
	jbe	SHORT $LN41@stbi__idct

; 2108 :       if (x < 0) return 0;

	test	eax, eax
	jns	SHORT $LN42@stbi__idct
	xor	al, al
	jmp	SHORT $LN41@stbi__idct
$LN42@stbi__idct:

; 2109 :       if (x > 255) return 255;

	cmp	eax, 255				; 000000ffH
	jle	SHORT $LN41@stbi__idct
	or	al, 255					; 000000ffH
$LN41@stbi__idct:

; 2210 :       o[4] = stbi__clamp((x3-t0) >> 17);

	sub	ecx, edx
	mov	BYTE PTR [esi+2], al
	sar	ecx, 17					; 00000011H

; 2107 :    if ((unsigned int) x > 255) {

	cmp	ecx, 255				; 000000ffH
	jbe	SHORT $LN46@stbi__idct

; 2108 :       if (x < 0) return 0;

	test	ecx, ecx
	jns	SHORT $LN47@stbi__idct
	xor	cl, cl
	jmp	SHORT $LN46@stbi__idct
$LN47@stbi__idct:

; 2109 :       if (x > 255) return 255;

	cmp	ecx, 255				; 000000ffH
	jle	SHORT $LN46@stbi__idct
	or	cl, 255					; 000000ffH
$LN46@stbi__idct:

; 2185 :       }
; 2186 :    }
; 2187 : 
; 2188 :    for (i=0, v=val, o=out; i < 8; ++i,v+=8,o+=out_stride) {

	mov	ebx, DWORD PTR tv1380[ebp]

; 2210 :       o[4] = stbi__clamp((x3-t0) >> 17);

	mov	BYTE PTR [esi+3], cl
	add	ebx, 32					; 00000020H
	add	esi, DWORD PTR _out_stride$GSCopy$1$[ebp]
	dec	DWORD PTR tv1377[ebp]
	mov	DWORD PTR tv1380[ebp], ebx
	mov	DWORD PTR tv1379[ebp], esi
	jne	$LL3@stbi__idct

; 2211 :    }
; 2212 : }

	mov	ecx, DWORD PTR __$ArrayPad$[ebp]
	pop	edi
	pop	esi
	xor	ecx, ebp
	pop	ebx
	call	@__security_check_cookie@4
	mov	esp, ebp
	pop	ebp
	ret	0
_stbi__idct_block ENDP
_TEXT	ENDS
; Function compile flags: /Ogtp
; File c:\users\marcos\desktop\prj\mgear-1\apis\stb\stb_image.h
;	COMDAT _stbi__idct_simd
_TEXT	SEGMENT
_p3$1$ = -240						; size = 16
_y5o_h$1$ = -240					; size = 16
_x7_h$1$ = -224						; size = 16
_y5o_h$1$ = -224					; size = 16
_row7$4$ = -224						; size = 16
_abiased_h$1$ = -208					; size = 16
_row5$2$ = -208						; size = 16
_abiased_h$1$ = -192					; size = 16
_row4$2$ = -192						; size = 16
_x7_l$1$ = -176						; size = 16
_x6_l$1$ = -176						; size = 16
_abiased_l$1$ = -160					; size = 16
_t3e_l$1$ = -160					; size = 16
_p2$1$ = -144						; size = 16
_t2e_h$1$ = -144					; size = 16
_x6_h$1$ = -128						; size = 16
_x6_h$1$ = -128						; size = 16
_row7$2$ = -128						; size = 16
_t3e_h$1$ = -112					; size = 16
_t2e_l$1$ = -112					; size = 16
_x4_l$1$ = -96						; size = 16
_abiased_h$1$ = -96					; size = 16
_t3e_l$1$ = -80						; size = 16
_t3e_h$1$ = -80						; size = 16
_p3$3$ = -64						; size = 16
_t2e_l$1$ = -64						; size = 16
_x4_h$1$ = -64						; size = 16
_x5_l$1$ = -48						; size = 16
_x5_l$1$ = -48						; size = 16
_x6_l$1$ = -32						; size = 16
_abiased_h$1$ = -32					; size = 16
_t2e_h$1$ = -16						; size = 16
_x4_l$1$ = -16						; size = 16
_out$ = 8						; size = 4
_out_stride$ = 12					; size = 4
_data$ = 16						; size = 4
_stbi__idct_simd PROC					; COMDAT

; 2219 : {

	push	ebp
	mov	ebp, esp
	and	esp, -16				; fffffff0H
	sub	esp, 240				; 000000f0H

; 2220 :    // This is constructed to match our regular (generic) integer IDCT exactly.
; 2221 :    __m128i row0, row1, row2, row3, row4, row5, row6, row7;
; 2222 :    __m128i tmp;
; 2223 : 
; 2224 :    // dot product constant: even elems=x, odd elems=y
; 2225 :    #define dct_const(x,y)  _mm_setr_epi16((x),(y),(x),(y),(x),(y),(x),(y))
; 2226 : 
; 2227 :    // out(0) = c0[even]*x + c0[odd]*y   (c0, x, y 16-bit, out 32-bit)
; 2228 :    // out(1) = c1[even]*x + c1[odd]*y
; 2229 :    #define dct_rot(out0,out1, x,y,c0,c1) \
; 2230 :       __m128i c0##lo = _mm_unpacklo_epi16((x),(y)); \
; 2231 :       __m128i c0##hi = _mm_unpackhi_epi16((x),(y)); \
; 2232 :       __m128i out0##_l = _mm_madd_epi16(c0##lo, c0); \
; 2233 :       __m128i out0##_h = _mm_madd_epi16(c0##hi, c0); \
; 2234 :       __m128i out1##_l = _mm_madd_epi16(c0##lo, c1); \
; 2235 :       __m128i out1##_h = _mm_madd_epi16(c0##hi, c1)
; 2236 : 
; 2237 :    // out = in << 12  (in 16-bit, out 32-bit)
; 2238 :    #define dct_widen(out, in) \
; 2239 :       __m128i out##_l = _mm_srai_epi32(_mm_unpacklo_epi16(_mm_setzero_si128(), (in)), 4); \
; 2240 :       __m128i out##_h = _mm_srai_epi32(_mm_unpackhi_epi16(_mm_setzero_si128(), (in)), 4)
; 2241 : 
; 2242 :    // wide add
; 2243 :    #define dct_wadd(out, a, b) \
; 2244 :       __m128i out##_l = _mm_add_epi32(a##_l, b##_l); \
; 2245 :       __m128i out##_h = _mm_add_epi32(a##_h, b##_h)
; 2246 : 
; 2247 :    // wide sub
; 2248 :    #define dct_wsub(out, a, b) \
; 2249 :       __m128i out##_l = _mm_sub_epi32(a##_l, b##_l); \
; 2250 :       __m128i out##_h = _mm_sub_epi32(a##_h, b##_h)
; 2251 : 
; 2252 :    // butterfly a/b, add bias, then shift by "s" and pack
; 2253 :    #define dct_bfly32o(out0, out1, a,b,bias,s) \
; 2254 :       { \
; 2255 :          __m128i abiased_l = _mm_add_epi32(a##_l, bias); \
; 2256 :          __m128i abiased_h = _mm_add_epi32(a##_h, bias); \
; 2257 :          dct_wadd(sum, abiased, b); \
; 2258 :          dct_wsub(dif, abiased, b); \
; 2259 :          out0 = _mm_packs_epi32(_mm_srai_epi32(sum_l, s), _mm_srai_epi32(sum_h, s)); \
; 2260 :          out1 = _mm_packs_epi32(_mm_srai_epi32(dif_l, s), _mm_srai_epi32(dif_h, s)); \
; 2261 :       }
; 2262 : 
; 2263 :    // 8-bit interleave step (for transposes)
; 2264 :    #define dct_interleave8(a, b) \
; 2265 :       tmp = a; \
; 2266 :       a = _mm_unpacklo_epi8(a, b); \
; 2267 :       b = _mm_unpackhi_epi8(tmp, b)
; 2268 : 
; 2269 :    // 16-bit interleave step (for transposes)
; 2270 :    #define dct_interleave16(a, b) \
; 2271 :       tmp = a; \
; 2272 :       a = _mm_unpacklo_epi16(a, b); \
; 2273 :       b = _mm_unpackhi_epi16(tmp, b)
; 2274 : 
; 2275 :    #define dct_pass(bias,shift) \
; 2276 :       { \
; 2277 :          /* even part */ \
; 2278 :          dct_rot(t2e,t3e, row2,row6, rot0_0,rot0_1); \
; 2279 :          __m128i sum04 = _mm_add_epi16(row0, row4); \
; 2280 :          __m128i dif04 = _mm_sub_epi16(row0, row4); \
; 2281 :          dct_widen(t0e, sum04); \
; 2282 :          dct_widen(t1e, dif04); \
; 2283 :          dct_wadd(x0, t0e, t3e); \
; 2284 :          dct_wsub(x3, t0e, t3e); \
; 2285 :          dct_wadd(x1, t1e, t2e); \
; 2286 :          dct_wsub(x2, t1e, t2e); \
; 2287 :          /* odd part */ \
; 2288 :          dct_rot(y0o,y2o, row7,row3, rot2_0,rot2_1); \
; 2289 :          dct_rot(y1o,y3o, row5,row1, rot3_0,rot3_1); \
; 2290 :          __m128i sum17 = _mm_add_epi16(row1, row7); \
; 2291 :          __m128i sum35 = _mm_add_epi16(row3, row5); \
; 2292 :          dct_rot(y4o,y5o, sum17,sum35, rot1_0,rot1_1); \
; 2293 :          dct_wadd(x4, y0o, y4o); \
; 2294 :          dct_wadd(x5, y1o, y5o); \
; 2295 :          dct_wadd(x6, y2o, y5o); \
; 2296 :          dct_wadd(x7, y3o, y4o); \
; 2297 :          dct_bfly32o(row0,row7, x0,x7,bias,shift); \
; 2298 :          dct_bfly32o(row1,row6, x1,x6,bias,shift); \
; 2299 :          dct_bfly32o(row2,row5, x2,x5,bias,shift); \
; 2300 :          dct_bfly32o(row3,row4, x3,x4,bias,shift); \
; 2301 :       }
; 2302 : 
; 2303 :    __m128i rot0_0 = dct_const(stbi__f2f(0.5411961f), stbi__f2f(0.5411961f) + stbi__f2f(-1.847759065f));
; 2304 :    __m128i rot0_1 = dct_const(stbi__f2f(0.5411961f) + stbi__f2f( 0.765366865f), stbi__f2f(0.5411961f));
; 2305 :    __m128i rot1_0 = dct_const(stbi__f2f(1.175875602f) + stbi__f2f(-0.899976223f), stbi__f2f(1.175875602f));
; 2306 :    __m128i rot1_1 = dct_const(stbi__f2f(1.175875602f), stbi__f2f(1.175875602f) + stbi__f2f(-2.562915447f));
; 2307 :    __m128i rot2_0 = dct_const(stbi__f2f(-1.961570560f) + stbi__f2f( 0.298631336f), stbi__f2f(-1.961570560f));
; 2308 :    __m128i rot2_1 = dct_const(stbi__f2f(-1.961570560f), stbi__f2f(-1.961570560f) + stbi__f2f( 3.072711026f));
; 2309 :    __m128i rot3_0 = dct_const(stbi__f2f(-0.390180644f) + stbi__f2f( 2.053119869f), stbi__f2f(-0.390180644f));
; 2310 :    __m128i rot3_1 = dct_const(stbi__f2f(-0.390180644f), stbi__f2f(-0.390180644f) + stbi__f2f( 1.501321110f));
; 2311 : 
; 2312 :    // rounding biases in column/row passes, see stbi__idct_block for explanation.
; 2313 :    __m128i bias_0 = _mm_set1_epi32(512);
; 2314 :    __m128i bias_1 = _mm_set1_epi32(65536 + (128<<17));
; 2315 : 
; 2316 :    // load
; 2317 :    row0 = _mm_load_si128((const __m128i *) (data + 0*8));

	mov	eax, DWORD PTR _data$[ebp]

; 2318 :    row1 = _mm_load_si128((const __m128i *) (data + 1*8));
; 2319 :    row2 = _mm_load_si128((const __m128i *) (data + 2*8));
; 2320 :    row3 = _mm_load_si128((const __m128i *) (data + 3*8));
; 2321 :    row4 = _mm_load_si128((const __m128i *) (data + 4*8));
; 2322 :    row5 = _mm_load_si128((const __m128i *) (data + 5*8));
; 2323 :    row6 = _mm_load_si128((const __m128i *) (data + 6*8));
; 2324 :    row7 = _mm_load_si128((const __m128i *) (data + 7*8));

	movdqa	xmm6, XMMWORD PTR [eax+112]
	movdqa	xmm7, XMMWORD PTR [eax+32]
	movdqa	xmm2, XMMWORD PTR [eax]
	movdqa	XMMWORD PTR _y5o_h$1$[esp+240], xmm6

; 2325 : 
; 2326 :    // column pass
; 2327 :    dct_pass(bias_0, 10);

	movdqa	xmm6, xmm7
	punpcklwd xmm6, XMMWORD PTR [eax+96]
	punpckhwd xmm7, XMMWORD PTR [eax+96]
	movdqa	xmm0, xmm6
	pmaddwd	xmm0, XMMWORD PTR __xmm@eb1a08a9eb1a08a9eb1a08a9eb1a08a9
	pmaddwd	xmm6, XMMWORD PTR __xmm@08a914e808a914e808a914e808a914e8
	movdqa	xmm3, XMMWORD PTR [eax+48]
	movdqa	xmm4, XMMWORD PTR [eax+16]
	movdqa	xmm5, XMMWORD PTR [eax+80]
	movdqa	XMMWORD PTR _t2e_l$1$[esp+240], xmm0
	movdqa	xmm0, xmm7
	pmaddwd	xmm0, XMMWORD PTR __xmm@eb1a08a9eb1a08a9eb1a08a9eb1a08a9
	movdqa	XMMWORD PTR _t3e_l$1$[esp+240], xmm6
	xorps	xmm6, xmm6
	pmaddwd	xmm7, XMMWORD PTR __xmm@08a914e808a914e808a914e808a914e8
	movdqa	xmm1, xmm6
	movdqa	XMMWORD PTR _t2e_h$1$[esp+240], xmm0
	movdqa	xmm0, XMMWORD PTR [eax+64]
	paddw	xmm0, xmm2
	movdqa	XMMWORD PTR _t3e_h$1$[esp+240], xmm7
	psubw	xmm2, XMMWORD PTR [eax+64]
	movdqa	xmm7, xmm5
	punpcklwd xmm1, xmm0
	psrad	xmm1, 4
	punpckhwd xmm7, xmm4
	movdqa	XMMWORD PTR _row4$2$[esp+240], xmm1
	movdqa	xmm1, xmm6
	punpckhwd xmm1, xmm0
	movdqa	xmm0, xmm6
	punpcklwd xmm0, xmm2
	psrad	xmm0, 4
	psrad	xmm1, 4
	movdqa	XMMWORD PTR _row5$2$[esp+240], xmm0
	movdqa	xmm0, xmm6
	punpckhwd xmm0, xmm2
	movdqa	xmm6, xmm5
	movdqa	xmm2, XMMWORD PTR _y5o_h$1$[esp+240]
	paddw	xmm5, xmm3
	psrad	xmm0, 4
	movdqa	XMMWORD PTR _abiased_h$1$[esp+240], xmm1
	movdqa	XMMWORD PTR _abiased_h$1$[esp+240], xmm0
	movdqa	xmm0, xmm2
	punpcklwd xmm0, xmm3
	movdqa	XMMWORD PTR _x6_l$1$[esp+240], xmm0
	movdqa	xmm0, xmm2
	punpckhwd xmm0, xmm3
	paddw	xmm2, xmm4
	movdqa	xmm3, XMMWORD PTR _x6_l$1$[esp+240]
	pmaddwd	xmm3, XMMWORD PTR __xmm@e09ee565e09ee565e09ee565e09ee565
	movdqa	XMMWORD PTR _x6_h$1$[esp+240], xmm0
	movdqa	xmm0, xmm2
	punpcklwd xmm0, xmm5
	movdqa	xmm1, xmm0
	punpckhwd xmm2, xmm5
	pmaddwd	xmm1, XMMWORD PTR __xmm@12d0046b12d0046b12d0046b12d0046b
	pmaddwd	xmm0, XMMWORD PTR __xmm@e9cf12d0e9cf12d0e9cf12d0e9cf12d0
	movdqa	XMMWORD PTR _y5o_h$1$[esp+240], xmm2
	pmaddwd	xmm2, XMMWORD PTR __xmm@12d0046b12d0046b12d0046b12d0046b
	punpcklwd xmm6, xmm4
	movdqa	xmm4, XMMWORD PTR _y5o_h$1$[esp+240]
	paddd	xmm3, xmm1
	pmaddwd	xmm4, XMMWORD PTR __xmm@e9cf12d0e9cf12d0e9cf12d0e9cf12d0
	movdqa	xmm5, xmm6
	pmaddwd	xmm5, XMMWORD PTR __xmm@f9c31a9df9c31a9df9c31a9df9c31a9d
	movdqa	XMMWORD PTR _x4_l$1$[esp+240], xmm3
	movdqa	xmm3, XMMWORD PTR _x6_h$1$[esp+240]
	pmaddwd	xmm3, XMMWORD PTR __xmm@e09ee565e09ee565e09ee565e09ee565
	paddd	xmm5, xmm0
	movdqa	XMMWORD PTR _x5_l$1$[esp+240], xmm5
	movdqa	xmm5, XMMWORD PTR _x6_l$1$[esp+240]
	pmaddwd	xmm5, XMMWORD PTR __xmm@11c8e09e11c8e09e11c8e09e11c8e09e
	paddd	xmm3, xmm2
	movdqa	XMMWORD PTR _x4_h$1$[esp+240], xmm3
	movdqa	xmm3, xmm7
	pmaddwd	xmm3, XMMWORD PTR __xmm@f9c31a9df9c31a9df9c31a9df9c31a9d
	paddd	xmm3, xmm4
	pmaddwd	xmm7, XMMWORD PTR __xmm@11c8f9c311c8f9c311c8f9c311c8f9c3
	paddd	xmm5, xmm0
	pmaddwd	xmm6, XMMWORD PTR __xmm@11c8f9c311c8f9c311c8f9c311c8f9c3
	movdqa	XMMWORD PTR _x6_l$1$[esp+240], xmm5
	movdqa	xmm5, XMMWORD PTR _x6_h$1$[esp+240]
	pmaddwd	xmm5, XMMWORD PTR __xmm@11c8e09e11c8e09e11c8e09e11c8e09e
	paddd	xmm7, xmm2
	movdqa	xmm2, XMMWORD PTR _row4$2$[esp+240]
	paddd	xmm2, XMMWORD PTR _t3e_l$1$[esp+240]
	paddd	xmm6, xmm1
	paddd	xmm2, XMMWORD PTR __xmm@00000200000002000000020000000200
	movdqa	xmm1, XMMWORD PTR _abiased_h$1$[esp+240]
	movdqa	xmm0, xmm2
	paddd	xmm1, XMMWORD PTR _t3e_h$1$[esp+240]
	paddd	xmm0, xmm6
	paddd	xmm1, XMMWORD PTR __xmm@00000200000002000000020000000200
	paddd	xmm5, xmm4
	psrad	xmm0, 10				; 0000000aH
	psubd	xmm2, xmm6
	movdqa	xmm6, XMMWORD PTR _row5$2$[esp+240]
	paddd	xmm6, XMMWORD PTR _t2e_l$1$[esp+240]
	paddd	xmm6, XMMWORD PTR __xmm@00000200000002000000020000000200
	movdqa	XMMWORD PTR _y5o_h$1$[esp+240], xmm0
	movdqa	xmm0, xmm1
	movdqa	xmm4, XMMWORD PTR _y5o_h$1$[esp+240]
	psubd	xmm1, xmm7
	paddd	xmm0, xmm7
	psrad	xmm1, 10				; 0000000aH
	movdqa	xmm7, XMMWORD PTR _abiased_h$1$[esp+240]
	psrad	xmm0, 10				; 0000000aH
	psrad	xmm2, 10				; 0000000aH
	packssdw xmm4, xmm0
	packssdw xmm2, xmm1
	movdqa	xmm1, xmm7
	paddd	xmm1, XMMWORD PTR _t2e_h$1$[esp+240]
	paddd	xmm1, XMMWORD PTR __xmm@00000200000002000000020000000200
	psubd	xmm7, XMMWORD PTR _t2e_h$1$[esp+240]
	movdqa	xmm0, xmm1
	movdqa	XMMWORD PTR _y5o_h$1$[esp+240], xmm4
	psubd	xmm1, xmm5
	movdqa	xmm4, xmm6
	psrad	xmm1, 10				; 0000000aH
	paddd	xmm4, XMMWORD PTR _x6_l$1$[esp+240]
	paddd	xmm0, xmm5
	psubd	xmm6, XMMWORD PTR _x6_l$1$[esp+240]
	movdqa	xmm5, XMMWORD PTR _abiased_h$1$[esp+240]
	psubd	xmm5, XMMWORD PTR _t3e_h$1$[esp+240]
	psrad	xmm0, 10				; 0000000aH
	psrad	xmm4, 10				; 0000000aH
	psrad	xmm6, 10				; 0000000aH
	packssdw xmm4, xmm0
	packssdw xmm6, xmm1
	movdqa	xmm1, XMMWORD PTR _row5$2$[esp+240]
	psubd	xmm1, XMMWORD PTR _t2e_l$1$[esp+240]
	movdqa	XMMWORD PTR _row7$2$[esp+240], xmm2
	movdqa	xmm2, XMMWORD PTR __xmm@00000200000002000000020000000200
	paddd	xmm7, xmm2
	movdqa	XMMWORD PTR _row7$4$[esp+240], xmm4
	paddd	xmm1, xmm2
	movdqa	xmm0, xmm7
	psubd	xmm7, xmm3
	movdqa	xmm4, xmm1
	psubd	xmm1, XMMWORD PTR _x5_l$1$[esp+240]
	paddd	xmm0, xmm3
	paddd	xmm4, XMMWORD PTR _x5_l$1$[esp+240]
	paddd	xmm5, xmm2
	psrad	xmm7, 10				; 0000000aH
	psrad	xmm1, 10				; 0000000aH
	psrad	xmm0, 10				; 0000000aH
	packssdw xmm1, xmm7
	movdqa	xmm7, XMMWORD PTR _row4$2$[esp+240]
	psubd	xmm7, XMMWORD PTR _t3e_l$1$[esp+240]
	psrad	xmm4, 10				; 0000000aH
	paddd	xmm7, xmm2
	movdqa	xmm3, xmm7
	movdqa	XMMWORD PTR _row5$2$[esp+240], xmm1
	paddd	xmm3, XMMWORD PTR _x4_l$1$[esp+240]
	packssdw xmm4, xmm0
	movdqa	xmm0, xmm5
	paddd	xmm0, XMMWORD PTR _x4_h$1$[esp+240]
	psrad	xmm3, 10				; 0000000aH
	psubd	xmm7, XMMWORD PTR _x4_l$1$[esp+240]
	psubd	xmm5, XMMWORD PTR _x4_h$1$[esp+240]

; 2328 : 
; 2329 :    {
; 2330 :       // 16bit 8x8 transpose pass 1
; 2331 :       dct_interleave16(row0, row4);

	movdqa	xmm1, XMMWORD PTR _y5o_h$1$[esp+240]
	psrad	xmm0, 10				; 0000000aH
	psrad	xmm7, 10				; 0000000aH
	packssdw xmm3, xmm0

; 2332 :       dct_interleave16(row1, row5);

	movdqa	xmm0, XMMWORD PTR _row7$4$[esp+240]
	movdqa	xmm2, xmm0
	psrad	xmm5, 10				; 0000000aH
	punpckhwd xmm0, XMMWORD PTR _row5$2$[esp+240]
	punpcklwd xmm2, XMMWORD PTR _row5$2$[esp+240]
	movdqa	XMMWORD PTR _row7$4$[esp+240], xmm0

; 2333 :       dct_interleave16(row2, row6);

	movdqa	xmm0, xmm4
	punpcklwd xmm0, xmm6
	packssdw xmm7, xmm5
	punpckhwd xmm4, xmm6
	movdqa	XMMWORD PTR _row4$2$[esp+240], xmm7
	movdqa	xmm7, xmm1
	punpckhwd xmm1, XMMWORD PTR _row4$2$[esp+240]
	punpcklwd xmm7, XMMWORD PTR _row4$2$[esp+240]
	movdqa	XMMWORD PTR _y5o_h$1$[esp+240], xmm1

; 2334 :       dct_interleave16(row3, row7);
; 2335 : 
; 2336 :       // transpose pass 2
; 2337 :       dct_interleave16(row0, row2);

	movdqa	xmm6, xmm7
	punpcklwd xmm6, xmm0
	movdqa	xmm1, xmm3
	punpcklwd xmm1, XMMWORD PTR _row7$2$[esp+240]
	punpckhwd xmm3, XMMWORD PTR _row7$2$[esp+240]
	punpckhwd xmm7, xmm0

; 2338 :       dct_interleave16(row1, row3);

	movdqa	xmm0, xmm2
	punpcklwd xmm0, xmm1
	punpckhwd xmm2, xmm1

; 2339 :       dct_interleave16(row4, row6);

	movdqa	xmm1, XMMWORD PTR _y5o_h$1$[esp+240]
	movdqa	xmm5, xmm1
	punpckhwd xmm1, xmm4
	movdqa	XMMWORD PTR _y5o_h$1$[esp+240], xmm1
	punpcklwd xmm5, xmm4

; 2340 :       dct_interleave16(row5, row7);

	movdqa	xmm4, XMMWORD PTR _row7$4$[esp+240]
	movdqa	xmm1, xmm4
	punpckhwd xmm4, xmm3
	punpcklwd xmm1, xmm3

; 2341 : 
; 2342 :       // transpose pass 3
; 2343 :       dct_interleave16(row0, row1);

	movdqa	xmm3, xmm6
	punpcklwd xmm3, xmm0
	punpckhwd xmm6, xmm0

; 2344 :       dct_interleave16(row2, row3);

	movdqa	xmm0, xmm7
	punpcklwd xmm0, xmm2
	movdqa	XMMWORD PTR _t3e_h$1$[esp+240], xmm0
	punpckhwd xmm7, xmm2

; 2345 :       dct_interleave16(row4, row5);

	movdqa	xmm2, xmm5
	punpcklwd xmm2, xmm1
	punpckhwd xmm5, xmm1

; 2346 :       dct_interleave16(row6, row7);

	movdqa	xmm1, XMMWORD PTR _y5o_h$1$[esp+240]
	movdqa	xmm0, xmm1
	punpckhwd xmm1, xmm4
	punpcklwd xmm0, xmm4

; 2347 :    }
; 2348 : 
; 2349 :    // row pass
; 2350 :    dct_pass(bias_1, 17);

	movdqa	xmm4, XMMWORD PTR _t3e_h$1$[esp+240]
	movdqa	XMMWORD PTR _y5o_h$1$[esp+240], xmm1
	movdqa	xmm1, xmm4
	punpcklwd xmm1, xmm0
	punpckhwd xmm4, xmm0
	movdqa	xmm0, xmm1
	pmaddwd	xmm0, XMMWORD PTR __xmm@eb1a08a9eb1a08a9eb1a08a9eb1a08a9
	pmaddwd	xmm1, XMMWORD PTR __xmm@08a914e808a914e808a914e808a914e8
	movdqa	XMMWORD PTR _t2e_l$1$[esp+240], xmm0
	movdqa	xmm0, xmm4
	pmaddwd	xmm0, XMMWORD PTR __xmm@eb1a08a9eb1a08a9eb1a08a9eb1a08a9
	pmaddwd	xmm4, XMMWORD PTR __xmm@08a914e808a914e808a914e808a914e8
	movdqa	XMMWORD PTR _t3e_l$1$[esp+240], xmm1
	movdqa	XMMWORD PTR _t2e_h$1$[esp+240], xmm0
	movdqa	xmm0, xmm2
	paddw	xmm0, xmm3
	movdqa	XMMWORD PTR _t3e_h$1$[esp+240], xmm4
	psubw	xmm3, xmm2
	xorps	xmm2, xmm2
	movdqa	xmm1, xmm2
	punpcklwd xmm1, xmm0
	psrad	xmm1, 4
	movdqa	XMMWORD PTR _p2$1$[esp+240], xmm1
	movdqa	xmm1, xmm2
	punpckhwd xmm1, xmm0
	movdqa	xmm0, xmm2
	psrad	xmm1, 4
	movdqa	XMMWORD PTR _abiased_h$1$[esp+240], xmm1
	punpcklwd xmm0, xmm3
	punpckhwd xmm2, xmm3
	movdqa	xmm3, XMMWORD PTR _y5o_h$1$[esp+240]
	psrad	xmm0, 4
	movdqa	xmm4, xmm3
	psrad	xmm2, 4
	movdqa	XMMWORD PTR _abiased_l$1$[esp+240], xmm0
	movdqa	xmm0, xmm3
	punpckhwd xmm0, xmm7
	paddw	xmm3, xmm6
	movdqa	XMMWORD PTR _x6_h$1$[esp+240], xmm0
	movdqa	xmm0, xmm5
	punpcklwd xmm0, xmm6
	movdqa	XMMWORD PTR _x7_l$1$[esp+240], xmm0
	movdqa	xmm0, xmm5
	punpckhwd xmm0, xmm6
	paddw	xmm5, xmm7
	movdqa	XMMWORD PTR _x7_h$1$[esp+240], xmm0
	movdqa	xmm0, xmm3
	punpckhwd xmm3, xmm5
	movdqa	XMMWORD PTR _abiased_h$1$[esp+240], xmm2
	movdqa	xmm2, xmm3
	pmaddwd	xmm3, XMMWORD PTR __xmm@e9cf12d0e9cf12d0e9cf12d0e9cf12d0
	punpcklwd xmm0, xmm5
	movdqa	xmm5, XMMWORD PTR _x6_h$1$[esp+240]
	movdqa	xmm1, xmm0
	pmaddwd	xmm1, XMMWORD PTR __xmm@12d0046b12d0046b12d0046b12d0046b
	pmaddwd	xmm0, XMMWORD PTR __xmm@e9cf12d0e9cf12d0e9cf12d0e9cf12d0
	movdqa	XMMWORD PTR _y5o_h$1$[esp+240], xmm3
	pmaddwd	xmm2, XMMWORD PTR __xmm@12d0046b12d0046b12d0046b12d0046b
	punpcklwd xmm4, xmm7
	movdqa	xmm7, xmm5
	pmaddwd	xmm7, XMMWORD PTR __xmm@e09ee565e09ee565e09ee565e09ee565
	movdqa	xmm3, xmm4
	pmaddwd	xmm3, XMMWORD PTR __xmm@e09ee565e09ee565e09ee565e09ee565
	pmaddwd	xmm4, XMMWORD PTR __xmm@11c8e09e11c8e09e11c8e09e11c8e09e
	pmaddwd	xmm5, XMMWORD PTR __xmm@11c8e09e11c8e09e11c8e09e11c8e09e
	paddd	xmm7, xmm2
	paddd	xmm3, xmm1
	movdqa	XMMWORD PTR _x4_l$1$[esp+240], xmm3
	paddd	xmm4, xmm0
	movdqa	xmm3, XMMWORD PTR _x7_l$1$[esp+240]
	pmaddwd	xmm3, XMMWORD PTR __xmm@f9c31a9df9c31a9df9c31a9df9c31a9d
	paddd	xmm5, XMMWORD PTR _y5o_h$1$[esp+240]
	movdqa	XMMWORD PTR _x6_l$1$[esp+240], xmm4
	movdqa	xmm4, XMMWORD PTR _p2$1$[esp+240]
	paddd	xmm4, XMMWORD PTR _t3e_l$1$[esp+240]
	paddd	xmm3, xmm0
	movdqa	XMMWORD PTR _x6_h$1$[esp+240], xmm5
	movdqa	xmm0, XMMWORD PTR _x7_l$1$[esp+240]
	pmaddwd	xmm0, XMMWORD PTR __xmm@11c8f9c311c8f9c311c8f9c311c8f9c3
	movdqa	XMMWORD PTR _x5_l$1$[esp+240], xmm3
	movdqa	xmm3, XMMWORD PTR _x7_h$1$[esp+240]
	movdqa	xmm6, xmm3
	pmaddwd	xmm3, XMMWORD PTR __xmm@11c8f9c311c8f9c311c8f9c311c8f9c3
	pmaddwd	xmm6, XMMWORD PTR __xmm@f9c31a9df9c31a9df9c31a9df9c31a9d
	paddd	xmm0, xmm1
	movdqa	xmm1, XMMWORD PTR _abiased_l$1$[esp+240]
	paddd	xmm1, XMMWORD PTR _t2e_l$1$[esp+240]
	movdqa	XMMWORD PTR _x7_l$1$[esp+240], xmm0
	paddd	xmm3, xmm2
	movdqa	xmm2, XMMWORD PTR __xmm@01010000010100000101000001010000
	paddd	xmm6, XMMWORD PTR _y5o_h$1$[esp+240]
	paddd	xmm1, xmm2
	movdqa	XMMWORD PTR _p3$1$[esp+240], xmm1
	paddd	xmm4, xmm2
	movdqa	xmm1, XMMWORD PTR _abiased_l$1$[esp+240]
	psubd	xmm1, XMMWORD PTR _t2e_l$1$[esp+240]
	movdqa	XMMWORD PTR _x7_h$1$[esp+240], xmm3
	movdqa	xmm3, XMMWORD PTR _abiased_h$1$[esp+240]
	paddd	xmm3, XMMWORD PTR _t3e_h$1$[esp+240]
	movdqa	XMMWORD PTR _abiased_l$1$[esp+240], xmm1
	paddd	xmm3, xmm2
	movdqa	xmm0, XMMWORD PTR _abiased_l$1$[esp+240]
	movdqa	xmm1, XMMWORD PTR __xmm@01010000010100000101000001010000
	movdqa	xmm2, XMMWORD PTR _abiased_h$1$[esp+240]
	paddd	xmm0, xmm1
	paddd	xmm2, XMMWORD PTR _t2e_h$1$[esp+240]
	paddd	xmm2, XMMWORD PTR __xmm@01010000010100000101000001010000
	movdqa	XMMWORD PTR _abiased_l$1$[esp+240], xmm0
	movdqa	xmm0, XMMWORD PTR _abiased_h$1$[esp+240]
	psubd	xmm0, XMMWORD PTR _t2e_h$1$[esp+240]
	movdqa	xmm5, xmm4
	paddd	xmm0, xmm1
	paddd	xmm5, XMMWORD PTR _x7_l$1$[esp+240]
	movdqa	XMMWORD PTR _abiased_h$1$[esp+240], xmm0
	movdqa	xmm0, XMMWORD PTR _p2$1$[esp+240]
	psubd	xmm0, XMMWORD PTR _t3e_l$1$[esp+240]
	paddd	xmm0, xmm1
	psrad	xmm5, 17				; 00000011H
	movdqa	XMMWORD PTR _p2$1$[esp+240], xmm0
	movdqa	xmm0, XMMWORD PTR _abiased_h$1$[esp+240]
	psubd	xmm0, XMMWORD PTR _t3e_h$1$[esp+240]
	paddd	xmm0, xmm1
	psubd	xmm4, XMMWORD PTR _x7_l$1$[esp+240]
	movdqa	xmm1, XMMWORD PTR _p3$1$[esp+240]
	paddd	xmm1, XMMWORD PTR _x6_l$1$[esp+240]
	movdqa	XMMWORD PTR _abiased_h$1$[esp+240], xmm0
	movdqa	xmm0, xmm3
	paddd	xmm0, XMMWORD PTR _x7_h$1$[esp+240]
	psrad	xmm0, 17				; 00000011H
	psrad	xmm1, 17				; 00000011H
	packssdw xmm5, xmm0
	movdqa	xmm0, xmm2
	paddd	xmm0, XMMWORD PTR _x6_h$1$[esp+240]
	psrad	xmm0, 17				; 00000011H
	psubd	xmm3, XMMWORD PTR _x7_h$1$[esp+240]
	packssdw xmm1, xmm0
	movdqa	xmm0, XMMWORD PTR _abiased_h$1$[esp+240]

; 2351 : 
; 2352 :    {
; 2353 :       // pack
; 2354 :       __m128i p0 = _mm_packus_epi16(row0, row1); // a0a1a2a3...a7b0b1b2b3...b7

	packuswb xmm5, xmm1
	paddd	xmm0, xmm6
	movdqa	xmm1, XMMWORD PTR _p2$1$[esp+240]
	paddd	xmm1, XMMWORD PTR _x4_l$1$[esp+240]
	psrad	xmm0, 17				; 00000011H
	movdqa	XMMWORD PTR _p3$3$[esp+240], xmm5
	movdqa	xmm5, XMMWORD PTR _abiased_l$1$[esp+240]
	paddd	xmm5, XMMWORD PTR _x5_l$1$[esp+240]
	psrad	xmm5, 17				; 00000011H
	psrad	xmm1, 17				; 00000011H
	packssdw xmm5, xmm0
	movdqa	xmm0, XMMWORD PTR _abiased_h$1$[esp+240]
	paddd	xmm0, xmm7
	psubd	xmm2, XMMWORD PTR _x6_h$1$[esp+240]
	psrad	xmm0, 17				; 00000011H
	psrad	xmm4, 17				; 00000011H
	packssdw xmm1, xmm0
	movdqa	xmm0, XMMWORD PTR _abiased_h$1$[esp+240]

; 2355 :       __m128i p1 = _mm_packus_epi16(row2, row3);

	packuswb xmm5, xmm1
	psubd	xmm0, xmm7
	movdqa	xmm1, XMMWORD PTR _p2$1$[esp+240]
	psubd	xmm1, XMMWORD PTR _x4_l$1$[esp+240]
	movdqa	xmm7, XMMWORD PTR _abiased_h$1$[esp+240]
	psrad	xmm0, 17				; 00000011H
	psubd	xmm7, xmm6

; 2356 :       __m128i p2 = _mm_packus_epi16(row4, row5);
; 2357 :       __m128i p3 = _mm_packus_epi16(row6, row7);
; 2358 : 
; 2359 :       // 8bit 8x8 transpose pass 1
; 2360 :       dct_interleave8(p0, p2); // a0e0a1e1...

	movdqa	xmm6, XMMWORD PTR _p3$3$[esp+240]
	psrad	xmm1, 17				; 00000011H
	psrad	xmm7, 17				; 00000011H
	packssdw xmm1, xmm0
	movdqa	xmm0, XMMWORD PTR _abiased_l$1$[esp+240]
	psubd	xmm0, XMMWORD PTR _x5_l$1$[esp+240]
	psrad	xmm0, 17				; 00000011H
	psrad	xmm3, 17				; 00000011H
	packssdw xmm0, xmm7
	packuswb xmm1, xmm0

; 2361 :       dct_interleave8(p1, p3); // c0g0c1g1...

	movdqa	xmm0, xmm5
	movdqa	XMMWORD PTR _p2$1$[esp+240], xmm1
	movdqa	xmm1, XMMWORD PTR _p3$1$[esp+240]
	psubd	xmm1, XMMWORD PTR _x6_l$1$[esp+240]
	packssdw xmm4, xmm3
	psrad	xmm1, 17				; 00000011H
	psrad	xmm2, 17				; 00000011H
	packssdw xmm1, xmm2
	packuswb xmm1, xmm4
	movdqa	xmm4, xmm6
	punpcklbw xmm4, XMMWORD PTR _p2$1$[esp+240]
	punpckhbw xmm6, XMMWORD PTR _p2$1$[esp+240]

; 2362 : 
; 2363 :       // transpose pass 2
; 2364 :       dct_interleave8(p0, p1); // a0c0e0g0...

	movdqa	xmm3, xmm4
	punpcklbw xmm0, xmm1
	punpcklbw xmm3, xmm0
	punpckhbw xmm4, xmm0

; 2365 :       dct_interleave8(p2, p3); // b0d0f0h0...

	movdqa	xmm0, xmm6
	punpckhbw xmm5, xmm1

; 2366 : 
; 2367 :       // transpose pass 3
; 2368 :       dct_interleave8(p0, p2); // a0b0c0d0...
; 2369 :       dct_interleave8(p1, p3); // a4b4c4d4...
; 2370 : 
; 2371 :       // store
; 2372 :       _mm_storel_epi64((__m128i *) out, p0); out += out_stride;

	mov	ecx, DWORD PTR _out$[ebp]
	movdqa	xmm1, xmm3
	mov	eax, DWORD PTR _out_stride$[ebp]
	movdqa	xmm2, xmm4
	punpcklbw xmm0, xmm5
	punpcklbw xmm1, xmm0
	movq	QWORD PTR [ecx], xmm1
	add	ecx, eax
	punpckhbw xmm3, xmm0

; 2373 :       _mm_storel_epi64((__m128i *) out, _mm_shuffle_epi32(p0, 0x4e)); out += out_stride;

	pshufd	xmm0, xmm1, 78				; 0000004eH
	punpckhbw xmm6, xmm5
	movq	QWORD PTR [ecx], xmm0
	add	ecx, eax

; 2374 :       _mm_storel_epi64((__m128i *) out, p2); out += out_stride;
; 2375 :       _mm_storel_epi64((__m128i *) out, _mm_shuffle_epi32(p2, 0x4e)); out += out_stride;

	pshufd	xmm0, xmm3, 78				; 0000004eH
	punpcklbw xmm2, xmm6
	punpckhbw xmm4, xmm6
	movq	QWORD PTR [ecx], xmm3
	add	ecx, eax
	movq	QWORD PTR [ecx], xmm0
	add	ecx, eax

; 2376 :       _mm_storel_epi64((__m128i *) out, p1); out += out_stride;
; 2377 :       _mm_storel_epi64((__m128i *) out, _mm_shuffle_epi32(p1, 0x4e)); out += out_stride;

	pshufd	xmm0, xmm2, 78				; 0000004eH
	movq	QWORD PTR [ecx], xmm2
	add	ecx, eax
	movq	QWORD PTR [ecx], xmm0
	add	ecx, eax

; 2378 :       _mm_storel_epi64((__m128i *) out, p3); out += out_stride;
; 2379 :       _mm_storel_epi64((__m128i *) out, _mm_shuffle_epi32(p3, 0x4e));

	pshufd	xmm0, xmm4, 78				; 0000004eH
	movq	QWORD PTR [ecx], xmm4
	movq	QWORD PTR [ecx+eax], xmm0

; 2380 :    }
; 2381 : 
; 2382 : #undef dct_const
; 2383 : #undef dct_rot
; 2384 : #undef dct_widen
; 2385 : #undef dct_wadd
; 2386 : #undef dct_wsub
; 2387 : #undef dct_bfly32o
; 2388 : #undef dct_interleave8
; 2389 : #undef dct_interleave16
; 2390 : #undef dct_pass
; 2391 : }

	mov	esp, ebp
	pop	ebp
	ret	0
_stbi__idct_simd ENDP
_TEXT	ENDS
; Function compile flags: /Ogtp
; File c:\users\marcos\desktop\prj\mgear-1\apis\stb\stb_image.h
;	COMDAT _resample_row_1
_TEXT	SEGMENT
_out$ = 8						; size = 4
_in_near$ = 12						; size = 4
_in_far$ = 16						; size = 4
_w$ = 20						; size = 4
_hs$ = 24						; size = 4
_resample_row_1 PROC					; COMDAT

; 3116 : {

	push	ebp
	mov	ebp, esp

; 3117 :    STBI_NOTUSED(out);
; 3118 :    STBI_NOTUSED(in_far);
; 3119 :    STBI_NOTUSED(w);
; 3120 :    STBI_NOTUSED(hs);
; 3121 :    return in_near;

	mov	eax, DWORD PTR _in_near$[ebp]

; 3122 : }

	pop	ebp
	ret	0
_resample_row_1 ENDP
_TEXT	ENDS
; Function compile flags: /Ogtp
; File c:\users\marcos\desktop\prj\mgear-1\apis\stb\stb_image.h
;	COMDAT _stbi__resample_row_v_2
_TEXT	SEGMENT
_out$ = 8						; size = 4
_in_near$ = 12						; size = 4
_in_far$ = 16						; size = 4
tv222 = 20						; size = 4
_w$ = 20						; size = 4
_hs$ = 24						; size = 4
_stbi__resample_row_v_2 PROC				; COMDAT

; 3125 : {

	push	ebp
	mov	ebp, esp

; 3126 :    // need to generate two samples vertically for every one in input
; 3127 :    int i;
; 3128 :    STBI_NOTUSED(hs);
; 3129 :    for (i=0; i < w; ++i)

	mov	eax, DWORD PTR _out$[ebp]
	push	edi
	mov	edi, DWORD PTR _w$[ebp]
	test	edi, edi
	jle	SHORT $LN1@stbi__resa
	mov	ecx, DWORD PTR _in_far$[ebp]
	push	ebx
	mov	ebx, DWORD PTR _in_near$[ebp]
	sub	ebx, ecx
	sub	eax, ecx
	push	esi
	mov	DWORD PTR tv222[ebp], eax
	npad	3
$LL3@stbi__resa:

; 3130 :       out[i] = stbi__div4(3*in_near[i] + in_far[i] + 2);

	movzx	eax, BYTE PTR [ebx+ecx]
	lea	ecx, DWORD PTR [ecx+1]
	movzx	edx, BYTE PTR [ecx-1]
	add	edx, 2
	lea	esi, DWORD PTR [eax+eax*2]
	mov	eax, DWORD PTR tv222[ebp]
	add	edx, esi
	sar	edx, 2
	mov	BYTE PTR [eax+ecx-1], dl
	dec	edi
	jne	SHORT $LL3@stbi__resa

; 3131 :    return out;

	mov	eax, DWORD PTR _out$[ebp]
	pop	esi
	pop	ebx
$LN1@stbi__resa:
	pop	edi

; 3132 : }

	pop	ebp
	ret	0
_stbi__resample_row_v_2 ENDP
_TEXT	ENDS
; Function compile flags: /Ogtp
; File c:\users\marcos\desktop\prj\mgear-1\apis\stb\stb_image.h
;	COMDAT _stbi__resample_row_h_2
_TEXT	SEGMENT
tv214 = -4						; size = 4
_out$ = 8						; size = 4
_in_near$ = 12						; size = 4
_in_far$ = 16						; size = 4
_w$ = 20						; size = 4
_hs$ = 24						; size = 4
_stbi__resample_row_h_2 PROC				; COMDAT

; 3135 : {

	push	ebp
	mov	ebp, esp
	push	ecx
	push	ebx

; 3136 :    // need to generate two samples horizontally for every one in input
; 3137 :    int i;
; 3138 :    stbi_uc *input = in_near;
; 3139 : 
; 3140 :    if (w == 1) {

	mov	ebx, DWORD PTR _w$[ebp]
	cmp	ebx, 1
	jne	SHORT $LN4@stbi__resa

; 3141 :       // if only one sample, can't do any interpolation
; 3142 :       out[0] = out[1] = input[0];

	mov	eax, DWORD PTR _in_near$[ebp]
	pop	ebx
	mov	cl, BYTE PTR [eax]
	mov	eax, DWORD PTR _out$[ebp]
	mov	BYTE PTR [eax+1], cl
	mov	BYTE PTR [eax], cl

; 3160 : }

	mov	esp, ebp
	pop	ebp
	ret	0
$LN4@stbi__resa:

; 3143 :       return out;
; 3144 :    }
; 3145 : 
; 3146 :    out[0] = input[0];

	mov	edx, DWORD PTR _in_near$[ebp]
	push	esi
	push	edi
	mov	edi, DWORD PTR _out$[ebp]

; 3147 :    out[1] = stbi__div4(input[0]*3 + input[1] + 2);
; 3148 :    for (i=1; i < w-1; ++i) {

	mov	esi, 1
	mov	al, BYTE PTR [edx]
	mov	BYTE PTR [edi], al
	movzx	eax, BYTE PTR [edx]
	lea	ecx, DWORD PTR [eax+eax*2]
	movzx	eax, BYTE PTR [edx+1]
	add	eax, 2
	add	eax, ecx
	sar	eax, 2
	mov	BYTE PTR [edi+1], al
	lea	eax, DWORD PTR [ebx-1]
	cmp	eax, esi
	jle	SHORT $LN1@stbi__resa
	mov	ebx, eax
	npad	2
$LL3@stbi__resa:

; 3149 :       int n = 3*input[i]+2;

	movzx	eax, BYTE PTR [edx+esi]
	lea	ecx, DWORD PTR [eax+1]
	lea	ecx, DWORD PTR [eax+ecx*2]

; 3150 :       out[i*2+0] = stbi__div4(n+input[i-1]);

	movzx	eax, BYTE PTR [edx+esi-1]
	add	eax, ecx
	sar	eax, 2
	mov	BYTE PTR [edi+esi*2], al

; 3151 :       out[i*2+1] = stbi__div4(n+input[i+1]);

	movzx	eax, BYTE PTR [edx+esi+1]
	add	eax, ecx
	sar	eax, 2
	mov	BYTE PTR [edi+esi*2+1], al
	inc	esi
	cmp	esi, ebx
	jl	SHORT $LL3@stbi__resa
	mov	ebx, DWORD PTR _w$[ebp]
$LN1@stbi__resa:

; 3152 :    }
; 3153 :    out[i*2+0] = stbi__div4(input[w-2]*3 + input[w-1] + 2);

	movzx	ecx, BYTE PTR [edx+ebx-2]
	mov	eax, DWORD PTR _in_near$[ebp]
	lea	edx, DWORD PTR [ecx+ecx*2]
	movzx	ecx, BYTE PTR [eax+ebx-1]
	add	ecx, 2
	add	ecx, edx
	sar	ecx, 2
	mov	BYTE PTR [edi+esi*2], cl

; 3154 :    out[i*2+1] = input[w-1];

	mov	cl, BYTE PTR [eax+ebx-1]

; 3155 : 
; 3156 :    STBI_NOTUSED(in_far);
; 3157 :    STBI_NOTUSED(hs);
; 3158 : 
; 3159 :    return out;

	mov	eax, edi
	mov	BYTE PTR [edi+esi*2+1], cl
	pop	edi
	pop	esi
	pop	ebx

; 3160 : }

	mov	esp, ebp
	pop	ebp
	ret	0
_stbi__resample_row_h_2 ENDP
_TEXT	ENDS
; Function compile flags: /Ogtp
; File c:\users\marcos\desktop\prj\mgear-1\apis\stb\stb_image.h
;	COMDAT _stbi__resample_row_hv_2
_TEXT	SEGMENT
_in_near$1$ = -8					; size = 4
_i$1$ = -4						; size = 4
_out$ = 8						; size = 4
_in_near$ = 12						; size = 4
_in_far$ = 16						; size = 4
_w$ = 20						; size = 4
_hs$ = 24						; size = 4
_stbi__resample_row_hv_2 PROC				; COMDAT

; 3165 : {

	push	ebp
	mov	ebp, esp

; 3166 :    // need to generate 2x2 samples for every one in input
; 3167 :    int i,t0,t1;
; 3168 :    if (w == 1) {
; 3169 :       out[0] = out[1] = stbi__div4(3*in_near[0] + in_far[0] + 2);

	mov	eax, DWORD PTR _in_near$[ebp]
	sub	esp, 8
	movzx	eax, BYTE PTR [eax]
	push	edi
	mov	edi, DWORD PTR _w$[ebp]
	cmp	edi, 1
	jne	SHORT $LN4@stbi__resa
	lea	ecx, DWORD PTR [eax+eax*2]
	mov	eax, DWORD PTR _in_far$[ebp]
	pop	edi
	movzx	eax, BYTE PTR [eax]
	add	eax, 2
	add	ecx, eax
	mov	eax, DWORD PTR _out$[ebp]
	sar	ecx, 2
	mov	BYTE PTR [eax+1], cl
	mov	BYTE PTR [eax], cl

; 3186 : }

	mov	esp, ebp
	pop	ebp
	ret	0
$LN4@stbi__resa:

; 3170 :       return out;
; 3171 :    }
; 3172 : 
; 3173 :    t1 = 3*in_near[0] + in_far[0];

	mov	edx, DWORD PTR _in_far$[ebp]
	lea	eax, DWORD PTR [eax+eax*2]
	push	esi

; 3174 :    out[0] = stbi__div4(t1+2);

	mov	esi, DWORD PTR _out$[ebp]

; 3175 :    for (i=1; i < w; ++i) {

	mov	DWORD PTR _i$1$[ebp], 1
	movzx	ecx, BYTE PTR [edx]
	add	eax, ecx
	lea	ecx, DWORD PTR [eax+2]
	sar	ecx, 2
	mov	BYTE PTR [esi], cl
	cmp	edi, 1
	jle	SHORT $LN1@stbi__resa
	mov	ecx, DWORD PTR _in_near$[ebp]
	sub	ecx, edx
	push	ebx
	lea	ebx, DWORD PTR [edx+1]
	mov	DWORD PTR _in_near$1$[ebp], ecx
$LL3@stbi__resa:

; 3176 :       t0 = t1;
; 3177 :       t1 = 3*in_near[i]+in_far[i];
; 3178 :       out[i*2-1] = stbi__div16(3*t0 + t1 + 8);

	mov	edi, DWORD PTR _i$1$[ebp]
	lea	ebx, DWORD PTR [ebx+1]
	mov	edx, eax
	movzx	eax, BYTE PTR [ecx+ebx-1]
	movzx	ecx, BYTE PTR [ebx-1]
	lea	eax, DWORD PTR [eax+eax*2]
	add	eax, ecx
	lea	ecx, DWORD PTR [edx+4]
	lea	ecx, DWORD PTR [eax+ecx*2]
	add	ecx, edx
	sar	ecx, 4
	mov	BYTE PTR [esi+edi*2-1], cl

; 3179 :       out[i*2  ] = stbi__div16(3*t1 + t0 + 8);

	lea	ecx, DWORD PTR [edx+8]
	lea	ecx, DWORD PTR [ecx+eax*2]
	mov	edx, edi
	mov	edi, DWORD PTR _w$[ebp]
	add	ecx, eax
	sar	ecx, 4
	mov	BYTE PTR [esi+edx*2], cl
	inc	edx
	mov	ecx, DWORD PTR _in_near$1$[ebp]
	mov	DWORD PTR _i$1$[ebp], edx
	cmp	edx, edi
	jl	SHORT $LL3@stbi__resa
	pop	ebx
$LN1@stbi__resa:

; 3180 :    }
; 3181 :    out[w*2-1] = stbi__div4(t1+2);

	add	eax, 2
	sar	eax, 2
	mov	BYTE PTR [esi+edi*2-1], al

; 3182 : 
; 3183 :    STBI_NOTUSED(hs);
; 3184 : 
; 3185 :    return out;

	mov	eax, esi
	pop	esi
	pop	edi

; 3186 : }

	mov	esp, ebp
	pop	ebp
	ret	0
_stbi__resample_row_hv_2 ENDP
_TEXT	ENDS
; Function compile flags: /Ogtp
; File c:\users\marcos\desktop\prj\mgear-1\apis\stb\stb_image.h
;	COMDAT _stbi__resample_row_hv_2_simd
_TEXT	SEGMENT
_t0$1$ = -20						; size = 4
tv638 = -16						; size = 4
tv680 = -12						; size = 4
tv683 = -8						; size = 4
_in_near$1$ = -8					; size = 4
tv677 = -4						; size = 4
_t0$2$ = -4						; size = 4
_out$ = 8						; size = 4
_in_near$ = 12						; size = 4
_in_far$ = 16						; size = 4
_w$ = 20						; size = 4
_hs$ = 24						; size = 4
_stbi__resample_row_hv_2_simd PROC			; COMDAT

; 3190 : {

	push	ebp
	mov	ebp, esp
	and	esp, -8					; fffffff8H
	sub	esp, 24					; 00000018H
	push	esi
	push	edi

; 3191 :    // need to generate 2x2 samples for every one in input
; 3192 :    int i=0,t0,t1;
; 3193 : 
; 3194 :    if (w == 1) {

	mov	edi, DWORD PTR _w$[ebp]
	xor	esi, esi
	cmp	edi, 1
	jne	SHORT $LN7@stbi__resa

; 3195 :       out[0] = out[1] = stbi__div4(3*in_near[0] + in_far[0] + 2);

	mov	eax, DWORD PTR _in_near$[ebp]
	movzx	eax, BYTE PTR [eax]
	lea	ecx, DWORD PTR [eax+eax*2]
	mov	eax, DWORD PTR _in_far$[ebp]
	movzx	eax, BYTE PTR [eax]
	add	eax, 2
	add	ecx, eax
	mov	eax, DWORD PTR _out$[ebp]
	sar	ecx, 2
	mov	BYTE PTR [eax+1], cl
	mov	BYTE PTR [eax], cl

; 3302 : }

	pop	edi
	pop	esi
	mov	esp, ebp
	pop	ebp
	ret	0
$LN7@stbi__resa:

; 3196 :       return out;
; 3197 :    }
; 3198 : 
; 3199 :    t1 = 3*in_near[0] + in_far[0];

	mov	edx, DWORD PTR _in_near$[ebp]
	mov	ecx, DWORD PTR _in_far$[ebp]
	movzx	eax, BYTE PTR [edx]
	lea	eax, DWORD PTR [eax+eax*2]
	mov	DWORD PTR _t0$1$[esp+32], eax
	movzx	eax, BYTE PTR [ecx]
	add	DWORD PTR _t0$1$[esp+32], eax

; 3200 :    // process groups of 8 pixels for as long as we can.
; 3201 :    // note we can't handle the last pixel in a row in this loop
; 3202 :    // because we need to handle the filter boundary conditions.
; 3203 :    for (; i < ((w-1) & ~7); i += 8) {

	lea	eax, DWORD PTR [edi-1]
	and	eax, -8					; fffffff8H
	mov	DWORD PTR tv683[esp+32], eax
	jle	$LN4@stbi__resa

; 3196 :       return out;
; 3197 :    }
; 3198 : 
; 3199 :    t1 = 3*in_near[0] + in_far[0];

	mov	eax, DWORD PTR _out$[ebp]
	mov	edi, ecx
	movdqa	xmm5, XMMWORD PTR __xmm@00080008000800080008000800080008
	xorps	xmm4, xmm4
	mov	DWORD PTR tv638[esp+32], eax

; 3200 :    // process groups of 8 pixels for as long as we can.
; 3201 :    // note we can't handle the last pixel in a row in this loop
; 3202 :    // because we need to handle the filter boundary conditions.
; 3203 :    for (; i < ((w-1) & ~7); i += 8) {

	mov	eax, edx
	sub	eax, ecx
	lea	ecx, DWORD PTR [edx+7]
	mov	edx, DWORD PTR tv683[esp+32]
	mov	DWORD PTR tv680[esp+32], ecx
	mov	ecx, DWORD PTR _t0$1$[esp+32]
	mov	DWORD PTR tv677[esp+32], eax
	npad	4
$LL6@stbi__resa:

; 3204 : #if defined(STBI_SSE2)
; 3205 :       // load and perform the vertical filtering pass
; 3206 :       // this uses 3*x + y = 4*x + (y - x)
; 3207 :       __m128i zero  = _mm_setzero_si128();
; 3208 :       __m128i farb  = _mm_loadl_epi64((__m128i *) (in_far + i));
; 3209 :       __m128i nearb = _mm_loadl_epi64((__m128i *) (in_near + i));

	movq	xmm0, QWORD PTR [eax+edi]
	lea	edi, DWORD PTR [edi+8]
	movq	xmm3, QWORD PTR [edi-8]

; 3210 :       __m128i farw  = _mm_unpacklo_epi8(farb, zero);
; 3211 :       __m128i nearw = _mm_unpacklo_epi8(nearb, zero);
; 3212 :       __m128i diff  = _mm_sub_epi16(farw, nearw);
; 3213 :       __m128i nears = _mm_slli_epi16(nearw, 2);
; 3214 :       __m128i curr  = _mm_add_epi16(nears, diff); // current row
; 3215 : 
; 3216 :       // horizontal filter works the same based on shifted vers of current
; 3217 :       // row. "prev" is current row shifted right by 1 pixel; we need to
; 3218 :       // insert the previous pixel value (from t1).
; 3219 :       // "next" is current row shifted left by 1 pixel, with first pixel
; 3220 :       // of next block of 8 pixels added in.
; 3221 :       __m128i prv0 = _mm_slli_si128(curr, 2);
; 3222 :       __m128i nxt0 = _mm_srli_si128(curr, 2);
; 3223 :       __m128i prev = _mm_insert_epi16(prv0, t1, 0);
; 3224 :       __m128i next = _mm_insert_epi16(nxt0, 3*in_near[i+8] + in_far[i+8], 7);

	mov	eax, DWORD PTR tv680[esp+32]
	punpcklbw xmm0, xmm4
	punpcklbw xmm3, xmm4
	psubw	xmm3, xmm0
	psllw	xmm0, 2
	movzx	eax, BYTE PTR [eax+esi+1]
	paddw	xmm3, xmm0
	movdqa	xmm2, xmm3

; 3225 : 
; 3226 :       // horizontal filter, polyphase implementation since it's convenient:
; 3227 :       // even pixels = 3*cur + prev = cur*4 + (prev - cur)
; 3228 :       // odd  pixels = 3*cur + next = cur*4 + (next - cur)
; 3229 :       // note the shared term.
; 3230 :       __m128i bias  = _mm_set1_epi16(8);
; 3231 :       __m128i curs = _mm_slli_epi16(curr, 2);

	movdqa	xmm0, xmm3
	pslldq	xmm2, 2
	movdqa	xmm1, xmm3
	pinsrw	xmm2, ecx, 0
	lea	ecx, DWORD PTR [eax+eax*2]
	movzx	eax, BYTE PTR [edi]

; 3232 :       __m128i prvd = _mm_sub_epi16(prev, curr);

	psubw	xmm2, xmm3
	add	ecx, eax
	psllw	xmm0, 2

; 3233 :       __m128i nxtd = _mm_sub_epi16(next, curr);
; 3234 :       __m128i curb = _mm_add_epi16(curs, bias);
; 3235 :       __m128i even = _mm_add_epi16(prvd, curb);
; 3236 :       __m128i odd  = _mm_add_epi16(nxtd, curb);
; 3237 : 
; 3238 :       // interleave even and odd pixels, then undo scaling.
; 3239 :       __m128i int0 = _mm_unpacklo_epi16(even, odd);
; 3240 :       __m128i int1 = _mm_unpackhi_epi16(even, odd);
; 3241 :       __m128i de0  = _mm_srli_epi16(int0, 4);
; 3242 :       __m128i de1  = _mm_srli_epi16(int1, 4);
; 3243 : 
; 3244 :       // pack and write output
; 3245 :       __m128i outv = _mm_packus_epi16(de0, de1);
; 3246 :       _mm_storeu_si128((__m128i *) (out + i*2), outv);

	mov	eax, DWORD PTR tv638[esp+32]
	paddw	xmm0, xmm5
	psrldq	xmm1, 2
	add	DWORD PTR tv638[esp+32], 16		; 00000010H
	paddw	xmm2, xmm0
	pinsrw	xmm1, ecx, 7
	psubw	xmm1, xmm3
	paddw	xmm1, xmm0
	movdqa	xmm0, xmm2
	punpcklwd xmm0, xmm1
	punpckhwd xmm2, xmm1
	psrlw	xmm0, 4
	psrlw	xmm2, 4
	packuswb xmm0, xmm2
	movdqu	XMMWORD PTR [eax], xmm0

; 3247 : #elif defined(STBI_NEON)
; 3248 :       // load and perform the vertical filtering pass
; 3249 :       // this uses 3*x + y = 4*x + (y - x)
; 3250 :       uint8x8_t farb  = vld1_u8(in_far + i);
; 3251 :       uint8x8_t nearb = vld1_u8(in_near + i);
; 3252 :       int16x8_t diff  = vreinterpretq_s16_u16(vsubl_u8(farb, nearb));
; 3253 :       int16x8_t nears = vreinterpretq_s16_u16(vshll_n_u8(nearb, 2));
; 3254 :       int16x8_t curr  = vaddq_s16(nears, diff); // current row
; 3255 : 
; 3256 :       // horizontal filter works the same based on shifted vers of current
; 3257 :       // row. "prev" is current row shifted right by 1 pixel; we need to
; 3258 :       // insert the previous pixel value (from t1).
; 3259 :       // "next" is current row shifted left by 1 pixel, with first pixel
; 3260 :       // of next block of 8 pixels added in.
; 3261 :       int16x8_t prv0 = vextq_s16(curr, curr, 7);
; 3262 :       int16x8_t nxt0 = vextq_s16(curr, curr, 1);
; 3263 :       int16x8_t prev = vsetq_lane_s16(t1, prv0, 0);
; 3264 :       int16x8_t next = vsetq_lane_s16(3*in_near[i+8] + in_far[i+8], nxt0, 7);
; 3265 : 
; 3266 :       // horizontal filter, polyphase implementation since it's convenient:
; 3267 :       // even pixels = 3*cur + prev = cur*4 + (prev - cur)
; 3268 :       // odd  pixels = 3*cur + next = cur*4 + (next - cur)
; 3269 :       // note the shared term.
; 3270 :       int16x8_t curs = vshlq_n_s16(curr, 2);
; 3271 :       int16x8_t prvd = vsubq_s16(prev, curr);
; 3272 :       int16x8_t nxtd = vsubq_s16(next, curr);
; 3273 :       int16x8_t even = vaddq_s16(curs, prvd);
; 3274 :       int16x8_t odd  = vaddq_s16(curs, nxtd);
; 3275 : 
; 3276 :       // undo scaling and round, then store with even/odd phases interleaved
; 3277 :       uint8x8x2_t o;
; 3278 :       o.val[0] = vqrshrun_n_s16(even, 4);
; 3279 :       o.val[1] = vqrshrun_n_s16(odd,  4);
; 3280 :       vst2_u8(out + i*2, o);
; 3281 : #endif
; 3282 : 
; 3283 :       // "previous" value for next iter
; 3284 :       t1 = 3*in_near[i+7] + in_far[i+7];

	mov	eax, DWORD PTR tv680[esp+32]
	movzx	eax, BYTE PTR [eax+esi]
	add	esi, 8
	lea	ecx, DWORD PTR [eax+eax*2]
	movzx	eax, BYTE PTR [edi-1]
	add	ecx, eax
	mov	eax, DWORD PTR tv677[esp+32]
	cmp	esi, edx
	jl	$LL6@stbi__resa
	mov	edx, DWORD PTR _in_near$[ebp]
	mov	edi, DWORD PTR _w$[ebp]
	mov	DWORD PTR _t0$1$[esp+32], ecx
	mov	ecx, DWORD PTR _in_far$[ebp]
$LN4@stbi__resa:

; 3285 :    }
; 3286 : 
; 3287 :    t0 = t1;
; 3288 :    t1 = 3*in_near[i] + in_far[i];

	movzx	eax, BYTE PTR [esi+edx]
	movzx	ecx, BYTE PTR [esi+ecx]

; 3289 :    out[i*2] = stbi__div16(3*t1 + t0 + 8);

	mov	edx, DWORD PTR _out$[ebp]
	lea	eax, DWORD PTR [eax+eax*2]
	add	eax, ecx
	mov	ecx, DWORD PTR _t0$1$[esp+32]
	lea	ecx, DWORD PTR [ecx+eax*2]
	add	ecx, 8
	add	ecx, eax
	sar	ecx, 4
	mov	BYTE PTR [edx+esi*2], cl

; 3290 : 
; 3291 :    for (++i; i < w; ++i) {

	inc	esi
	cmp	esi, edi
	jge	SHORT $LN1@stbi__resa
	mov	edx, DWORD PTR _in_far$[ebp]
	mov	ecx, DWORD PTR _in_near$[ebp]
	sub	ecx, edx
	mov	DWORD PTR _in_near$1$[esp+32], ecx
	lea	edi, DWORD PTR [esi+edx]
$LL3@stbi__resa:

; 3292 :       t0 = t1;

	mov	edx, eax
	lea	edi, DWORD PTR [edi+1]

; 3293 :       t1 = 3*in_near[i]+in_far[i];

	movzx	eax, BYTE PTR [edi+ecx-1]
	movzx	ecx, BYTE PTR [edi-1]
	mov	DWORD PTR _t0$2$[esp+32], edx
	lea	eax, DWORD PTR [eax+eax*2]
	add	eax, ecx

; 3294 :       out[i*2-1] = stbi__div16(3*t0 + t1 + 8);

	lea	ecx, DWORD PTR [eax+edx*2]
	add	edx, 8
	add	ecx, edx
	mov	edx, DWORD PTR _out$[ebp]
	sar	ecx, 4
	mov	BYTE PTR [edx+esi*2-1], cl

; 3295 :       out[i*2  ] = stbi__div16(3*t1 + t0 + 8);

	mov	ecx, DWORD PTR _t0$2$[esp+32]
	add	ecx, 8
	lea	ecx, DWORD PTR [ecx+eax*2]
	add	ecx, eax
	sar	ecx, 4
	mov	BYTE PTR [edx+esi*2], cl
	inc	esi
	mov	ecx, DWORD PTR _in_near$1$[esp+32]
	cmp	esi, DWORD PTR _w$[ebp]
	jl	SHORT $LL3@stbi__resa
	mov	edi, DWORD PTR _w$[ebp]
$LN1@stbi__resa:

; 3296 :    }
; 3297 :    out[w*2-1] = stbi__div4(t1+2);

	mov	ecx, DWORD PTR _out$[ebp]
	add	eax, 2
	sar	eax, 2
	mov	BYTE PTR [ecx+edi*2-1], al

; 3298 : 
; 3299 :    STBI_NOTUSED(hs);
; 3300 : 
; 3301 :    return out;

	mov	eax, ecx

; 3302 : }

	pop	edi
	pop	esi
	mov	esp, ebp
	pop	ebp
	ret	0
_stbi__resample_row_hv_2_simd ENDP
_TEXT	ENDS
; Function compile flags: /Ogtp
; File c:\users\marcos\desktop\prj\mgear-1\apis\stb\stb_image.h
;	COMDAT _stbi__resample_row_generic
_TEXT	SEGMENT
_out$ = 8						; size = 4
_in_near$ = 12						; size = 4
_in_far$ = 16						; size = 4
_w$ = 20						; size = 4
_hs$ = 24						; size = 4
_stbi__resample_row_generic PROC			; COMDAT

; 3306 : {

	push	ebp
	mov	ebp, esp

; 3307 :    // resample with nearest-neighbor
; 3308 :    int i,j;
; 3309 :    STBI_NOTUSED(in_far);
; 3310 :    for (i=0; i < w; ++i)

	xor	edx, edx
	cmp	DWORD PTR _w$[ebp], edx
	jle	SHORT $LN17@stbi__resa
	push	ebx
	mov	ebx, DWORD PTR _in_near$[ebp]
	push	esi
	mov	esi, DWORD PTR _out$[ebp]
	push	edi
	mov	edi, DWORD PTR _hs$[ebp]
$LL6@stbi__resa:

; 3311 :       for (j=0; j < hs; ++j)

	xor	eax, eax
	test	edi, edi
	jle	SHORT $LN5@stbi__resa
	npad	4
$LL3@stbi__resa:

; 3312 :          out[i*hs+j] = in_near[i];

	mov	cl, BYTE PTR [edx+ebx]
	mov	BYTE PTR [esi+eax], cl
	inc	eax
	cmp	eax, edi
	jl	SHORT $LL3@stbi__resa
$LN5@stbi__resa:

; 3307 :    // resample with nearest-neighbor
; 3308 :    int i,j;
; 3309 :    STBI_NOTUSED(in_far);
; 3310 :    for (i=0; i < w; ++i)

	inc	edx
	add	esi, edi
	cmp	edx, DWORD PTR _w$[ebp]
	jl	SHORT $LL6@stbi__resa
	pop	edi
	pop	esi
	pop	ebx
$LN17@stbi__resa:

; 3313 :    return out;

	mov	eax, DWORD PTR _out$[ebp]

; 3314 : }

	pop	ebp
	ret	0
_stbi__resample_row_generic ENDP
_TEXT	ENDS
; Function compile flags: /Ogtp
; File c:\users\marcos\desktop\prj\mgear-1\apis\stb\stb_image.h
;	COMDAT _stbi__YCbCr_to_RGB_row
_TEXT	SEGMENT
_out$ = 8						; size = 4
_y$ = 12						; size = 4
_pcb$ = 16						; size = 4
_pcr$ = 20						; size = 4
_count$ = 24						; size = 4
_step$ = 28						; size = 4
_stbi__YCbCr_to_RGB_row PROC				; COMDAT

; 3320 : {

	push	ebp
	mov	ebp, esp

; 3321 :    int i;
; 3322 :    for (i=0; i < count; ++i) {

	cmp	DWORD PTR _count$[ebp], 0
	jle	$LN10@stbi__YCbC

; 3339 :       out[3] = 255;

	mov	edx, DWORD PTR _y$[ebp]
	mov	eax, DWORD PTR _pcr$[ebp]
	sub	edx, eax
	push	ebx
	mov	ebx, DWORD PTR _pcb$[ebp]
	push	esi
	push	edi
	mov	edi, DWORD PTR _out$[ebp]
	add	edi, 2
	mov	DWORD PTR _y$[ebp], edx
	sub	ebx, eax
	mov	DWORD PTR _pcb$[ebp], ebx
	npad	7
$LL12@stbi__YCbC:

; 3323 :       int y_fixed = (y[i] << 20) + (1<<19); // rounding
; 3324 :       int r,g,b;
; 3325 :       int cr = pcr[i] - 128;
; 3326 :       int cb = pcb[i] - 128;

	movzx	esi, BYTE PTR [edx+eax]
	movzx	edx, BYTE PTR [ebx+eax]
	movzx	ecx, BYTE PTR [eax]
	add	edx, -128				; ffffff80H

; 3327 :       r = y_fixed +  cr* stbi__float2fixed(1.40200f);
; 3328 :       g = y_fixed + (cr*-stbi__float2fixed(0.71414f)) + ((cb*-stbi__float2fixed(0.34414f)) & 0xffff0000);

	imul	eax, edx, -360960
	add	ecx, -128				; ffffff80H
	imul	ebx, ecx, 1470208
	imul	ecx, ecx, 748800

; 3329 :       b = y_fixed                                     +   cb* stbi__float2fixed(1.77200f);

	imul	edx, edx, 1858048
	shl	esi, 20					; 00000014H
	and	eax, -65536				; ffff0000H
	add	esi, 524288				; 00080000H
	add	ebx, esi

; 3330 :       r >>= 20;
; 3331 :       g >>= 20;

	sub	eax, ecx
	sar	ebx, 20					; 00000014H
	add	eax, esi
	add	edx, esi
	sar	eax, 20					; 00000014H

; 3332 :       b >>= 20;

	sar	edx, 20					; 00000014H

; 3333 :       if ((unsigned) r > 255) { if (r < 0) r = 0; else r = 255; }

	cmp	ebx, 255				; 000000ffH
	jbe	SHORT $LN8@stbi__YCbC
	xor	esi, esi
	mov	ecx, 255				; 000000ffH
	test	ebx, ebx
	cmovs	ecx, esi
	mov	ebx, ecx
$LN8@stbi__YCbC:

; 3334 :       if ((unsigned) g > 255) { if (g < 0) g = 0; else g = 255; }

	cmp	eax, 255				; 000000ffH
	jbe	SHORT $LN5@stbi__YCbC
	xor	esi, esi
	mov	ecx, 255				; 000000ffH
	test	eax, eax
	cmovs	ecx, esi
	mov	eax, ecx
$LN5@stbi__YCbC:

; 3335 :       if ((unsigned) b > 255) { if (b < 0) b = 0; else b = 255; }

	cmp	edx, 255				; 000000ffH
	jbe	SHORT $LN2@stbi__YCbC
	xor	esi, esi
	mov	ecx, 255				; 000000ffH
	test	edx, edx
	cmovs	ecx, esi
	mov	edx, ecx
$LN2@stbi__YCbC:

; 3336 :       out[0] = (stbi_uc)r;
; 3337 :       out[1] = (stbi_uc)g;

	mov	BYTE PTR [edi-1], al
	mov	eax, DWORD PTR _pcr$[ebp]
	mov	BYTE PTR [edi-2], bl
	inc	eax
	mov	ebx, DWORD PTR _pcb$[ebp]

; 3338 :       out[2] = (stbi_uc)b;

	mov	BYTE PTR [edi], dl
	mov	edx, DWORD PTR _y$[ebp]

; 3339 :       out[3] = 255;

	mov	BYTE PTR [edi+1], 255			; 000000ffH

; 3340 :       out += step;

	add	edi, DWORD PTR _step$[ebp]
	dec	DWORD PTR _count$[ebp]
	mov	DWORD PTR _pcr$[ebp], eax
	jne	$LL12@stbi__YCbC
	pop	edi
	pop	esi
	pop	ebx
$LN10@stbi__YCbC:

; 3341 :    }
; 3342 : }

	pop	ebp
	ret	0
_stbi__YCbCr_to_RGB_row ENDP
_TEXT	ENDS
; Function compile flags: /Ogtp
; File c:\users\marcos\desktop\prj\mgear-1\apis\stb\stb_image.h
;	COMDAT _stbi__YCbCr_to_RGB_simd
_TEXT	SEGMENT
_r$1$ = -16						; size = 4
tv650 = -16						; size = 4
_i$1$ = -16						; size = 4
tv652 = -12						; size = 4
tv647 = -12						; size = 4
tv649 = -8						; size = 4
tv651 = -4						; size = 4
_out$ = 8						; size = 4
_y$ = 12						; size = 4
_pcb$ = 16						; size = 4
_pcr$ = 20						; size = 4
_count$ = 24						; size = 4
_step$ = 28						; size = 4
_stbi__YCbCr_to_RGB_simd PROC				; COMDAT

; 3346 : {

	push	ebp
	mov	ebp, esp
	and	esp, -8					; fffffff8H
	sub	esp, 16					; 00000010H

; 3357 :       __m128i cr_const1 = _mm_set1_epi16( - (short) ( 0.71414f*4096.0f+0.5f));
; 3358 :       __m128i cb_const0 = _mm_set1_epi16( - (short) ( 0.34414f*4096.0f+0.5f));
; 3359 :       __m128i cb_const1 = _mm_set1_epi16(   (short) ( 1.77200f*4096.0f+0.5f));
; 3360 :       __m128i y_bias = _mm_set1_epi8((char) (unsigned char) 128);
; 3361 :       __m128i xw = _mm_set1_epi16(255); // alpha channel
; 3362 : 
; 3363 :       for (; i+7 < count; i += 8) {

	mov	ecx, DWORD PTR _count$[ebp]
	xor	eax, eax
	cmp	DWORD PTR _step$[ebp], 4
	push	esi
	push	edi
	mov	DWORD PTR _i$1$[esp+24], eax
	jne	$LN27@stbi__YCbC

; 3347 :    int i = 0;
; 3348 : 
; 3349 : #ifdef STBI_SSE2
; 3350 :    // step == 3 is pretty ugly on the final interleave, and i'm not convinced
; 3351 :    // it's useful in practice (you wouldn't use it for textures, for example).
; 3352 :    // so just accelerate step == 4 case.
; 3353 :    if (step == 4) {
; 3354 :       // this is a fairly straightforward implementation and not super-optimized.
; 3355 :       __m128i signflip  = _mm_set1_epi8(-0x80);
; 3356 :       __m128i cr_const0 = _mm_set1_epi16(   (short) ( 1.40200f*4096.0f+0.5f));

	movdqa	xmm5, XMMWORD PTR __xmm@80808080808080808080808080808080
	movdqa	xmm7, XMMWORD PTR __xmm@166f166f166f166f166f166f166f166f

; 3357 :       __m128i cr_const1 = _mm_set1_epi16( - (short) ( 0.71414f*4096.0f+0.5f));
; 3358 :       __m128i cb_const0 = _mm_set1_epi16( - (short) ( 0.34414f*4096.0f+0.5f));
; 3359 :       __m128i cb_const1 = _mm_set1_epi16(   (short) ( 1.77200f*4096.0f+0.5f));
; 3360 :       __m128i y_bias = _mm_set1_epi8((char) (unsigned char) 128);
; 3361 :       __m128i xw = _mm_set1_epi16(255); // alpha channel
; 3362 : 
; 3363 :       for (; i+7 < count; i += 8) {

	cmp	ecx, 7
	jle	$LN27@stbi__YCbC
	mov	edx, DWORD PTR _pcb$[ebp]
	mov	esi, 7
	mov	edi, DWORD PTR _y$[ebp]
	sub	esi, edx
	mov	eax, DWORD PTR _pcr$[ebp]
	sub	edi, edx
	sub	eax, edx
	mov	DWORD PTR tv650[esp+24], edi
	mov	edi, DWORD PTR _out$[ebp]
	xorps	xmm6, xmm6
	mov	DWORD PTR tv649[esp+24], esi
	xor	esi, esi
	mov	DWORD PTR tv651[esp+24], eax
	npad	1
$LL15@stbi__YCbC:

; 3364 :          // load
; 3365 :          __m128i y_bytes = _mm_loadl_epi64((__m128i *) (y+i));
; 3366 :          __m128i cr_bytes = _mm_loadl_epi64((__m128i *) (pcr+i));

	movq	xmm0, QWORD PTR [eax+edx]

; 3367 :          __m128i cb_bytes = _mm_loadl_epi64((__m128i *) (pcb+i));
; 3368 :          __m128i cr_biased = _mm_xor_si128(cr_bytes, signflip); // -128
; 3369 :          __m128i cb_biased = _mm_xor_si128(cb_bytes, signflip); // -128
; 3370 : 
; 3371 :          // unpack to short (and left-shift cr, cb by 8)
; 3372 :          __m128i yw  = _mm_unpacklo_epi8(y_bias, y_bytes);
; 3373 :          __m128i crw = _mm_unpacklo_epi8(_mm_setzero_si128(), cr_biased);

	movdqa	xmm2, xmm6
	mov	eax, DWORD PTR tv650[esp+24]
	pxor	xmm0, xmm5
	punpcklbw xmm2, xmm0

; 3374 :          __m128i cbw = _mm_unpacklo_epi8(_mm_setzero_si128(), cb_biased);

	movdqa	xmm4, xmm6
	movq	xmm0, QWORD PTR [edx]
	movdqa	xmm1, xmm5
	pxor	xmm0, xmm5

; 3375 : 
; 3376 :          // color transform
; 3377 :          __m128i yws = _mm_srli_epi16(yw, 4);
; 3378 :          __m128i cr0 = _mm_mulhi_epi16(cr_const0, crw);

	movdqa	xmm3, xmm2

; 3379 :          __m128i cb0 = _mm_mulhi_epi16(cb_const0, cbw);
; 3380 :          __m128i cb1 = _mm_mulhi_epi16(cbw, cb_const1);
; 3381 :          __m128i cr1 = _mm_mulhi_epi16(crw, cr_const1);

	pmulhw	xmm2, XMMWORD PTR __xmm@f493f493f493f493f493f493f493f493
	add	esi, 8
	punpcklbw xmm4, xmm0
	movq	xmm0, QWORD PTR [eax+edx]
	add	edx, 8
	punpcklbw xmm1, xmm0
	movdqa	xmm0, xmm4
	pmulhw	xmm0, XMMWORD PTR __xmm@1c5a1c5a1c5a1c5a1c5a1c5a1c5a1c5a
	pmulhw	xmm4, XMMWORD PTR __xmm@fa7efa7efa7efa7efa7efa7efa7efa7e
	mov	eax, DWORD PTR tv649[esp+24]
	pmulhw	xmm3, xmm7
	add	eax, edx
	psrlw	xmm1, 4

; 3382 :          __m128i rws = _mm_add_epi16(cr0, yws);
; 3383 :          __m128i gwt = _mm_add_epi16(cb0, yws);
; 3384 :          __m128i bws = _mm_add_epi16(yws, cb1);

	paddw	xmm0, xmm1
	paddw	xmm4, xmm1

; 3385 :          __m128i gws = _mm_add_epi16(gwt, cr1);
; 3386 : 
; 3387 :          // descale
; 3388 :          __m128i rw = _mm_srai_epi16(rws, 4);
; 3389 :          __m128i bw = _mm_srai_epi16(bws, 4);

	psraw	xmm0, 4
	paddw	xmm4, xmm2
	paddw	xmm3, xmm1

; 3390 :          __m128i gw = _mm_srai_epi16(gws, 4);

	psraw	xmm4, 4
	psraw	xmm3, 4

; 3391 : 
; 3392 :          // back to byte, set up for transpose
; 3393 :          __m128i brb = _mm_packus_epi16(rw, bw);
; 3394 :          __m128i gxb = _mm_packus_epi16(gw, xw);

	packuswb xmm4, XMMWORD PTR __xmm@00ff00ff00ff00ff00ff00ff00ff00ff
	packuswb xmm3, xmm0

; 3395 : 
; 3396 :          // transpose to interleave channels
; 3397 :          __m128i t0 = _mm_unpacklo_epi8(brb, gxb);

	movdqa	xmm1, xmm3

; 3398 :          __m128i t1 = _mm_unpackhi_epi8(brb, gxb);

	punpckhbw xmm3, xmm4
	punpcklbw xmm1, xmm4

; 3399 :          __m128i o0 = _mm_unpacklo_epi16(t0, t1);

	movdqa	xmm0, xmm1

; 3400 :          __m128i o1 = _mm_unpackhi_epi16(t0, t1);

	punpckhwd xmm1, xmm3
	punpcklwd xmm0, xmm3

; 3401 : 
; 3402 :          // store
; 3403 :          _mm_storeu_si128((__m128i *) (out + 0), o0);

	movdqu	XMMWORD PTR [edi], xmm0

; 3404 :          _mm_storeu_si128((__m128i *) (out + 16), o1);

	movdqu	XMMWORD PTR [edi+16], xmm1

; 3405 :          out += 32;

	add	edi, 32					; 00000020H
	cmp	eax, ecx
	mov	eax, DWORD PTR tv651[esp+24]
	jl	$LL15@stbi__YCbC
	mov	DWORD PTR _i$1$[esp+24], esi
	mov	eax, esi
	jmp	SHORT $LN29@stbi__YCbC
$LN27@stbi__YCbC:

; 3357 :       __m128i cr_const1 = _mm_set1_epi16( - (short) ( 0.71414f*4096.0f+0.5f));
; 3358 :       __m128i cb_const0 = _mm_set1_epi16( - (short) ( 0.34414f*4096.0f+0.5f));
; 3359 :       __m128i cb_const1 = _mm_set1_epi16(   (short) ( 1.77200f*4096.0f+0.5f));
; 3360 :       __m128i y_bias = _mm_set1_epi8((char) (unsigned char) 128);
; 3361 :       __m128i xw = _mm_set1_epi16(255); // alpha channel
; 3362 : 
; 3363 :       for (; i+7 < count; i += 8) {

	mov	edi, DWORD PTR _out$[ebp]
$LN29@stbi__YCbC:
	mov	esi, DWORD PTR _y$[ebp]
	mov	edx, DWORD PTR _pcb$[ebp]

; 3406 :       }
; 3407 :    }
; 3408 : #endif
; 3409 : 
; 3410 : #ifdef STBI_NEON
; 3411 :    // in this version, step=3 support would be easy to add. but is there demand?
; 3412 :    if (step == 4) {
; 3413 :       // this is a fairly straightforward implementation and not super-optimized.
; 3414 :       uint8x8_t signflip = vdup_n_u8(0x80);
; 3415 :       int16x8_t cr_const0 = vdupq_n_s16(   (short) ( 1.40200f*4096.0f+0.5f));
; 3416 :       int16x8_t cr_const1 = vdupq_n_s16( - (short) ( 0.71414f*4096.0f+0.5f));
; 3417 :       int16x8_t cb_const0 = vdupq_n_s16( - (short) ( 0.34414f*4096.0f+0.5f));
; 3418 :       int16x8_t cb_const1 = vdupq_n_s16(   (short) ( 1.77200f*4096.0f+0.5f));
; 3419 : 
; 3420 :       for (; i+7 < count; i += 8) {
; 3421 :          // load
; 3422 :          uint8x8_t y_bytes  = vld1_u8(y + i);
; 3423 :          uint8x8_t cr_bytes = vld1_u8(pcr + i);
; 3424 :          uint8x8_t cb_bytes = vld1_u8(pcb + i);
; 3425 :          int8x8_t cr_biased = vreinterpret_s8_u8(vsub_u8(cr_bytes, signflip));
; 3426 :          int8x8_t cb_biased = vreinterpret_s8_u8(vsub_u8(cb_bytes, signflip));
; 3427 : 
; 3428 :          // expand to s16
; 3429 :          int16x8_t yws = vreinterpretq_s16_u16(vshll_n_u8(y_bytes, 4));
; 3430 :          int16x8_t crw = vshll_n_s8(cr_biased, 7);
; 3431 :          int16x8_t cbw = vshll_n_s8(cb_biased, 7);
; 3432 : 
; 3433 :          // color transform
; 3434 :          int16x8_t cr0 = vqdmulhq_s16(crw, cr_const0);
; 3435 :          int16x8_t cb0 = vqdmulhq_s16(cbw, cb_const0);
; 3436 :          int16x8_t cr1 = vqdmulhq_s16(crw, cr_const1);
; 3437 :          int16x8_t cb1 = vqdmulhq_s16(cbw, cb_const1);
; 3438 :          int16x8_t rws = vaddq_s16(yws, cr0);
; 3439 :          int16x8_t gws = vaddq_s16(vaddq_s16(yws, cb0), cr1);
; 3440 :          int16x8_t bws = vaddq_s16(yws, cb1);
; 3441 : 
; 3442 :          // undo scaling, round, convert to byte
; 3443 :          uint8x8x4_t o;
; 3444 :          o.val[0] = vqrshrun_n_s16(rws, 4);
; 3445 :          o.val[1] = vqrshrun_n_s16(gws, 4);
; 3446 :          o.val[2] = vqrshrun_n_s16(bws, 4);
; 3447 :          o.val[3] = vdup_n_u8(255);
; 3448 : 
; 3449 :          // store, interleaving r/g/b/a
; 3450 :          vst4_u8(out, o);
; 3451 :          out += 8*4;
; 3452 :       }
; 3453 :    }
; 3454 : #endif
; 3455 : 
; 3456 :    for (; i < count; ++i) {

	cmp	eax, ecx
	jge	$LN10@stbi__YCbC
	mov	ecx, DWORD PTR _pcr$[ebp]
	add	edi, 2
	add	eax, ecx

; 3473 :       out[3] = 255;

	sub	esi, ecx
	sub	edx, ecx
	mov	DWORD PTR tv647[esp+24], eax
	mov	ecx, DWORD PTR _count$[ebp]
	sub	ecx, DWORD PTR _i$1$[esp+24]
	mov	DWORD PTR _y$[ebp], esi
	mov	DWORD PTR _pcb$[ebp], edx
	mov	DWORD PTR _count$[ebp], ecx
	npad	5
$LL12@stbi__YCbC:

; 3457 :       int y_fixed = (y[i] << 20) + (1<<19); // rounding
; 3458 :       int r,g,b;
; 3459 :       int cr = pcr[i] - 128;
; 3460 :       int cb = pcb[i] - 128;

	movzx	ecx, BYTE PTR [eax]
	movzx	edx, BYTE PTR [edx+eax]
	add	ecx, -128				; ffffff80H
	movzx	esi, BYTE PTR [esi+eax]
	add	edx, -128				; ffffff80H

; 3461 :       r = y_fixed + cr* stbi__float2fixed(1.40200f);

	imul	eax, ecx, 1470208
	shl	esi, 20					; 00000014H
	add	esi, 524288				; 00080000H

; 3462 :       g = y_fixed + cr*-stbi__float2fixed(0.71414f) + ((cb*-stbi__float2fixed(0.34414f)) & 0xffff0000);

	imul	ecx, ecx, 748800
	add	eax, esi

; 3463 :       b = y_fixed                                   +   cb* stbi__float2fixed(1.77200f);
; 3464 :       r >>= 20;

	sar	eax, 20					; 00000014H
	mov	DWORD PTR _r$1$[esp+24], eax
	imul	eax, edx, -360960
	imul	edx, edx, 1858048
	and	eax, -65536				; ffff0000H

; 3465 :       g >>= 20;

	sub	eax, ecx
	add	edx, esi
	add	eax, esi

; 3466 :       b >>= 20;

	sar	edx, 20					; 00000014H
	sar	eax, 20					; 00000014H

; 3467 :       if ((unsigned) r > 255) { if (r < 0) r = 0; else r = 255; }

	cmp	DWORD PTR _r$1$[esp+24], 255		; 000000ffH
	jbe	SHORT $LN8@stbi__YCbC
	xor	esi, esi
	mov	ecx, 255				; 000000ffH
	cmp	DWORD PTR _r$1$[esp+24], esi
	cmovl	ecx, esi
	mov	DWORD PTR _r$1$[esp+24], ecx
$LN8@stbi__YCbC:

; 3468 :       if ((unsigned) g > 255) { if (g < 0) g = 0; else g = 255; }

	cmp	eax, 255				; 000000ffH
	jbe	SHORT $LN5@stbi__YCbC
	xor	esi, esi
	mov	ecx, 255				; 000000ffH
	test	eax, eax
	cmovs	ecx, esi
	mov	eax, ecx
$LN5@stbi__YCbC:

; 3469 :       if ((unsigned) b > 255) { if (b < 0) b = 0; else b = 255; }

	cmp	edx, 255				; 000000ffH
	jbe	SHORT $LN2@stbi__YCbC
	xor	esi, esi
	mov	ecx, 255				; 000000ffH
	test	edx, edx
	cmovs	ecx, esi
	mov	edx, ecx
$LN2@stbi__YCbC:

; 3470 :       out[0] = (stbi_uc)r;

	mov	ecx, DWORD PTR _r$1$[esp+24]
	mov	esi, DWORD PTR _y$[ebp]

; 3471 :       out[1] = (stbi_uc)g;

	mov	BYTE PTR [edi-1], al
	mov	eax, DWORD PTR tv647[esp+24]

; 3472 :       out[2] = (stbi_uc)b;

	mov	BYTE PTR [edi], dl
	inc	eax
	mov	edx, DWORD PTR _pcb$[ebp]
	mov	BYTE PTR [edi-2], cl

; 3473 :       out[3] = 255;

	mov	BYTE PTR [edi+1], 255			; 000000ffH

; 3474 :       out += step;

	add	edi, DWORD PTR _step$[ebp]
	dec	DWORD PTR _count$[ebp]
	mov	DWORD PTR tv647[esp+24], eax
	jne	$LL12@stbi__YCbC
$LN10@stbi__YCbC:

; 3475 :    }
; 3476 : }

	pop	edi
	pop	esi
	mov	esp, ebp
	pop	ebp
	ret	0
_stbi__YCbCr_to_RGB_simd ENDP
_TEXT	ENDS
; Function compile flags: /Ogtp
; File c:\users\marcos\desktop\prj\mgear-1\mgear-1\engine.c
;	COMDAT _LogIn
_TEXT	SEGMENT
_userdata$ = 8						; size = 4
_category$ = 12						; size = 4
_log$ = 16						; size = 4
_message$ = 20						; size = 4
_LogIn	PROC						; COMDAT

; 80   : {

	push	ebp
	mov	ebp, esp
	push	esi

; 81   : 	FILE *file;
; 82   : 	size_t size;
; 83   : 	if((file=fopen("mgear.log","a+"))==NULL)

	push	OFFSET ??_C@_02DPNLHKJD@a?$CL?$AA@
	push	OFFSET ??_C@_09JFHIBJMD@mgear?4log?$AA@
	call	_fopen
	mov	esi, eax
	add	esp, 8
	test	esi, esi
	jne	SHORT $LN1@LogIn

; 84   : 	{
; 85   : 		if(MessageBox(NULL,L"Opening log file failed",NULL,MB_OK | MB_ICONERROR)==IDOK)

	push	16					; 00000010H
	push	eax
	push	OFFSET ??_C@_1DA@PFAEBODD@?$AAO?$AAp?$AAe?$AAn?$AAi?$AAn?$AAg?$AA?5?$AAl?$AAo?$AAg?$AA?5?$AAf?$AAi?$AAl?$AAe?$AA?5?$AAf?$AAa?$AAi?$AAl?$AAe?$AAd?$AA?$AA@
	push	eax
	call	DWORD PTR __imp__MessageBoxW@16
	cmp	eax, 1
	je	SHORT $LN6@LogIn
$LN1@LogIn:

; 87   : 	}
; 88   : 
; 89   : 	fseek(file,0,SEEK_END);

	push	2
	push	0
	push	esi
	call	_fseek

; 90   : 	fprintf(file,"%s\n",message);

	push	DWORD PTR _message$[ebp]
	push	OFFSET ??_C@_03OFAPEBGM@?$CFs?6?$AA@
	push	esi
	call	_fprintf

; 91   : 
; 92   : 	fclose(file);

	push	esi
	call	_fclose
	add	esp, 28					; 0000001cH
	pop	esi

; 93   : }

	pop	ebp
	ret	0
$LN6@LogIn:

; 86   : 			Quit();

	call	_Quit
$LN8@LogIn:
$LN5@LogIn:
	int	3
_LogIn	ENDP
_TEXT	ENDS
; Function compile flags: /Ogtp
; File c:\users\marcos\desktop\prj\mgear-1\mgear-1\engine.c
;	COMDAT _CreateLog
_TEXT	SEGMENT
_CreateLog PROC						; COMDAT

; 96   : {

	push	esi

; 97   : 	FILE *file;
; 98   : 	float version=_ENGINE_VERSION;
; 99   : 	if((file=fopen("mgear.log","w"))==NULL)

	push	OFFSET ??_C@_01NOFIACDB@w?$AA@
	push	OFFSET ??_C@_09JFHIBJMD@mgear?4log?$AA@
	call	_fopen
	mov	esi, eax
	add	esp, 8
	test	esi, esi
	jne	SHORT $LN1@CreateLog

; 100  : 	{
; 101  : 		if(MessageBox(NULL,L"Create log failed",NULL,MB_OK | MB_ICONERROR)==IDOK) 

	push	16					; 00000010H
	push	eax
	push	OFFSET ??_C@_1CE@CDPPCMAP@?$AAC?$AAr?$AAe?$AAa?$AAt?$AAe?$AA?5?$AAl?$AAo?$AAg?$AA?5?$AAf?$AAa?$AAi?$AAl?$AAe?$AAd?$AA?$AA@
	push	eax
	call	DWORD PTR __imp__MessageBoxW@16
	cmp	eax, 1
	je	SHORT $LN6@CreateLog
$LN1@CreateLog:

; 103  : 	}
; 104  : 
; 105  : 	SDL_LogSetOutputFunction(&LogIn,NULL);

	push	0
	push	OFFSET _LogIn
	call	DWORD PTR __imp__SDL_LogSetOutputFunction

; 106  : 
; 107  : 	fprintf(file,"%s %.2f\n",st.WindowTitle,version);

	movsd	xmm0, QWORD PTR __real@3f847ae140000000
	movsd	QWORD PTR [esp], xmm0
	push	OFFSET _st+196
	push	OFFSET ??_C@_08PJPFOJIA@?$CFs?5?$CF?42f?6?$AA@
	push	esi
	call	_fprintf

; 108  : 	fprintf(file,"Engine started\n");

	push	OFFSET ??_C@_0BA@BIGBPAJK@Engine?5started?6?$AA@
	push	esi
	call	_fprintf

; 109  : 	fprintf(file,"Log created\n");

	push	OFFSET ??_C@_0N@JPOOLMEG@Log?5created?6?$AA@
	push	esi
	call	_fprintf

; 110  : 
; 111  : 	fclose(file);

	push	esi
	call	_fclose
	add	esp, 40					; 00000028H

; 112  : }

	pop	esi
	ret	0
$LN6@CreateLog:

; 102  : 			exit(1);

	push	1
	call	_exit
$LN8@CreateLog:
$LN5@CreateLog:
	int	3
_CreateLog ENDP
_TEXT	ENDS
; Function compile flags: /Ogtp
; File c:\users\marcos\desktop\prj\mgear-1\mgear-1\engine.c
;	COMDAT @SetTimerM@8
_TEXT	SEGMENT
_x$dead$ = 8						; size = 8
@SetTimerM@8 PROC					; COMDAT

; 123  : 	st.time+=x;

	add	DWORD PTR _st+64272, 1
	adc	DWORD PTR _st+64276, 0

; 124  : }

	ret	8
@SetTimerM@8 ENDP
_TEXT	ENDS
; Function compile flags: /Ogtp
; File c:\users\marcos\desktop\prj\mgear-1\mgear-1\engine.c
;	COMDAT _FPSCounter
_TEXT	SEGMENT
_FPSCounter PROC					; COMDAT

; 132  : {

	push	esi

; 133  : 	if((SDL_GetTicks() - st.FPSTime)!=0)

	mov	esi, DWORD PTR __imp__SDL_GetTicks
	call	esi
	sub	eax, DWORD PTR _st+2335432
	je	SHORT $LN1@FPSCounter

; 134  : 	{
; 135  : 		st.FPS=SDL_GetTicks()-st.FPSTime;

	call	esi
	sub	eax, DWORD PTR _st+2335432

; 136  : 		st.FPS=1000/st.FPS;
; 137  : 		sprintf(st.WINDOW_NAME,"%s fps: %.2f",st.WindowTitle,st.FPS);

	sub	esp, 8
	movss	xmm1, DWORD PTR __real@447a0000
	movd	xmm0, eax
	cvtdq2pd xmm0, xmm0
	shr	eax, 31					; 0000001fH
	addsd	xmm0, QWORD PTR __xmm@41f00000000000000000000000000000[eax*8]
	cvtpd2ps xmm0, xmm0
	divss	xmm1, xmm0
	cvtps2pd xmm0, xmm1
	movss	DWORD PTR _st+2335436, xmm1
	movsd	QWORD PTR [esp], xmm0
	push	OFFSET _st+196
	push	OFFSET ??_C@_0N@NDCMMGFF@?$CFs?5fps?3?5?$CF?42f?$AA@
	push	OFFSET _st+132
	call	_sprintf

; 138  : 		//if(st.FPS<50) printf("%d\n",st.time);
; 139  : 		//st.FPS=0;
; 140  : 		st.FPSTime=SDL_GetTicks();

	call	esi

; 141  : 		SDL_SetWindowTitle(wn,st.WINDOW_NAME);

	push	OFFSET _st+132
	push	DWORD PTR _wn
	mov	DWORD PTR _st+2335432, eax
	call	DWORD PTR __imp__SDL_SetWindowTitle
	add	esp, 28					; 0000001cH
$LN1@FPSCounter:

; 142  : 	}
; 143  : }

	pop	esi
	ret	0
_FPSCounter ENDP
_TEXT	ENDS
; Function compile flags: /Ogtp
; File c:\users\marcos\desktop\prj\mgear-1\mgear-1\engine.c
;	COMDAT _WTSf
_TEXT	SEGMENT
_WTSf	PROC						; COMDAT
; _x$ = ecx
; _y$ = edx

; 201  : {

	movd	xmm0, DWORD PTR _st+2335380

; 202  : 	*x-=st.Camera.position.x;

	movss	xmm1, DWORD PTR [ecx]
	cvtdq2ps xmm0, xmm0
	subss	xmm1, xmm0
	movss	DWORD PTR [ecx], xmm1
	movd	xmm0, DWORD PTR _st+2335384

; 203  : 	*y-=st.Camera.position.y;

	movss	xmm1, DWORD PTR [edx]
	cvtdq2ps xmm0, xmm0
	subss	xmm1, xmm0
	movss	DWORD PTR [edx], xmm1

; 204  : 
; 205  : 	*x=(float) ((*x*st.screenx)/GAME_WIDTH)*st.Camera.dimension.x;

	movzx	eax, WORD PTR _st+228
	movd	xmm0, eax
	cvtdq2ps xmm0, xmm0
	mulss	xmm0, DWORD PTR [ecx]
	mulss	xmm0, DWORD PTR __real@38800000
	mulss	xmm0, DWORD PTR _st+2335396
	movss	DWORD PTR [ecx], xmm0

; 206  : 	*y=(float) ((*y*st.screeny)/GAME_HEIGHT)*st.Camera.dimension.y;

	movzx	eax, WORD PTR _st+230
	movd	xmm0, eax
	cvtdq2ps xmm0, xmm0
	mulss	xmm0, DWORD PTR [edx]
	divss	xmm0, DWORD PTR __real@46100000
	mulss	xmm0, DWORD PTR _st+2335400
	movss	DWORD PTR [edx], xmm0

; 207  : }

	ret	0
_WTSf	ENDP
_TEXT	ENDS
; Function compile flags: /Ogtp
; File c:\users\marcos\desktop\prj\mgear-1\mgear-1\engine.c
;	COMDAT _mCos
_TEXT	SEGMENT
_mCos	PROC						; COMDAT
; _ang$ = ecx

; 217  : 	if(ang>3600) ang-=3600;

	mov	eax, 3600				; 00000e10H
	cmp	cx, ax
	jle	SHORT $LN3@mCos
	sub	ecx, eax

; 219  : 
; 220  : 	return st.CosTable[ang];

	movsx	eax, cx
	movss	xmm0, DWORD PTR _st[eax*4+2717808]

; 221  : }

	ret	0
$LN3@mCos:

; 218  : 	else if(ang<0) ang+=3600;

	test	cx, cx
	jns	SHORT $LN6@mCos
	add	ecx, eax
$LN6@mCos:

; 219  : 
; 220  : 	return st.CosTable[ang];

	movsx	eax, cx
	movss	xmm0, DWORD PTR _st[eax*4+2717808]

; 221  : }

	ret	0
_mCos	ENDP
_TEXT	ENDS
; Function compile flags: /Ogtp
; File c:\users\marcos\desktop\prj\mgear-1\mgear-1\engine.c
;	COMDAT _mSin
_TEXT	SEGMENT
_mSin	PROC						; COMDAT
; _ang$ = ecx

; 225  : 	if(ang>3600) ang-=3600;

	mov	eax, 3600				; 00000e10H
	cmp	cx, ax
	jle	SHORT $LN3@mSin
	sub	ecx, eax

; 227  : 
; 228  : 	return st.SinTable[ang];

	movsx	eax, cx
	movss	xmm0, DWORD PTR _st[eax*4+2732212]

; 229  : }

	ret	0
$LN3@mSin:

; 226  : 	else if(ang<0) ang+=3600;

	test	cx, cx
	jns	SHORT $LN6@mSin
	add	ecx, eax
$LN6@mSin:

; 227  : 
; 228  : 	return st.SinTable[ang];

	movsx	eax, cx
	movss	xmm0, DWORD PTR _st[eax*4+2732212]

; 229  : }

	ret	0
_mSin	ENDP
_TEXT	ENDS
; Function compile flags: /Ogtp
; File c:\users\marcos\desktop\prj\mgear-1\mgear-1\engine.c
;	COMDAT _Quit
_TEXT	SEGMENT
_Quit	PROC						; COMDAT

; 538  : 	//ResetVB();
; 539  : 	InputClose();

	call	_InputClose

; 540  : 	SDL_DestroyWindow(wn);

	push	DWORD PTR _wn
	call	DWORD PTR __imp__SDL_DestroyWindow
	add	esp, 4

; 541  : 	SDL_Quit();

	call	DWORD PTR __imp__SDL_Quit

; 542  : #ifndef MGEAR_CLEAN_VERSION
; 543  : 	FMOD_System_Close(st.sound_sys.Sound_System);
; 544  : 	FMOD_System_Release(st.sound_sys.Sound_System);
; 545  : #endif
; 546  : 	TTF_Quit();

	call	DWORD PTR __imp__TTF_Quit

; 547  : 	exit(1);

	push	1
	call	_exit
$LN4@Quit:
$LN3@Quit:
	int	3
_Quit	ENDP
_TEXT	ENDS
; Function compile flags: /Ogtp
; File c:\users\marcos\desktop\prj\mgear-1\mgear-1\engine.c
;	COMDAT _CreateVAO
_TEXT	SEGMENT
_col$1$ = -16						; size = 4
_texl$1$ = -12						; size = 4
_texc$1$ = -8						; size = 4
_pos$1$ = -4						; size = 4
_pr$dead$ = 8						; size = 1
_CreateVAO PROC						; COMDAT
; _data$ = ecx
; _type$ = dl

; 995  : {

	push	ebp
	mov	ebp, esp
	sub	esp, 16					; 00000010H
	push	ebx
	push	esi
	mov	bl, dl
	push	edi
	mov	edi, ecx

; 996  : 	GLint pos, texc, col, texl, texr;
; 997  : 
; 998  : 	if(type==1)

	cmp	bl, 1
	jne	SHORT $LN3@CreateVAO

; 999  : 	{
; 1000 : 		data->buffer_elements=1;
; 1001 : 		data->num_elements=1;

	mov	DWORD PTR [edi+46], 65537		; 00010001H
$LN3@CreateVAO:

; 1002 : 	}
; 1003 : 
; 1004 : 	glGenVertexArrays(1,&data->vao_id);

	push	edi
	push	1
	call	DWORD PTR _GLeeFuncPtr_glGenVertexArrays

; 1005 : 	glBindVertexArray(data->vao_id);

	push	DWORD PTR [edi]
	call	DWORD PTR _GLeeFuncPtr_glBindVertexArray

; 1006 : 
; 1007 : 	col=glGetAttribLocation(st.renderer.Program[pr],"Color");

	push	OFFSET ??_C@_05PDOBBJNA@Color?$AA@
	push	DWORD PTR _st+2336660
	call	DWORD PTR _GLeeFuncPtr_glGetAttribLocation

; 1008 : 	pos=glGetAttribLocation(st.renderer.Program[pr],"Position");

	push	OFFSET ??_C@_08GCJNLIKG@Position?$AA@
	push	DWORD PTR _st+2336660
	mov	esi, eax
	mov	DWORD PTR _col$1$[ebp], esi
	call	DWORD PTR _GLeeFuncPtr_glGetAttribLocation

; 1009 : 	texc=glGetAttribLocation(st.renderer.Program[pr],"TexCoord");

	push	OFFSET ??_C@_08NGMLKGCO@TexCoord?$AA@
	push	DWORD PTR _st+2336660
	mov	DWORD PTR _pos$1$[ebp], eax
	call	DWORD PTR _GLeeFuncPtr_glGetAttribLocation

; 1010 : 	texl=glGetAttribLocation(st.renderer.Program[pr],"TexLight");

	push	OFFSET ??_C@_08DGBKPNED@TexLight?$AA@
	push	DWORD PTR _st+2336660
	mov	DWORD PTR _texc$1$[ebp], eax
	call	DWORD PTR _GLeeFuncPtr_glGetAttribLocation

; 1011 : 	//texr=glGetAttribLocation(st.renderer.Program[pr],"TexRepeat");
; 1012 : 
; 1013 : 
; 1014 : 	glEnableVertexAttribArray(pos);

	push	DWORD PTR _pos$1$[ebp]
	mov	DWORD PTR _texl$1$[ebp], eax
	call	DWORD PTR _GLeeFuncPtr_glEnableVertexAttribArray

; 1015 : 	glEnableVertexAttribArray(texc);

	push	DWORD PTR _texc$1$[ebp]
	call	DWORD PTR _GLeeFuncPtr_glEnableVertexAttribArray

; 1016 : 	glEnableVertexAttribArray(col);

	push	esi
	call	DWORD PTR _GLeeFuncPtr_glEnableVertexAttribArray

; 1017 : 	glEnableVertexAttribArray(texl);

	push	DWORD PTR _texl$1$[ebp]
	call	DWORD PTR _GLeeFuncPtr_glEnableVertexAttribArray

; 1018 : 	//glEnableVertexAttribArray(texr);
; 1019 : 
; 1020 : 	glGenBuffers(1,&data->vbo_id);

	lea	esi, DWORD PTR [edi+8]
	push	esi
	push	1
	call	DWORD PTR _GLeeFuncPtr_glGenBuffers

; 1021 : 	glBindBuffer(GL_ARRAY_BUFFER,data->vbo_id);

	push	DWORD PTR [esi]
	push	34962					; 00008892H
	call	DWORD PTR _GLeeFuncPtr_glBindBuffer

; 1022 : 
; 1023 : 	glBufferData(GL_ARRAY_BUFFER,((data->buffer_elements*12)*sizeof(GLfloat))+((data->buffer_elements*8)*sizeof(GLfloat))+((data->buffer_elements*16)*sizeof(GLubyte))+((data->buffer_elements*8)*sizeof(GLfloat))+((data->buffer_elements*4)*sizeof(GLfloat)),NULL,GL_STREAM_DRAW);

	movzx	eax, WORD PTR [edi+48]
	push	35040					; 000088e0H
	push	0
	lea	eax, DWORD PTR [eax+eax*8]
	shl	eax, 4
	push	eax
	push	34962					; 00008892H
	call	DWORD PTR _GLeeFuncPtr_glBufferData

; 1024 : 	/*
; 1025 : 	glBufferSubData(GL_ARRAY_BUFFER,0,(12*data->num_elements)*sizeof(GLfloat),data->vertex);
; 1026 : 	glBufferSubData(GL_ARRAY_BUFFER,(12*data->num_elements)*sizeof(GLfloat),(8*data->num_elements)*sizeof(GLfloat),data->texcoord);
; 1027 : 	glBufferSubData(GL_ARRAY_BUFFER,(12*data->num_elements)*sizeof(GLfloat)+(8*data->num_elements)*sizeof(GLfloat),(((data->num_elements*16)*sizeof(GLubyte))),data->color);
; 1028 : 	*/
; 1029 : 
; 1030 : 	glVertexAttribPointer(pos,3,GL_FLOAT,GL_FALSE,0,0);

	push	0
	push	0
	push	0
	push	5126					; 00001406H
	push	3
	push	DWORD PTR _pos$1$[ebp]
	call	DWORD PTR _GLeeFuncPtr_glVertexAttribPointer

; 1031 : 	glVertexAttribPointer(texc,2,GL_FLOAT,GL_FALSE,0,(GLvoid*) ((12*data->buffer_elements)*sizeof(GLfloat)));

	movzx	eax, WORD PTR [edi+48]
	lea	eax, DWORD PTR [eax+eax*2]
	shl	eax, 4
	push	eax
	push	0
	push	0
	push	5126					; 00001406H
	push	2
	push	DWORD PTR _texc$1$[ebp]
	call	DWORD PTR _GLeeFuncPtr_glVertexAttribPointer

; 1032 : 	glVertexAttribPointer(col,4,GL_UNSIGNED_BYTE,GL_TRUE,0,(GLvoid*) ((12*data->buffer_elements)*sizeof(GLfloat)+(8*data->buffer_elements)*sizeof(GLfloat)));

	movzx	eax, WORD PTR [edi+48]
	lea	eax, DWORD PTR [eax+eax*4]
	shl	eax, 4
	push	eax
	push	0
	push	1
	push	5121					; 00001401H
	push	4
	push	DWORD PTR _col$1$[ebp]
	call	DWORD PTR _GLeeFuncPtr_glVertexAttribPointer

; 1033 : 	glVertexAttribPointer(texl,2,GL_FLOAT,GL_FALSE,0,(GLvoid*) (((12*data->buffer_elements)*sizeof(GLfloat))+((8*data->buffer_elements)*sizeof(GLfloat))+((16*data->buffer_elements)*sizeof(GLubyte))));

	movzx	eax, WORD PTR [edi+48]
	lea	eax, DWORD PTR [eax+eax*2]
	shl	eax, 5
	push	eax
	push	0
	push	0
	push	5126					; 00001406H
	push	2
	push	DWORD PTR _texl$1$[ebp]
	call	DWORD PTR _GLeeFuncPtr_glVertexAttribPointer

; 1034 : 	//glVertexAttribPointer(texr,4,GL_FLOAT,GL_FALSE,0,(GLvoid*) (((12*data->buffer_elements)*sizeof(GLfloat))+((8*data->buffer_elements)*sizeof(GLfloat))+((16*data->buffer_elements)*sizeof(GLubyte))+((data->buffer_elements*8)*sizeof(GLfloat))));
; 1035 : 
; 1036 : 
; 1037 : 	glGenBuffers(1,&data->ibo_id);

	lea	esi, DWORD PTR [edi+4]
	push	esi
	push	1
	call	DWORD PTR _GLeeFuncPtr_glGenBuffers

; 1038 : 	glBindBuffer(GL_ELEMENT_ARRAY_BUFFER,data->ibo_id);

	push	DWORD PTR [esi]
	push	34963					; 00008893H
	call	DWORD PTR _GLeeFuncPtr_glBindBuffer

; 1039 : 
; 1040 : 	if(type==1)
; 1041 : 		glBufferData(GL_ELEMENT_ARRAY_BUFFER,(6*data->buffer_elements)*sizeof(GLushort),data->index,GL_STATIC_DRAW);

	movzx	eax, WORD PTR [edi+48]
	lea	eax, DWORD PTR [eax+eax*2]
	shl	eax, 2
	cmp	bl, 1
	jne	SHORT $LN2@CreateVAO
	push	35044					; 000088e4H
	push	DWORD PTR [edi+32]

; 1042 : 	else

	jmp	SHORT $LN6@CreateVAO
$LN2@CreateVAO:

; 1043 : 		glBufferData(GL_ELEMENT_ARRAY_BUFFER,(6*data->buffer_elements)*sizeof(GLushort),NULL,GL_DYNAMIC_DRAW);

	push	35048					; 000088e8H
	push	0
$LN6@CreateVAO:
	push	eax
	push	34963					; 00008893H
	call	DWORD PTR _GLeeFuncPtr_glBufferData

; 1044 : 	
; 1045 : 	glBindVertexArray(0);

	push	0
	call	DWORD PTR _GLeeFuncPtr_glBindVertexArray

; 1046 : 
; 1047 : 	glDisableVertexAttribArray(pos);

	push	DWORD PTR _pos$1$[ebp]
	call	DWORD PTR _GLeeFuncPtr_glDisableVertexAttribArray

; 1048 : 	glDisableVertexAttribArray(texc);

	push	DWORD PTR _texc$1$[ebp]
	call	DWORD PTR _GLeeFuncPtr_glDisableVertexAttribArray

; 1049 : 	glDisableVertexAttribArray(col);

	push	DWORD PTR _col$1$[ebp]
	call	DWORD PTR _GLeeFuncPtr_glDisableVertexAttribArray

; 1050 : 	glDisableVertexAttribArray(texl);

	push	DWORD PTR _texl$1$[ebp]
	call	DWORD PTR _GLeeFuncPtr_glDisableVertexAttribArray

; 1051 : 	//glDisableVertexAttribArray(texr);
; 1052 : 
; 1053 : 	data->num_elements2=0;

	xor	eax, eax
	mov	WORD PTR [edi+50], ax
	pop	edi
	pop	esi
	pop	ebx

; 1054 : 	
; 1055 : 	/*
; 1056 : 	free(data->texcoord);
; 1057 : 	free(data->index);
; 1058 : 	free(data->color);
; 1059 : 	free(data->vertex);
; 1060 : 	*/
; 1061 : 
; 1062 : }

	mov	esp, ebp
	pop	ebp
	ret	0
_CreateVAO ENDP
_TEXT	ENDS
; Function compile flags: /Ogtp
; File c:\users\marcos\desktop\prj\mgear-1\mgear-1\engine.c
;	COMDAT _UpdateVAO
_TEXT	SEGMENT
_col$1$ = -8						; size = 4
_data$1$ = -4						; size = 4
_upd_index$ = 8						; size = 1
_pr$dead$ = 12						; size = 1
_UpdateVAO PROC						; COMDAT
; _data$ = ecx
; _upd_buff$ = dl

; 1065 : {

	push	ebp
	mov	ebp, esp
	sub	esp, 8
	push	ebx
	mov	ebx, ecx
	mov	DWORD PTR _data$1$[ebp], ebx

; 1066 : 	GLint pos, texc, col, texl, texr;
; 1067 : 	GLenum error;
; 1068 : 
; 1069 : 	//glUseProgram(st.renderer.Program[pr]);
; 1070 : 
; 1071 : 	if(!upd_buff)

	test	dl, dl
	jne	$LN8@UpdateVAO

; 1072 : 	{
; 1073 : 		if(data->num_elements>data->buffer_elements) return 1;

	mov	ax, WORD PTR [ebx+46]
	cmp	ax, WORD PTR [ebx+48]
	jbe	SHORT $LN7@UpdateVAO
	mov	eax, 1
	pop	ebx

; 1210 : }

	mov	esp, ebp
	pop	ebp
	ret	0
$LN7@UpdateVAO:

; 1074 : 		else
; 1075 : 		{
; 1076 : 			
; 1077 : 			glBindVertexArray(data->vao_id);

	push	DWORD PTR [ebx]
	call	DWORD PTR _GLeeFuncPtr_glBindVertexArray

; 1078 : 			glBindBuffer(GL_ARRAY_BUFFER,data->vbo_id);

	push	DWORD PTR [ebx+8]
	push	34962					; 00008892H
	call	DWORD PTR _GLeeFuncPtr_glBindBuffer

; 1079 : 
; 1080 : 			glBufferSubData(GL_ARRAY_BUFFER,0,(12*data->num_elements)*sizeof(GLfloat),data->vertex);

	movzx	eax, WORD PTR [ebx+46]
	push	DWORD PTR [ebx+12]
	lea	eax, DWORD PTR [eax+eax*2]
	shl	eax, 4
	push	eax
	push	0
	push	34962					; 00008892H
	call	DWORD PTR _GLeeFuncPtr_glBufferSubData

; 1081 : 			glBufferSubData(GL_ARRAY_BUFFER,(12*data->buffer_elements)*sizeof(GLfloat),(8*data->num_elements)*sizeof(GLfloat),data->texcoord);

	push	DWORD PTR [ebx+16]
	movzx	eax, WORD PTR [ebx+46]
	shl	eax, 5
	push	eax
	movzx	eax, WORD PTR [ebx+48]
	lea	eax, DWORD PTR [eax+eax*2]
	shl	eax, 4
	push	eax
	push	34962					; 00008892H
	call	DWORD PTR _GLeeFuncPtr_glBufferSubData

; 1082 : 			glBufferSubData(GL_ARRAY_BUFFER,(((12*data->buffer_elements)*sizeof(GLfloat))+((8*data->buffer_elements)*sizeof(GLfloat))),(((data->num_elements*16)*sizeof(GLubyte))),data->color);

	push	DWORD PTR [ebx+28]
	movzx	eax, WORD PTR [ebx+46]
	shl	eax, 4
	push	eax
	movzx	eax, WORD PTR [ebx+48]
	lea	eax, DWORD PTR [eax+eax*4]
	shl	eax, 4
	push	eax
	push	34962					; 00008892H
	call	DWORD PTR _GLeeFuncPtr_glBufferSubData

; 1083 : 			glBufferSubData(GL_ARRAY_BUFFER,(((12*data->buffer_elements)*sizeof(GLfloat))+((8*data->buffer_elements)*sizeof(GLfloat))+((data->buffer_elements*16)*sizeof(GLubyte))),(data->num_elements*8)*sizeof(float),data->texcoordlight);

	push	DWORD PTR [ebx+20]
	movzx	eax, WORD PTR [ebx+46]
	shl	eax, 5
	push	eax
	movzx	eax, WORD PTR [ebx+48]
	lea	eax, DWORD PTR [eax+eax*2]
	shl	eax, 5
	push	eax
	push	34962					; 00008892H
	call	DWORD PTR _GLeeFuncPtr_glBufferSubData

; 1084 : 		//	glBufferSubData(GL_ARRAY_BUFFER,(((12*data->buffer_elements)*sizeof(GLfloat))+((8*data->buffer_elements)*sizeof(GLfloat))+((data->buffer_elements*16)*sizeof(GLubyte))+((data->num_elements*8)*sizeof(float))),(data->num_elements*4)*sizeof(float),data->texrepeat);
; 1085 : 
; 1086 : 			if(upd_index)

	cmp	BYTE PTR _upd_index$[ebp], 0
	je	SHORT $LN5@UpdateVAO

; 1087 : 			{
; 1088 : 				glBindBuffer(GL_ELEMENT_ARRAY_BUFFER,data->ibo_id);

	push	DWORD PTR [ebx+4]
	push	34963					; 00008893H
	call	DWORD PTR _GLeeFuncPtr_glBindBuffer

; 1089 : 				glBufferSubData(GL_ELEMENT_ARRAY_BUFFER,0,(6*data->num_elements)*sizeof(GLushort),data->index);

	movzx	eax, WORD PTR [ebx+46]
	push	DWORD PTR [ebx+32]
	lea	eax, DWORD PTR [eax+eax*2]
	shl	eax, 2
	push	eax
	push	0
	push	34963					; 00008893H
	call	DWORD PTR _GLeeFuncPtr_glBufferSubData
$LN5@UpdateVAO:

; 1090 : 				//glBindBuffer(GL_ELEMENT_ARRAY_BUFFER,0);
; 1091 : 			}
; 1092 : 
; 1093 : 			glBindVertexArray(0);

	push	0
	call	DWORD PTR _GLeeFuncPtr_glBindVertexArray

; 1094 : 			
; 1095 : 			
; 1096 : 			free(data->texcoord);

	push	DWORD PTR [ebx+16]
	call	_free

; 1097 : 			free(data->index);

	push	DWORD PTR [ebx+32]
	call	_free

; 1098 : 			free(data->color);

	push	DWORD PTR [ebx+28]
	call	_free

; 1099 : 			free(data->vertex);

	push	DWORD PTR [ebx+12]
	call	_free

; 1100 : 			free(data->texcoordlight);

	push	DWORD PTR [ebx+20]
	call	_free
	add	esp, 20					; 00000014H

; 1163 : 		//free(data->texrepeat);
; 1164 : 	}
; 1165 : 	else
; 1166 : 	if(upd_buff==2)
; 1167 : 	{
; 1168 : 		glBindVertexArray(data->vao_id);
; 1169 : 		glBindBuffer(GL_ARRAY_BUFFER,data->vbo_id);
; 1170 : 		//glBindBuffer(GL_ELEMENT_ARRAY_BUFFER,data->ibo_id);
; 1171 : 
; 1172 : 		col=glGetAttribLocation(st.renderer.Program[pr],"Color");
; 1173 : 		pos=glGetAttribLocation(st.renderer.Program[pr],"Position");
; 1174 : 		texc=glGetAttribLocation(st.renderer.Program[pr],"TexCoord");
; 1175 : 		texl=glGetAttribLocation(st.renderer.Program[pr],"TexLight");
; 1176 : 		//texr=glGetAttribLocation(st.renderer.Program[pr],"TexRepeat");
; 1177 : 
; 1178 : 		glEnableVertexAttribArray(pos);
; 1179 : 		glEnableVertexAttribArray(texc);
; 1180 : 		glEnableVertexAttribArray(col);
; 1181 : 		glEnableVertexAttribArray(texl);
; 1182 : 		//glEnableVertexAttribArray(texr);
; 1183 : 
; 1184 : 		glBufferData(GL_ARRAY_BUFFER,((data->buffer_elements*12)*sizeof(GLfloat))+((data->buffer_elements*8)*sizeof(GLfloat))+((data->buffer_elements*16)*sizeof(GLubyte))+((data->buffer_elements*8)*sizeof(GLfloat))+((data->buffer_elements*4)*sizeof(GLfloat)),NULL,GL_STREAM_DRAW);
; 1185 : 
; 1186 : 		glVertexAttribPointer(pos,3,GL_FLOAT,GL_FALSE,0,0);
; 1187 : 		glVertexAttribPointer(texc,2,GL_FLOAT,GL_FALSE,0,(GLvoid*) ((12*data->buffer_elements)*sizeof(GLfloat)));
; 1188 : 		glVertexAttribPointer(col,4,GL_UNSIGNED_BYTE,GL_TRUE,0,(GLvoid*) (((12*data->buffer_elements)*sizeof(GLfloat))+((8*data->buffer_elements)*sizeof(GLfloat))));
; 1189 : 		glVertexAttribPointer(texl,2,GL_FLOAT,GL_FALSE,0,(GLvoid*) (((12*data->buffer_elements)*sizeof(GLfloat))+((8*data->buffer_elements)*sizeof(GLfloat))+((16*data->buffer_elements)*sizeof(GLubyte))));
; 1190 : 		//glVertexAttribPointer(texr,4,GL_FLOAT,GL_FALSE,0,(GLvoid*) (((12*data->buffer_elements)*sizeof(GLfloat))+((8*data->buffer_elements)*sizeof(GLfloat))+((16*data->buffer_elements)*sizeof(GLubyte))+((data->buffer_elements*8)*sizeof(GLfloat))));
; 1191 : 
; 1192 : 		glBindBuffer(GL_ELEMENT_ARRAY_BUFFER,data->ibo_id);
; 1193 : 
; 1194 : 		glBufferData(GL_ELEMENT_ARRAY_BUFFER,(6*data->buffer_elements)*sizeof(GLushort),NULL,GL_DYNAMIC_DRAW);
; 1195 : 
; 1196 : 		glDisableVertexAttribArray(pos);
; 1197 : 		glDisableVertexAttribArray(texc);
; 1198 : 		glDisableVertexAttribArray(col);
; 1199 : 		glDisableVertexAttribArray(texl);
; 1200 : 		//glDisableVertexAttribArray(texr);
; 1201 : 
; 1202 : 		//glBindBuffer(GL_ELEMENT_ARRAY_BUFFER,0);
; 1203 : 		//glBindBuffer(GL_ARRAY_BUFFER,0);
; 1204 : 		glBindVertexArray(0);
; 1205 : 	}
; 1206 : 
; 1207 : 	//glUseProgram(0);
; 1208 : 
; 1209 : 	return 0;

	xor	eax, eax
	pop	ebx

; 1210 : }

	mov	esp, ebp
	pop	ebp
	ret	0
$LN8@UpdateVAO:

; 1101 : 			//free(data->texrepeat);
; 1102 : 			
; 1103 : 		}
; 1104 : 	}
; 1105 : 	else
; 1106 : 	if(upd_buff==1)

	cmp	dl, 1
	jne	$LN3@UpdateVAO

; 1107 : 	{
; 1108 : 		
; 1109 : 		glBindVertexArray(data->vao_id);

	push	esi
	push	edi
	push	DWORD PTR [ebx]
	call	DWORD PTR _GLeeFuncPtr_glBindVertexArray

; 1110 : 
; 1111 : 		col=glGetAttribLocation(st.renderer.Program[pr],"Color");

	push	OFFSET ??_C@_05PDOBBJNA@Color?$AA@
	push	DWORD PTR _st+2336660
	call	DWORD PTR _GLeeFuncPtr_glGetAttribLocation

; 1112 : 		pos=glGetAttribLocation(st.renderer.Program[pr],"Position");

	push	OFFSET ??_C@_08GCJNLIKG@Position?$AA@
	push	DWORD PTR _st+2336660
	mov	DWORD PTR _col$1$[ebp], eax
	call	DWORD PTR _GLeeFuncPtr_glGetAttribLocation

; 1113 : 		texc=glGetAttribLocation(st.renderer.Program[pr],"TexCoord");

	push	OFFSET ??_C@_08NGMLKGCO@TexCoord?$AA@
	push	DWORD PTR _st+2336660
	mov	ebx, eax
	call	DWORD PTR _GLeeFuncPtr_glGetAttribLocation

; 1114 : 		texl=glGetAttribLocation(st.renderer.Program[pr],"TexLight");

	push	OFFSET ??_C@_08DGBKPNED@TexLight?$AA@
	push	DWORD PTR _st+2336660
	mov	edi, eax
	call	DWORD PTR _GLeeFuncPtr_glGetAttribLocation

; 1115 : 		//texr=glGetAttribLocation(st.renderer.Program[pr],"TexRepeat");
; 1116 : 
; 1117 : 
; 1118 : 		glEnableVertexAttribArray(pos);

	push	ebx
	mov	esi, eax
	call	DWORD PTR _GLeeFuncPtr_glEnableVertexAttribArray

; 1119 : 		glEnableVertexAttribArray(texc);

	push	edi
	call	DWORD PTR _GLeeFuncPtr_glEnableVertexAttribArray

; 1120 : 		glEnableVertexAttribArray(col);

	push	DWORD PTR _col$1$[ebp]
	call	DWORD PTR _GLeeFuncPtr_glEnableVertexAttribArray

; 1121 : 		glEnableVertexAttribArray(texl);

	push	esi
	call	DWORD PTR _GLeeFuncPtr_glEnableVertexAttribArray

; 1122 : 		//glEnableVertexAttribArray(texr);
; 1123 : 
; 1124 : 		glBindBuffer(GL_ARRAY_BUFFER,data->vbo_id);

	mov	eax, DWORD PTR _data$1$[ebp]
	push	DWORD PTR [eax+8]
	push	34962					; 00008892H
	call	DWORD PTR _GLeeFuncPtr_glBindBuffer

; 1125 : 
; 1126 : 		glBufferData(GL_ARRAY_BUFFER,((data->buffer_elements*12)*sizeof(GLfloat))+((data->buffer_elements*8)*sizeof(GLfloat))+((data->buffer_elements*16)*sizeof(GLubyte))+((data->buffer_elements*8)*sizeof(GLfloat))+((data->buffer_elements*4)*sizeof(GLfloat)),NULL,GL_STREAM_DRAW);

	mov	eax, DWORD PTR _data$1$[ebp]
	push	35040					; 000088e0H
	push	0
	movzx	eax, WORD PTR [eax+48]
	lea	eax, DWORD PTR [eax+eax*8]
	shl	eax, 4
	push	eax
	push	34962					; 00008892H
	call	DWORD PTR _GLeeFuncPtr_glBufferData

; 1127 : 
; 1128 : 		glBufferSubData(GL_ARRAY_BUFFER,0,(12*data->num_elements)*sizeof(GLfloat),data->vertex);

	mov	eax, DWORD PTR _data$1$[ebp]
	push	DWORD PTR [eax+12]
	movzx	eax, WORD PTR [eax+46]
	lea	eax, DWORD PTR [eax+eax*2]
	shl	eax, 4
	push	eax
	push	0
	push	34962					; 00008892H
	call	DWORD PTR _GLeeFuncPtr_glBufferSubData

; 1129 : 		glBufferSubData(GL_ARRAY_BUFFER,(12*data->buffer_elements)*sizeof(GLfloat),(8*data->num_elements)*sizeof(GLfloat),data->texcoord);

	mov	ecx, DWORD PTR _data$1$[ebp]
	push	DWORD PTR [ecx+16]
	movzx	eax, WORD PTR [ecx+46]
	shl	eax, 5
	push	eax
	movzx	eax, WORD PTR [ecx+48]
	lea	eax, DWORD PTR [eax+eax*2]
	shl	eax, 4
	push	eax
	push	34962					; 00008892H
	call	DWORD PTR _GLeeFuncPtr_glBufferSubData

; 1130 : 		glBufferSubData(GL_ARRAY_BUFFER,(((12*data->buffer_elements)*sizeof(GLfloat))+((8*data->buffer_elements)*sizeof(GLfloat))),(((data->num_elements*16)*sizeof(GLubyte))),data->color);

	mov	ecx, DWORD PTR _data$1$[ebp]
	push	DWORD PTR [ecx+28]
	movzx	eax, WORD PTR [ecx+46]
	shl	eax, 4
	push	eax
	movzx	eax, WORD PTR [ecx+48]
	lea	eax, DWORD PTR [eax+eax*4]
	shl	eax, 4
	push	eax
	push	34962					; 00008892H
	call	DWORD PTR _GLeeFuncPtr_glBufferSubData

; 1131 : 		glBufferSubData(GL_ARRAY_BUFFER,(((12*data->buffer_elements)*sizeof(GLfloat))+((8*data->buffer_elements)*sizeof(GLfloat))+((data->buffer_elements*16)*sizeof(GLubyte))),(data->num_elements*8)*sizeof(float),data->texcoordlight);

	mov	ecx, DWORD PTR _data$1$[ebp]
	push	DWORD PTR [ecx+20]
	movzx	eax, WORD PTR [ecx+46]
	shl	eax, 5
	push	eax
	movzx	eax, WORD PTR [ecx+48]
	lea	eax, DWORD PTR [eax+eax*2]
	shl	eax, 5
	push	eax
	push	34962					; 00008892H
	call	DWORD PTR _GLeeFuncPtr_glBufferSubData

; 1132 : 		//glBufferSubData(GL_ARRAY_BUFFER,(((12*data->buffer_elements)*sizeof(GLfloat))+((8*data->buffer_elements)*sizeof(GLfloat))+((data->buffer_elements*16)*sizeof(GLubyte))+((data->num_elements*8)*sizeof(float))),(data->num_elements*4)*sizeof(float),data->texrepeat);
; 1133 : 
; 1134 : 
; 1135 : 		glVertexAttribPointer(pos,3,GL_FLOAT,GL_FALSE,0,0);

	push	0
	push	0
	push	0
	push	5126					; 00001406H
	push	3
	push	ebx
	call	DWORD PTR _GLeeFuncPtr_glVertexAttribPointer

; 1136 : 		glVertexAttribPointer(texc,2,GL_FLOAT,GL_FALSE,0,(GLvoid*) ((12*data->buffer_elements)*sizeof(GLfloat)));

	mov	ecx, DWORD PTR _data$1$[ebp]
	movzx	eax, WORD PTR [ecx+48]
	lea	eax, DWORD PTR [eax+eax*2]
	shl	eax, 4
	push	eax
	push	0
	push	0
	push	5126					; 00001406H
	push	2
	push	edi
	call	DWORD PTR _GLeeFuncPtr_glVertexAttribPointer

; 1137 : 		glVertexAttribPointer(col,4,GL_UNSIGNED_BYTE,GL_TRUE,0,(GLvoid*) (((12*data->buffer_elements)*sizeof(GLfloat))+((8*data->buffer_elements)*sizeof(GLfloat))));

	mov	ecx, DWORD PTR _data$1$[ebp]
	movzx	eax, WORD PTR [ecx+48]
	lea	eax, DWORD PTR [eax+eax*4]
	shl	eax, 4
	push	eax
	push	0
	push	1
	push	5121					; 00001401H
	push	4
	push	DWORD PTR _col$1$[ebp]
	call	DWORD PTR _GLeeFuncPtr_glVertexAttribPointer

; 1138 : 		glVertexAttribPointer(texl,2,GL_FLOAT,GL_FALSE,0,(GLvoid*) (((12*data->buffer_elements)*sizeof(GLfloat))+((8*data->buffer_elements)*sizeof(GLfloat))+((16*data->buffer_elements)*sizeof(GLubyte))));

	mov	ecx, DWORD PTR _data$1$[ebp]
	movzx	eax, WORD PTR [ecx+48]
	lea	eax, DWORD PTR [eax+eax*2]
	shl	eax, 5
	push	eax
	push	0
	push	0
	push	5126					; 00001406H
	push	2
	push	esi
	call	DWORD PTR _GLeeFuncPtr_glVertexAttribPointer

; 1139 : 		//glVertexAttribPointer(texr,4,GL_FLOAT,GL_FALSE,0,(GLvoid*) (((12*data->buffer_elements)*sizeof(GLfloat))+((8*data->buffer_elements)*sizeof(GLfloat))+((16*data->buffer_elements)*sizeof(GLubyte))+((data->buffer_elements*8)*sizeof(GLfloat))));
; 1140 : 
; 1141 : 
; 1142 : 		glBindBuffer(GL_ELEMENT_ARRAY_BUFFER,data->ibo_id);

	mov	eax, DWORD PTR _data$1$[ebp]
	push	DWORD PTR [eax+4]
	push	34963					; 00008893H
	call	DWORD PTR _GLeeFuncPtr_glBindBuffer

; 1143 : 
; 1144 : 		glBufferData(GL_ELEMENT_ARRAY_BUFFER,(6*data->buffer_elements)*sizeof(GLushort),NULL,GL_DYNAMIC_DRAW);

	mov	eax, DWORD PTR _data$1$[ebp]
	push	35048					; 000088e8H
	push	0
	movzx	eax, WORD PTR [eax+48]
	lea	eax, DWORD PTR [eax+eax*2]
	shl	eax, 2
	push	eax
	push	34963					; 00008893H
	call	DWORD PTR _GLeeFuncPtr_glBufferData

; 1145 : 		glBufferSubData(GL_ELEMENT_ARRAY_BUFFER,0,(6*data->num_elements)*sizeof(GLushort),data->index);

	mov	eax, DWORD PTR _data$1$[ebp]
	push	DWORD PTR [eax+32]
	movzx	eax, WORD PTR [eax+46]
	lea	eax, DWORD PTR [eax+eax*2]
	shl	eax, 2
	push	eax
	push	0
	push	34963					; 00008893H
	call	DWORD PTR _GLeeFuncPtr_glBufferSubData

; 1146 : 
; 1147 : 		glBindVertexArray(0);

	push	0
	call	DWORD PTR _GLeeFuncPtr_glBindVertexArray

; 1148 : 
; 1149 : 		glDisableVertexAttribArray(pos);

	push	ebx
	call	DWORD PTR _GLeeFuncPtr_glDisableVertexAttribArray

; 1150 : 		glDisableVertexAttribArray(texc);

	push	edi
	call	DWORD PTR _GLeeFuncPtr_glDisableVertexAttribArray

; 1151 : 		glDisableVertexAttribArray(col);

	push	DWORD PTR _col$1$[ebp]
	call	DWORD PTR _GLeeFuncPtr_glDisableVertexAttribArray

; 1152 : 		glDisableVertexAttribArray(texl);

	push	esi
	call	DWORD PTR _GLeeFuncPtr_glDisableVertexAttribArray

; 1153 : 		//glDisableVertexAttribArray(texr);
; 1154 : 
; 1155 : 		//glBindBuffer(GL_ELEMENT_ARRAY_BUFFER,0);
; 1156 : 		//glBindBuffer(GL_ARRAY_BUFFER,0);
; 1157 : 
; 1158 : 		free(data->texcoord);

	mov	ebx, DWORD PTR _data$1$[ebp]
	push	DWORD PTR [ebx+16]
	call	_free

; 1159 : 		free(data->index);

	push	DWORD PTR [ebx+32]
	call	_free

; 1160 : 		free(data->color);

	push	DWORD PTR [ebx+28]
	call	_free

; 1161 : 		free(data->vertex);

	push	DWORD PTR [ebx+12]
	call	_free

; 1162 : 		free(data->texcoordlight);

	push	DWORD PTR [ebx+20]
	call	_free
	add	esp, 20					; 00000014H
	pop	edi
	pop	esi
$LN3@UpdateVAO:

; 1163 : 		//free(data->texrepeat);
; 1164 : 	}
; 1165 : 	else
; 1166 : 	if(upd_buff==2)
; 1167 : 	{
; 1168 : 		glBindVertexArray(data->vao_id);
; 1169 : 		glBindBuffer(GL_ARRAY_BUFFER,data->vbo_id);
; 1170 : 		//glBindBuffer(GL_ELEMENT_ARRAY_BUFFER,data->ibo_id);
; 1171 : 
; 1172 : 		col=glGetAttribLocation(st.renderer.Program[pr],"Color");
; 1173 : 		pos=glGetAttribLocation(st.renderer.Program[pr],"Position");
; 1174 : 		texc=glGetAttribLocation(st.renderer.Program[pr],"TexCoord");
; 1175 : 		texl=glGetAttribLocation(st.renderer.Program[pr],"TexLight");
; 1176 : 		//texr=glGetAttribLocation(st.renderer.Program[pr],"TexRepeat");
; 1177 : 
; 1178 : 		glEnableVertexAttribArray(pos);
; 1179 : 		glEnableVertexAttribArray(texc);
; 1180 : 		glEnableVertexAttribArray(col);
; 1181 : 		glEnableVertexAttribArray(texl);
; 1182 : 		//glEnableVertexAttribArray(texr);
; 1183 : 
; 1184 : 		glBufferData(GL_ARRAY_BUFFER,((data->buffer_elements*12)*sizeof(GLfloat))+((data->buffer_elements*8)*sizeof(GLfloat))+((data->buffer_elements*16)*sizeof(GLubyte))+((data->buffer_elements*8)*sizeof(GLfloat))+((data->buffer_elements*4)*sizeof(GLfloat)),NULL,GL_STREAM_DRAW);
; 1185 : 
; 1186 : 		glVertexAttribPointer(pos,3,GL_FLOAT,GL_FALSE,0,0);
; 1187 : 		glVertexAttribPointer(texc,2,GL_FLOAT,GL_FALSE,0,(GLvoid*) ((12*data->buffer_elements)*sizeof(GLfloat)));
; 1188 : 		glVertexAttribPointer(col,4,GL_UNSIGNED_BYTE,GL_TRUE,0,(GLvoid*) (((12*data->buffer_elements)*sizeof(GLfloat))+((8*data->buffer_elements)*sizeof(GLfloat))));
; 1189 : 		glVertexAttribPointer(texl,2,GL_FLOAT,GL_FALSE,0,(GLvoid*) (((12*data->buffer_elements)*sizeof(GLfloat))+((8*data->buffer_elements)*sizeof(GLfloat))+((16*data->buffer_elements)*sizeof(GLubyte))));
; 1190 : 		//glVertexAttribPointer(texr,4,GL_FLOAT,GL_FALSE,0,(GLvoid*) (((12*data->buffer_elements)*sizeof(GLfloat))+((8*data->buffer_elements)*sizeof(GLfloat))+((16*data->buffer_elements)*sizeof(GLubyte))+((data->buffer_elements*8)*sizeof(GLfloat))));
; 1191 : 
; 1192 : 		glBindBuffer(GL_ELEMENT_ARRAY_BUFFER,data->ibo_id);
; 1193 : 
; 1194 : 		glBufferData(GL_ELEMENT_ARRAY_BUFFER,(6*data->buffer_elements)*sizeof(GLushort),NULL,GL_DYNAMIC_DRAW);
; 1195 : 
; 1196 : 		glDisableVertexAttribArray(pos);
; 1197 : 		glDisableVertexAttribArray(texc);
; 1198 : 		glDisableVertexAttribArray(col);
; 1199 : 		glDisableVertexAttribArray(texl);
; 1200 : 		//glDisableVertexAttribArray(texr);
; 1201 : 
; 1202 : 		//glBindBuffer(GL_ELEMENT_ARRAY_BUFFER,0);
; 1203 : 		//glBindBuffer(GL_ARRAY_BUFFER,0);
; 1204 : 		glBindVertexArray(0);
; 1205 : 	}
; 1206 : 
; 1207 : 	//glUseProgram(0);
; 1208 : 
; 1209 : 	return 0;

	xor	eax, eax
	pop	ebx

; 1210 : }

	mov	esp, ebp
	pop	ebp
	ret	0
_UpdateVAO ENDP
_TEXT	ENDS
; Function compile flags: /Ogtp
; File c:\users\marcos\desktop\prj\mgear-1\mgear-1\engine.c
;	COMDAT _Init
_TEXT	SEGMENT
tv1645 = -33048						; size = 8
_k$1$ = -33036						; size = 4
_statusCM$ = -33032					; size = 128
_statusLK$ = -32904					; size = 128
_logs$ = -32776						; size = 32768
__$ArrayPad$ = -4					; size = 4
_Init	PROC						; COMDAT

; 1412 : {	

	push	ebp
	mov	ebp, esp
	mov	eax, 33052				; 0000811cH
	call	__chkstk
	mov	eax, DWORD PTR ___security_cookie
	xor	eax, ebp
	mov	DWORD PTR __$ArrayPad$[ebp], eax
	push	ebx
	push	esi
	push	edi

; 1413 : 	 uint16 i=0, j=0, l=0;
; 1414 : 	 float k=0;
; 1415 : 
; 1416 : 	int check;
; 1417 : #ifndef MGEAR_CLEAN_VERSION
; 1418 : 	FMOD_RESULT result;
; 1419 : #endif
; 1420 : 
; 1421 : 	GLenum checkfb;
; 1422 : 
; 1423 : #if defined (_VAO_RENDER) || defined (_VBO_RENDER) || defined (_VA_RENDER)
; 1424 : 
; 1425 : #if defined (_VAO_RENDER) || defined (_VBO_RENDER)
; 1426 : 	GLint statusCM[32], statusLK[32];
; 1427 : 	GLchar logs[32][1024];
; 1428 : 
; 1429 : #ifdef _DEBUG
; 1430 : 	printf("Waiting...\n");
; 1431 : 	system("pause");
; 1432 : #endif
; 1433 : 
; 1434 : 	CreateLog();

	call	_CreateLog

; 1435 : 
; 1436 : 	vbd.vertex=(float*) malloc(12*sizeof(float));

	push	48					; 00000030H
	call	_malloc
	add	esp, 4
	mov	esi, eax
	mov	DWORD PTR _vbd+12, esi

; 1437 : 	vbd.texcoord=(float*) malloc(8*sizeof(float));

	push	32					; 00000020H
	call	_malloc
	add	esp, 4
	mov	DWORD PTR _vbd+16, eax

; 1438 : #endif
; 1439 : 	vbd.color=(GLubyte*) malloc(16*sizeof(GLubyte));

	push	16					; 00000010H
	call	_malloc
	add	esp, 4
	mov	DWORD PTR _vbd+28, eax

; 1440 : 	vbd.index=(GLushort*) malloc(6*sizeof(GLushort));

	push	12					; 0000000cH
	call	_malloc
	mov	DWORD PTR _vbd+32, eax
	xorps	xmm0, xmm0

; 1441 : 	
; 1442 : #if defined (_VAO_RENDER) || defined (_VBO_RENDER)
; 1443 : 
; 1444 : 	vbd.vertex[0]=-1.0f;

	mov	DWORD PTR [esi], -1082130432		; bf800000H
	add	esp, 4

; 1445 : 	vbd.vertex[1]=-1.0f;

	mov	eax, DWORD PTR _vbd+12

; 1446 : 	vbd.vertex[2]=0.0f;

	movss	DWORD PTR _k$1$[ebp], xmm0
	mov	DWORD PTR [eax+4], -1082130432		; bf800000H
	mov	eax, DWORD PTR _vbd+12
	mov	DWORD PTR [eax+8], 0

; 1447 : 	vbd.vertex[3]=1.0f;

	mov	eax, DWORD PTR _vbd+12
	mov	DWORD PTR [eax+12], 1065353216		; 3f800000H

; 1448 : 	vbd.vertex[4]=-1.0f;

	mov	eax, DWORD PTR _vbd+12
	mov	DWORD PTR [eax+16], -1082130432		; bf800000H

; 1449 : 	vbd.vertex[5]=0.0f;

	mov	eax, DWORD PTR _vbd+12
	mov	DWORD PTR [eax+20], 0

; 1450 : 	vbd.vertex[6]=1.0f;

	mov	eax, DWORD PTR _vbd+12
	mov	DWORD PTR [eax+24], 1065353216		; 3f800000H

; 1451 : 	vbd.vertex[7]=1.0f;

	mov	eax, DWORD PTR _vbd+12
	mov	DWORD PTR [eax+28], 1065353216		; 3f800000H

; 1452 : 	vbd.vertex[8]=0.0f;

	mov	eax, DWORD PTR _vbd+12
	mov	DWORD PTR [eax+32], 0

; 1453 : 	vbd.vertex[9]=-1.0f;

	mov	eax, DWORD PTR _vbd+12
	mov	DWORD PTR [eax+36], -1082130432		; bf800000H

; 1454 : 	vbd.vertex[10]=1.0f;

	mov	eax, DWORD PTR _vbd+12
	mov	DWORD PTR [eax+40], 1065353216		; 3f800000H

; 1455 : 	vbd.vertex[11]=0.0f;

	mov	eax, DWORD PTR _vbd+12
	mov	DWORD PTR [eax+44], 0

; 1456 : 
; 1457 : 	vbd.texcoord[0]=0.0f;

	mov	eax, DWORD PTR _vbd+16
	mov	DWORD PTR [eax], 0

; 1458 : 	vbd.texcoord[1]=0.0f;

	mov	eax, DWORD PTR _vbd+16
	mov	DWORD PTR [eax+4], 0

; 1459 : 	vbd.texcoord[2]=1.0f;

	mov	eax, DWORD PTR _vbd+16
	mov	DWORD PTR [eax+8], 1065353216		; 3f800000H

; 1460 : 	vbd.texcoord[3]=0.0f;

	mov	eax, DWORD PTR _vbd+16
	mov	DWORD PTR [eax+12], 0

; 1461 : 	vbd.texcoord[4]=1.0f;

	mov	eax, DWORD PTR _vbd+16
	mov	DWORD PTR [eax+16], 1065353216		; 3f800000H

; 1462 : 	vbd.texcoord[5]=1.0f;

	mov	eax, DWORD PTR _vbd+16
	mov	DWORD PTR [eax+20], 1065353216		; 3f800000H

; 1463 : 	vbd.texcoord[6]=0.0f;

	mov	eax, DWORD PTR _vbd+16
	mov	DWORD PTR [eax+24], 0

; 1464 : 	vbd.texcoord[7]=1.0f;

	mov	eax, DWORD PTR _vbd+16
	mov	DWORD PTR [eax+28], 1065353216		; 3f800000H

; 1465 : 
; 1466 : #endif
; 1467 : 
; 1468 : 	vbd.color[0]=255;

	mov	eax, DWORD PTR _vbd+28
	mov	BYTE PTR [eax], 255			; 000000ffH

; 1469 : 	vbd.color[1]=255;

	mov	eax, DWORD PTR _vbd+28
	mov	BYTE PTR [eax+1], 255			; 000000ffH

; 1470 : 	vbd.color[2]=255;

	mov	eax, DWORD PTR _vbd+28
	mov	BYTE PTR [eax+2], 255			; 000000ffH

; 1471 : 	vbd.color[3]=255;

	mov	eax, DWORD PTR _vbd+28
	mov	BYTE PTR [eax+3], 255			; 000000ffH

; 1472 : 	vbd.color[4]=255;

	mov	eax, DWORD PTR _vbd+28
	mov	BYTE PTR [eax+4], 255			; 000000ffH

; 1473 : 	vbd.color[5]=255;

	mov	eax, DWORD PTR _vbd+28
	mov	BYTE PTR [eax+5], 255			; 000000ffH

; 1474 : 	vbd.color[6]=255;

	mov	eax, DWORD PTR _vbd+28
	mov	BYTE PTR [eax+6], 255			; 000000ffH

; 1475 : 	vbd.color[7]=255;

	mov	eax, DWORD PTR _vbd+28
	mov	BYTE PTR [eax+7], 255			; 000000ffH

; 1476 : 	vbd.color[8]=255;

	mov	eax, DWORD PTR _vbd+28
	mov	BYTE PTR [eax+8], 255			; 000000ffH

; 1477 : 	vbd.color[9]=255;

	mov	eax, DWORD PTR _vbd+28
	mov	BYTE PTR [eax+9], 255			; 000000ffH

; 1478 : 	vbd.color[10]=255;
; 1479 : 	vbd.color[11]=255;
; 1480 : 	vbd.color[12]=255;
; 1481 : 	vbd.color[13]=255;
; 1482 : 	vbd.color[14]=255;
; 1483 : 	vbd.color[15]=255;
; 1484 : 
; 1485 : 	vbd.index[0]=0;

	xor	ecx, ecx
	mov	eax, DWORD PTR _vbd+28

; 1486 : 	vbd.index[1]=1;
; 1487 : 	vbd.index[2]=2;
; 1488 : 	vbd.index[3]=2;
; 1489 : 	vbd.index[4]=3;
; 1490 : 	vbd.index[5]=0;
; 1491 : 	
; 1492 : 	vbdt_num=0;
; 1493 : 
; 1494 : #endif
; 1495 : 
; 1496 : 	//Initialize SDL
; 1497 : 	if((SDL_Init(SDL_INIT_EVERYTHING))!=NULL)

	push	29233					; 00007231H
	mov	BYTE PTR [eax+10], 255			; 000000ffH
	mov	eax, DWORD PTR _vbd+28
	mov	BYTE PTR [eax+11], 255			; 000000ffH
	mov	eax, DWORD PTR _vbd+28
	mov	BYTE PTR [eax+12], 255			; 000000ffH
	mov	eax, DWORD PTR _vbd+28
	mov	BYTE PTR [eax+13], 255			; 000000ffH
	mov	eax, DWORD PTR _vbd+28
	mov	BYTE PTR [eax+14], 255			; 000000ffH
	mov	eax, DWORD PTR _vbd+28
	mov	BYTE PTR [eax+15], 255			; 000000ffH
	mov	eax, DWORD PTR _vbd+32
	mov	WORD PTR [eax], cx
	mov	ecx, 1
	mov	eax, DWORD PTR _vbd+32
	mov	WORD PTR [eax+2], cx
	mov	ecx, 2
	mov	eax, DWORD PTR _vbd+32
	mov	WORD PTR [eax+4], cx
	mov	eax, DWORD PTR _vbd+32
	mov	WORD PTR [eax+6], cx
	mov	ecx, 3
	mov	eax, DWORD PTR _vbd+32
	mov	WORD PTR [eax+8], cx
	xor	ecx, ecx
	mov	eax, DWORD PTR _vbd+32
	mov	WORD PTR [eax+10], cx
	xor	eax, eax
	mov	WORD PTR _vbdt_num, ax
	call	DWORD PTR __imp__SDL_Init
	add	esp, 4
	test	eax, eax
	jne	$LN96@Init

; 1501 : 	}
; 1502 : 
; 1503 : 	LogApp("SDL 2.0 initialzed");

	mov	edi, DWORD PTR __imp__SDL_Log
	push	OFFSET ??_C@_0BD@DNBPCBJE@SDL?52?40?5initialzed?$AA@
	call	edi
	add	esp, 4

; 1504 : 		
; 1505 : #if !defined (MGEAR_CLEAN_VERSION) || defined (ENABLE_SOUND_SYS) 
; 1506 : 
; 1507 : 	if((result=FMOD_System_Create(&st.sound_sys.Sound_System))!=FMOD_OK)
; 1508 : 	{
; 1509 : 		LogApp("Error while initializing FMOD, Creating System : %s",FMOD_ErrorString(result));
; 1510 : 			Quit();
; 1511 : 	}
; 1512 : 	LogApp("FMOD system created");
; 1513 : 	
; 1514 : 	if((result=FMOD_System_Init(st.sound_sys.Sound_System,MAX_CHANNELS,FMOD_INIT_NORMAL,NULL))!=FMOD_OK)
; 1515 : 	{
; 1516 : 		LogApp("Error while initializing FMOD : %s",FMOD_ErrorString(result));
; 1517 : 			Quit();
; 1518 : 	}
; 1519 : 
; 1520 : 	LogApp("FMOD system initialzed, %d channels",MAX_CHANNELS);
; 1521 : 	/*
; 1522 : 	for(i=0;i<MAX_SOUNDS;i++)
; 1523 : 		st.sound_sys.slot_ID[i]=-1;
; 1524 : 
; 1525 : 	for(i=0;i<MAX_CHANNELS;i++)
; 1526 : 		st.sound_sys.slotch_ID[i]=-1;
; 1527 : 		*/
; 1528 : #endif
; 1529 : 
; 1530 : 	if(TTF_Init()==-1)

	call	DWORD PTR __imp__TTF_Init
	cmp	eax, -1
	je	$LN98@Init

; 1534 : 	}
; 1535 : 
; 1536 : 	LogApp("SDL TTF initialized");

	push	OFFSET ??_C@_0BE@MBBIJNFJ@SDL?5TTF?5initialized?$AA@
	call	edi

; 1537 : 
; 1538 : //#ifndef MGEAR_MFC
; 1539 : 	
; 1540 : 	SDL_GL_SetAttribute(SDL_GL_DOUBLEBUFFER,1);

	mov	esi, DWORD PTR __imp__SDL_GL_SetAttribute
	add	esp, 4
	push	1
	push	5
	call	esi

; 1541 : 	SDL_GL_SetAttribute(SDL_GL_ACCELERATED_VISUAL,1);

	push	1
	push	15					; 0000000fH
	call	esi

; 1542 : 
; 1543 : 	//Set video mode
; 1544 : 	if(st.fullscreen)
; 1545 : 	{
; 1546 : 		if((wn=SDL_CreateWindow(st.WINDOW_NAME, SDL_WINDOWPOS_CENTERED, SDL_WINDOWPOS_CENTERED, st.screenx, st.screeny, SDL_WINDOW_FULLSCREEN | SDL_WINDOW_OPENGL ))==NULL)

	movzx	eax, WORD PTR _st+230
	add	esp, 16					; 00000010H
	cmp	BYTE PTR _st+233, 0
	je	SHORT $LN92@Init
	push	3
	push	eax
	movzx	eax, WORD PTR _st+228
	push	eax
	push	805240832				; 2fff0000H
	push	805240832				; 2fff0000H
	push	OFFSET _st+132
	call	DWORD PTR __imp__SDL_CreateWindow
	add	esp, 24					; 00000018H
	mov	DWORD PTR _wn, eax
	test	eax, eax
	jne	SHORT $LN52@Init
	jmp	$LN99@Init
$LN92@Init:

; 1550 : 		}
; 1551 : 	}
; 1552 : 	else
; 1553 : 	if(!st.fullscreen)
; 1554 : 	{
; 1555 : 		if((wn=SDL_CreateWindow(st.WINDOW_NAME, SDL_WINDOWPOS_CENTERED, SDL_WINDOWPOS_CENTERED, st.screenx, st.screeny, SDL_WINDOW_OPENGL | SDL_WINDOW_RESIZABLE))==NULL)

	push	34					; 00000022H
	push	eax
	movzx	eax, WORD PTR _st+228
	push	eax
	push	805240832				; 2fff0000H
	push	805240832				; 2fff0000H
	push	OFFSET _st+132
	call	DWORD PTR __imp__SDL_CreateWindow
	add	esp, 24					; 00000018H
	mov	DWORD PTR _wn, eax
	test	eax, eax
	je	$LN100@Init
$LN52@Init:

; 1559 : 		}
; 1560 : 	}
; 1561 : 
; 1562 : 	LogApp("Window created, %d x %d, %d bits",st.screenx,st.screeny,st.bpp);

	movzx	eax, BYTE PTR _st+232
	push	eax
	movzx	eax, WORD PTR _st+230
	push	eax
	movzx	eax, WORD PTR _st+228
	push	eax
	push	OFFSET ??_C@_0CB@CJINDJOG@Window?5created?0?5?$CFd?5x?5?$CFd?0?5?$CFd?5bits@
	call	edi

; 1563 : 
; 1564 : 	if((st.glc=SDL_GL_CreateContext(wn))==NULL)

	push	DWORD PTR _wn
	call	DWORD PTR __imp__SDL_GL_CreateContext
	add	esp, 20					; 00000014H
	mov	DWORD PTR _st+2335412, eax
	test	eax, eax
	je	$LN101@Init

; 1568 : 	}
; 1569 : 
; 1570 : 	LogApp("Opengl context created");

	push	OFFSET ??_C@_0BH@PJDJGOFF@Opengl?5context?5created?$AA@
	call	edi
	add	esp, 4

; 1571 : 
; 1572 : //#endif
; 1573 : 
; 1574 : #ifdef _VAO_RENDER
; 1575 : 	st.renderer.VAO_ON=0;

	mov	BYTE PTR _st+2336440, 0

; 1576 : #endif
; 1577 : 
; 1578 : #ifdef _VBO_RENDER
; 1579 : 	st.renderer.VBO_ON=0;
; 1580 : #endif
; 1581 : 
; 1582 : #ifdef _VA_RENDER
; 1583 : 	st.renderer.VA_ON=0;
; 1584 : #endif
; 1585 : 
; 1586 : #ifdef _VAO_RENDER
; 1587 : 	if(!GLEE_VERSION_3_0 || strstr((char const*) glGetString(GL_EXTENSIONS),"GL_ARB_vertex_array_object")==NULL)

	push	OFFSET __GLEE_VERSION_3_0
	call	_GLeeEnabled
	mov	ebx, DWORD PTR __imp__glGetString@4
	add	esp, 4
	test	al, al
	je	SHORT $LN49@Init
	push	OFFSET ??_C@_0BL@PNJKGHIL@GL_ARB_vertex_array_object?$AA@
	push	7939					; 00001f03H
	call	ebx
	push	eax
	call	_strstr
	add	esp, 8
	test	eax, eax
	je	SHORT $LN49@Init

; 1591 : 
; 1592 : #ifdef _VBO_RENDER
; 1593 : 
; 1594 : 		if(strstr((char const*) glGetString(GL_EXTENSIONS),"GL_ARB_vertex_buffer_object")==NULL)
; 1595 : 		{
; 1596 : #ifdef _VA_RENDER
; 1597 : 			st.renderer.VA_ON=1;
; 1598 : 			LogApp("VBOs not supported, check your video's card driver for updates... Using VA instead!!");
; 1599 : #else 
; 1600 : 			LogApp("Your video card is not adequate to play this game... Goodbye!!");
; 1601 : 			Quit();
; 1602 : #endif
; 1603 : 		}
; 1604 : 		else
; 1605 : 			st.renderer.VBO_ON=1;
; 1606 : #endif
; 1607 : 
; 1608 : #ifdef _VA_RENDER
; 1609 : 		if(strstr((char const*) glGetString(GL_EXTENSIONS),"GL_EXT_vertex_array")==NULL)
; 1610 : 		{
; 1611 : 			LogApp("Your video card is not adequate to play this game... Goodbye!!");
; 1612 : 			Quit();
; 1613 : 		}
; 1614 : #endif
; 1615 : 	}
; 1616 : 	else
; 1617 : 		st.renderer.VAO_ON=1;

	mov	BYTE PTR _st+2336440, 1
	jmp	SHORT $LN48@Init
$LN49@Init:

; 1588 : 	{
; 1589 : 		LogApp("VAO not supported, check your video's card driver for updates... Using VBO instead");

	push	OFFSET ??_C@_0FD@HGLPPOCA@VAO?5not?5supported?0?5check?5your?5vi@
	call	edi
	add	esp, 4

; 1590 : 		st.renderer.VAO_ON=0;

	mov	BYTE PTR _st+2336440, 0
$LN48@Init:

; 1618 : #endif
; 1619 : 
; 1620 : #if !defined (_VAO_RENDER) && defined (_VBO_RENDER)
; 1621 : 	if(strstr((char const*) glGetString(GL_EXTENSIONS),"GL_ARB_vertex_buffer_object")==NULL)
; 1622 : 	{
; 1623 : #ifdef _VA_RENDER
; 1624 : 		st.renderer.VA_ON=1;
; 1625 : 		LogApp("VBOs not supported, check your video's card driver for updates... Using VA instead!!");
; 1626 : #else
; 1627 : 		LogApp("Your video card is not adequate to play this game... Goodbye!!");
; 1628 : 		Quit();
; 1629 : #endif
; 1630 : 
; 1631 : 	}
; 1632 : 	else
; 1633 : 		st.renderer.VBO_ON=1;
; 1634 : #endif
; 1635 : 
; 1636 : #if !defined (_VAO_RENDER) && !defined (_VBO_RENDER) && defined (_VA_RENDER)
; 1637 : 	if(strstr((char const*) glGetString(GL_EXTENSIONS),"GL_EXT_vertex_array")==NULL)
; 1638 : 	{
; 1639 : 		LogApp("Your video card is not adequate to play this game... Goodbye!!");
; 1640 : 		Quit();
; 1641 : 	}
; 1642 : 	else
; 1643 : 		st.renderer.VA_ON=1;
; 1644 : #endif
; 1645 : 
; 1646 : #if defined (_VAO_RENDER) || defined (_VBO_RENDER)
; 1647 : 	if(strstr((char const*) glGetString(GL_EXTENSIONS),"GL_EXT_framebuffer")==NULL)

	push	OFFSET ??_C@_0BD@HLIFEONF@GL_EXT_framebuffer?$AA@
	push	7939					; 00001f03H
	call	ebx
	push	eax
	call	_strstr
	add	esp, 8
	test	eax, eax
	je	$LN102@Init

; 1655 : #endif
; 1656 : 	}
; 1657 : #endif
; 1658 : 
; 1659 : 	//Initialize OpenGL
; 1660 : 	glClearColor(0,0,0,0);

	sub	esp, 16					; 00000010H
	mov	DWORD PTR [esp+12], 0
	mov	DWORD PTR [esp+8], 0
	mov	DWORD PTR [esp+4], 0
	mov	DWORD PTR [esp], 0
	call	DWORD PTR __imp__glClearColor@16

; 1661 : 	glMatrixMode(GL_MODELVIEW);

	push	5888					; 00001700H
	call	DWORD PTR __imp__glMatrixMode@4

; 1662 : 	glLoadIdentity();

	call	DWORD PTR __imp__glLoadIdentity@0

; 1663 : 	glViewport(0,0,st.screenx,st.screeny);

	movzx	eax, WORD PTR _st+230
	push	eax
	movzx	eax, WORD PTR _st+228
	push	eax
	push	0
	push	0
	call	DWORD PTR __imp__glViewport@16

; 1664 : 	glEnable(GL_TEXTURE_2D);

	mov	esi, DWORD PTR __imp__glEnable@4
	push	3553					; 00000de1H
	call	esi

; 1665 : 	glDepthFunc(GL_LEQUAL);

	push	515					; 00000203H
	call	DWORD PTR __imp__glDepthFunc@4

; 1666 : 	glEnable(GL_DEPTH_TEST);

	push	2929					; 00000b71H
	call	esi

; 1667 : 	glClearDepth(1.0);

	movsd	xmm0, QWORD PTR __real@3ff0000000000000
	sub	esp, 8
	movsd	QWORD PTR [esp], xmm0
	call	DWORD PTR __imp__glClearDepth@8

; 1668 : 	glEnable(GL_BLEND);

	push	3042					; 00000be2H
	call	esi

; 1669 : 	glBlendFunc(GL_SRC_ALPHA, GL_ONE_MINUS_SRC_ALPHA);

	push	771					; 00000303H
	push	770					; 00000302H
	call	DWORD PTR __imp__glBlendFunc@8

; 1670 : 
; 1671 : #ifndef MGEAR_MFC
; 1672 : 	SDL_GL_SetSwapInterval(st.vsync);

	movzx	eax, BYTE PTR _st+241
	push	eax
	call	DWORD PTR __imp__SDL_GL_SetSwapInterval

; 1673 : #endif
; 1674 : 
; 1675 : 	glPixelStorei(GL_UNPACK_ALIGNMENT, 1);

	mov	esi, DWORD PTR __imp__glPixelStorei@8
	add	esp, 4
	push	1
	push	3317					; 00000cf5H
	call	esi

; 1676 : 	glPixelStorei(GL_UNPACK_ROW_LENGTH, 0);

	push	0
	push	3314					; 00000cf2H
	call	esi

; 1677 : 	glPixelStorei(GL_UNPACK_SKIP_PIXELS, 0);

	push	0
	push	3316					; 00000cf4H
	call	esi

; 1678 : 	glPixelStorei(GL_UNPACK_SKIP_ROWS, 0);

	push	0
	push	3315					; 00000cf3H
	call	esi

; 1679 : 
; 1680 : 	//glHint(GL_GENERATE_MIPMAP_HINT,GL_FASTEST);
; 1681 : 
; 1682 : 	if(st.renderer.VAO_ON)

	cmp	BYTE PTR _st+2336440, 0
	mov	eax, 130				; 00000082H
	jne	SHORT $LN94@Init

; 1683 : 		st.renderer.shader_version=130;
; 1684 : 	else
; 1685 : 	if(st.renderer.VBO_ON)

	cmp	BYTE PTR _st+2336452, 0
	je	SHORT $LN44@Init

; 1686 : 		st.renderer.shader_version=110;

	mov	eax, 110				; 0000006eH

; 1687 : 	else

	jmp	SHORT $LN94@Init
$LN44@Init:

; 1688 : 		st.renderer.shader_version=0;

	xor	eax, eax
$LN94@Init:

; 1689 : 
; 1690 : 	//Initialize with 32 slots
; 1691 : 	//Reallocation is done if necessary
; 1692 : 	//z_slots keeps track of the current number of slots available
; 1693 : 
; 1694 : 	//z_buffer=(int16**) calloc((3*8)*32,sizeof(int16));
; 1695 : 	//z_slots=32;
; 1696 : 
; 1697 : 	memset(z_buffer,0,((7*8)*2048)*sizeof(int16));

	push	229376					; 00038000H
	push	0
	push	OFFSET _z_buffer
	mov	WORD PTR _st+2336872, ax
	call	_memset
	add	esp, 12					; 0000000cH

; 1698 : 	memset(z_slot,0,(7*8)*sizeof(int16));

	push	112					; 00000070H
	push	0
	push	OFFSET _z_slot
	call	_memset

; 1699 : 
; 1700 : 	z_used=0;
; 1701 : 
; 1702 : #if defined (_VAO_RENDER) || defined (_VBO_RENDER)
; 1703 : 	if(st.renderer.VAO_ON || st.renderer.VBO_ON)

	mov	esi, DWORD PTR __imp__glGenTextures@8
	add	esp, 12					; 0000000cH
	cmp	BYTE PTR _st+2336440, 0
	mov	BYTE PTR _z_used, 0
	jne	SHORT $LN41@Init
	cmp	BYTE PTR _st+2336452, 0
	je	$LN35@Init
$LN41@Init:

; 1704 : 	{
; 1705 : 		glGenFramebuffers(1,&st.renderer.FBO[0]);

	push	OFFSET _st+2336776
	push	1
	call	DWORD PTR _GLeeFuncPtr_glGenFramebuffers

; 1706 : 		glBindFramebuffer(GL_FRAMEBUFFER,st.renderer.FBO[0]);

	push	DWORD PTR _st+2336776
	push	36160					; 00008d40H
	call	DWORD PTR _GLeeFuncPtr_glBindFramebuffer

; 1707 : 
; 1708 : 		glGenRenderbuffers(1,&st.renderer.RBO[0]);

	push	OFFSET _st+2336824
	push	1
	call	DWORD PTR _GLeeFuncPtr_glGenRenderbuffers

; 1709 : 		glBindRenderbuffer(GL_RENDERBUFFER,st.renderer.RBO[0]);

	push	DWORD PTR _st+2336824
	push	36161					; 00008d41H
	call	DWORD PTR _GLeeFuncPtr_glBindRenderbuffer

; 1710 : 		glRenderbufferStorage(GL_RENDERBUFFER,GL_DEPTH_COMPONENT,st.screenx,st.screeny);

	movzx	eax, WORD PTR _st+230
	push	eax
	movzx	eax, WORD PTR _st+228
	push	eax
	push	6402					; 00001902H
	push	36161					; 00008d41H
	call	DWORD PTR _GLeeFuncPtr_glRenderbufferStorage

; 1711 : 
; 1712 : 		glBindRenderbuffer(GL_RENDERBUFFER,0);

	push	0
	push	36161					; 00008d41H
	call	DWORD PTR _GLeeFuncPtr_glBindRenderbuffer

; 1713 : 
; 1714 : 		glGenTextures(1,&st.renderer.FBTex[0]);

	push	OFFSET _st+2336792
	push	1
	call	esi

; 1715 : 		glBindTexture(GL_TEXTURE_2D,st.renderer.FBTex[0]);

	push	DWORD PTR _st+2336792
	push	3553					; 00000de1H
	call	DWORD PTR __imp__glBindTexture@8

; 1716 : 		glTexImage2D(GL_TEXTURE_2D,0,GL_RGBA8,st.screenx,st.screeny,0,GL_BGRA,GL_UNSIGNED_BYTE,NULL);

	movzx	eax, WORD PTR _st+230
	push	0
	push	5121					; 00001401H
	push	32993					; 000080e1H
	push	0
	push	eax
	movzx	eax, WORD PTR _st+228
	push	eax
	push	32856					; 00008058H
	push	0
	push	3553					; 00000de1H
	call	DWORD PTR __imp__glTexImage2D@36

; 1717 : 
; 1718 : 		glFramebufferTexture2D(GL_FRAMEBUFFER,GL_COLOR_ATTACHMENT0,GL_TEXTURE_2D,st.renderer.FBTex[0],0);

	push	0
	push	DWORD PTR _st+2336792
	push	3553					; 00000de1H
	push	36064					; 00008ce0H
	push	36160					; 00008d40H
	call	DWORD PTR _GLeeFuncPtr_glFramebufferTexture2D

; 1719 : 
; 1720 : 		glFramebufferRenderbuffer(GL_FRAMEBUFFER,GL_DEPTH_ATTACHMENT,GL_RENDERBUFFER,st.renderer.RBO[0]);

	push	DWORD PTR _st+2336824
	push	36161					; 00008d41H
	push	36096					; 00008d00H
	push	36160					; 00008d40H
	call	DWORD PTR _GLeeFuncPtr_glFramebufferRenderbuffer

; 1721 : 
; 1722 : 		glGenTextures(1,&st.renderer.FBTex[1]);

	push	OFFSET _st+2336796
	push	1
	call	esi

; 1723 : 		glBindTexture(GL_TEXTURE_2D,st.renderer.FBTex[1]);

	push	DWORD PTR _st+2336796
	push	3553					; 00000de1H
	call	DWORD PTR __imp__glBindTexture@8

; 1724 : 		glTexImage2D(GL_TEXTURE_2D,0,GL_RGBA8,st.screenx,st.screeny,0,GL_BGRA,GL_UNSIGNED_BYTE,NULL);

	movzx	eax, WORD PTR _st+230
	push	0
	push	5121					; 00001401H
	push	32993					; 000080e1H
	push	0
	push	eax
	movzx	eax, WORD PTR _st+228
	push	eax
	push	32856					; 00008058H
	push	0
	push	3553					; 00000de1H
	call	DWORD PTR __imp__glTexImage2D@36

; 1725 : 
; 1726 : 		glFramebufferTexture2D(GL_FRAMEBUFFER,GL_COLOR_ATTACHMENT1,GL_TEXTURE_2D,st.renderer.FBTex[1],0);

	push	0
	push	DWORD PTR _st+2336796
	push	3553					; 00000de1H
	push	36065					; 00008ce1H
	push	36160					; 00008d40H
	call	DWORD PTR _GLeeFuncPtr_glFramebufferTexture2D

; 1727 : 
; 1728 : 		glGenTextures(1,&st.renderer.FBTex[2]);

	push	OFFSET _st+2336800
	push	1
	call	esi

; 1729 : 		glBindTexture(GL_TEXTURE_2D,st.renderer.FBTex[2]);

	push	DWORD PTR _st+2336800
	push	3553					; 00000de1H
	call	DWORD PTR __imp__glBindTexture@8

; 1730 : 		glTexImage2D(GL_TEXTURE_2D,0,GL_RGBA8,st.screenx,st.screeny,0,GL_BGRA,GL_UNSIGNED_BYTE,NULL);

	movzx	eax, WORD PTR _st+230
	push	0
	push	5121					; 00001401H
	push	32993					; 000080e1H
	push	0
	push	eax
	movzx	eax, WORD PTR _st+228
	push	eax
	push	32856					; 00008058H
	push	0
	push	3553					; 00000de1H
	call	DWORD PTR __imp__glTexImage2D@36

; 1731 : 
; 1732 : 		glFramebufferTexture2D(GL_FRAMEBUFFER,GL_COLOR_ATTACHMENT2,GL_TEXTURE_2D,st.renderer.FBTex[2],0);

	push	0
	push	DWORD PTR _st+2336800
	push	3553					; 00000de1H
	push	36066					; 00008ce2H
	push	36160					; 00008d40H
	call	DWORD PTR _GLeeFuncPtr_glFramebufferTexture2D

; 1733 : 
; 1734 : 		glGenTextures(1,&st.renderer.FBTex[3]);

	push	OFFSET _st+2336804
	push	1
	call	esi

; 1735 : 		glBindTexture(GL_TEXTURE_2D,st.renderer.FBTex[3]);

	push	DWORD PTR _st+2336804
	push	3553					; 00000de1H
	call	DWORD PTR __imp__glBindTexture@8

; 1736 : 		glTexImage2D(GL_TEXTURE_2D,0,GL_RGBA8,st.screenx,st.screeny,0,GL_BGRA,GL_UNSIGNED_BYTE,NULL);

	movzx	eax, WORD PTR _st+230
	push	0
	push	5121					; 00001401H
	push	32993					; 000080e1H
	push	0
	push	eax
	movzx	eax, WORD PTR _st+228
	push	eax
	push	32856					; 00008058H
	push	0
	push	3553					; 00000de1H
	call	DWORD PTR __imp__glTexImage2D@36

; 1737 : 
; 1738 : 		glFramebufferTexture2D(GL_FRAMEBUFFER,GL_COLOR_ATTACHMENT3,GL_TEXTURE_2D,st.renderer.FBTex[3],0);

	push	0
	push	DWORD PTR _st+2336804
	push	3553					; 00000de1H
	push	36067					; 00008ce3H
	push	36160					; 00008d40H
	call	DWORD PTR _GLeeFuncPtr_glFramebufferTexture2D

; 1739 : 
; 1740 : 		glBindFramebuffer(GL_FRAMEBUFFER,0);

	push	0
	push	36160					; 00008d40H
	call	DWORD PTR _GLeeFuncPtr_glBindFramebuffer

; 1741 : 		
; 1742 : 		st.renderer.Buffers[0]=GL_COLOR_ATTACHMENT0;
; 1743 : 		st.renderer.Buffers[1]=GL_COLOR_ATTACHMENT1;
; 1744 : 		st.renderer.Buffers[2]=GL_COLOR_ATTACHMENT2;
; 1745 : 		st.renderer.Buffers[3]=GL_COLOR_ATTACHMENT3;
; 1746 : 
; 1747 : SHADER_CREATION:
; 1748 : 
; 1749 : 		st.renderer.VShader[0]=glCreateShader(GL_VERTEX_SHADER);

	push	35633					; 00008b31H
	mov	DWORD PTR _st+2336856, 36064		; 00008ce0H
	mov	DWORD PTR _st+2336860, 36065		; 00008ce1H
	mov	DWORD PTR _st+2336864, 36066		; 00008ce2H
	mov	DWORD PTR _st+2336868, 36067		; 00008ce3H
$SHADER_CREATION$109:
	call	DWORD PTR _GLeeFuncPtr_glCreateShader

; 1750 : 		//st.renderer.FShader[0]=glCreateShader(GL_FRAGMENT_SHADER);
; 1751 : 		//st.renderer.FShader[1]=glCreateShader(GL_FRAGMENT_SHADER);
; 1752 : 		st.renderer.FShader[2]=glCreateShader(GL_FRAGMENT_SHADER);

	push	35632					; 00008b30H
	mov	DWORD PTR _st+2336456, eax
	call	DWORD PTR _GLeeFuncPtr_glCreateShader

; 1753 : 		st.renderer.FShader[3]=glCreateShader(GL_FRAGMENT_SHADER);

	push	35632					; 00008b30H
	mov	DWORD PTR _st+2336528, eax
	call	DWORD PTR _GLeeFuncPtr_glCreateShader

; 1754 : 		st.renderer.FShader[4]=glCreateShader(GL_FRAGMENT_SHADER);

	push	35632					; 00008b30H
	mov	DWORD PTR _st+2336532, eax
	call	DWORD PTR _GLeeFuncPtr_glCreateShader

; 1755 : 		st.renderer.FShader[5]=glCreateShader(GL_FRAGMENT_SHADER);

	push	35632					; 00008b30H
	mov	DWORD PTR _st+2336536, eax
	call	DWORD PTR _GLeeFuncPtr_glCreateShader

; 1756 : 		st.renderer.FShader[6]=glCreateShader(GL_FRAGMENT_SHADER);

	push	35632					; 00008b30H
	mov	DWORD PTR _st+2336540, eax
	call	DWORD PTR _GLeeFuncPtr_glCreateShader
	mov	DWORD PTR _st+2336544, eax

; 1757 : 
; 1758 : #ifdef _VAO_RENDER
; 1759 : 
; 1760 : 		if(st.renderer.shader_version==130)

	mov	eax, 130				; 00000082H
	cmp	WORD PTR _st+2336872, ax
	jne	SHORT $LN40@Init

; 1761 : 		{
; 1762 : 			glShaderSource(st.renderer.VShader[0],1,(const GLchar**) Texture_VShader,0);

	push	0
	push	OFFSET _Texture_VShader
	push	1
	push	DWORD PTR _st+2336456
	call	DWORD PTR _GLeeFuncPtr_glShaderSource

; 1763 : 			//glShaderSource(st.renderer.FShader[0],1,(const GLchar**) Lighting_FShader,0);
; 1764 : 			//glShaderSource(st.renderer.FShader[1],1,(const GLchar**) Normal_FShader,0);
; 1765 : 			glShaderSource(st.renderer.FShader[2],1,(const GLchar**) Texture_FShader,0);

	push	0
	push	OFFSET _Texture_FShader
	push	1
	push	DWORD PTR _st+2336528
	call	DWORD PTR _GLeeFuncPtr_glShaderSource

; 1766 : 			glShaderSource(st.renderer.FShader[3],1,(const GLchar**) Lightmap_FShader,0);

	push	0
	push	OFFSET _Lightmap_FShader
	push	1
	push	DWORD PTR _st+2336532
	call	DWORD PTR _GLeeFuncPtr_glShaderSource

; 1767 : 			glShaderSource(st.renderer.FShader[4],1,(const GLchar**) TextureNoT_FShader,0);

	push	0
	push	OFFSET _TextureNoT_FShader
	push	1
	push	DWORD PTR _st+2336536
	call	DWORD PTR _GLeeFuncPtr_glShaderSource

; 1768 : 			glShaderSource(st.renderer.FShader[5],1,(const GLchar**) TextureT_FShader,0);

	push	0
	push	OFFSET _TextureT_FShader
	push	1
	push	DWORD PTR _st+2336540
	call	DWORD PTR _GLeeFuncPtr_glShaderSource

; 1769 : 			glShaderSource(st.renderer.FShader[6],1,(const GLchar**) Blend_FShader,0);

	push	0
	push	OFFSET _Blend_FShader
	push	1
	push	DWORD PTR _st+2336544
	call	DWORD PTR _GLeeFuncPtr_glShaderSource
$LN40@Init:

; 1770 : 		}
; 1771 : #endif
; 1772 : 		//else
; 1773 : #ifdef _VBO_RENDER
; 1774 : 		if(st.renderer.shader_version==110)
; 1775 : 		{
; 1776 : 			
; 1777 : 			glShaderSource(st.renderer.VShader[0],1,(const GLchar**) Texture_VShader110,0);
; 1778 : 			glShaderSource(st.renderer.FShader[2],1,(const GLchar**) Texture_FShader110,0);
; 1779 : 			glShaderSource(st.renderer.FShader[3],1,(const GLchar**) Lightmap_FShader110,0);
; 1780 : 			glShaderSource(st.renderer.FShader[4],1,(const GLchar**) TextureNoT_FShader110,0);
; 1781 : 			glShaderSource(st.renderer.FShader[5],1,(const GLchar**) TextureT_FShader110,0);
; 1782 : 			glShaderSource(st.renderer.FShader[6],1,(const GLchar**) Blend_FShader110,0);
; 1783 : 		}
; 1784 : #endif
; 1785 : 
; 1786 : 		glCompileShader(st.renderer.VShader[0]);

	push	DWORD PTR _st+2336456
	call	DWORD PTR _GLeeFuncPtr_glCompileShader

; 1787 : 		//glCompileShader(st.renderer.FShader[0]);
; 1788 : 		//glCompileShader(st.renderer.FShader[1]);
; 1789 : 		glCompileShader(st.renderer.FShader[2]);

	push	DWORD PTR _st+2336528
	call	DWORD PTR _GLeeFuncPtr_glCompileShader

; 1790 : 		glCompileShader(st.renderer.FShader[3]);

	push	DWORD PTR _st+2336532
	call	DWORD PTR _GLeeFuncPtr_glCompileShader

; 1791 : 		glCompileShader(st.renderer.FShader[4]);

	push	DWORD PTR _st+2336536
	call	DWORD PTR _GLeeFuncPtr_glCompileShader

; 1792 : 		glCompileShader(st.renderer.FShader[5]);

	push	DWORD PTR _st+2336540
	call	DWORD PTR _GLeeFuncPtr_glCompileShader

; 1793 : 		glCompileShader(st.renderer.FShader[6]);

	push	DWORD PTR _st+2336544
	call	DWORD PTR _GLeeFuncPtr_glCompileShader

; 1794 : 
; 1795 : 		glGetShaderiv(st.renderer.VShader[0],GL_COMPILE_STATUS,&statusCM[0]);

	lea	eax, DWORD PTR _statusCM$[ebp]
	push	eax
	push	35713					; 00008b81H
	push	DWORD PTR _st+2336456
	call	DWORD PTR _GLeeFuncPtr_glGetShaderiv

; 1796 : 		//glGetShaderiv(st.renderer.FShader[0],GL_COMPILE_STATUS,&statusCM[1]);
; 1797 : 		//glGetShaderiv(st.renderer.FShader[1],GL_COMPILE_STATUS,&statusCM[2]);
; 1798 : 		glGetShaderiv(st.renderer.FShader[2],GL_COMPILE_STATUS,&statusCM[3]);

	lea	eax, DWORD PTR _statusCM$[ebp+12]
	push	eax
	push	35713					; 00008b81H
	push	DWORD PTR _st+2336528
	call	DWORD PTR _GLeeFuncPtr_glGetShaderiv

; 1799 : 		glGetShaderiv(st.renderer.FShader[3],GL_COMPILE_STATUS,&statusCM[4]);

	lea	eax, DWORD PTR _statusCM$[ebp+16]
	push	eax
	push	35713					; 00008b81H
	push	DWORD PTR _st+2336532
	call	DWORD PTR _GLeeFuncPtr_glGetShaderiv

; 1800 : 		glGetShaderiv(st.renderer.FShader[4],GL_COMPILE_STATUS,&statusCM[5]);

	lea	eax, DWORD PTR _statusCM$[ebp+20]
	push	eax
	push	35713					; 00008b81H
	push	DWORD PTR _st+2336536
	call	DWORD PTR _GLeeFuncPtr_glGetShaderiv

; 1801 : 		glGetShaderiv(st.renderer.FShader[5],GL_COMPILE_STATUS,&statusCM[6]);

	lea	eax, DWORD PTR _statusCM$[ebp+24]
	push	eax
	push	35713					; 00008b81H
	push	DWORD PTR _st+2336540
	call	DWORD PTR _GLeeFuncPtr_glGetShaderiv

; 1802 : 		glGetShaderiv(st.renderer.FShader[6],GL_COMPILE_STATUS,&statusCM[7]);

	lea	eax, DWORD PTR _statusCM$[ebp+28]
	push	eax
	push	35713					; 00008b81H
	push	DWORD PTR _st+2336544
	call	DWORD PTR _GLeeFuncPtr_glGetShaderiv

; 1803 : 
; 1804 : 		if(!statusCM[0] || !statusCM[3] || !statusCM[4] || !statusCM[5] || !statusCM[6] || !statusCM[7])

	cmp	DWORD PTR _statusCM$[ebp], 0
	je	$LN38@Init
	cmp	DWORD PTR _statusCM$[ebp+12], 0
	je	$LN38@Init
	cmp	DWORD PTR _statusCM$[ebp+16], 0
	je	$LN38@Init
	cmp	DWORD PTR _statusCM$[ebp+20], 0
	je	$LN38@Init
	cmp	DWORD PTR _statusCM$[ebp+24], 0
	je	$LN38@Init
	cmp	DWORD PTR _statusCM$[ebp+28], 0
	je	$LN38@Init

; 1823 : 				}
; 1824 : 			}
; 1825 : 
; 1826 : #ifdef _VBO_RENDER
; 1827 : 			if(st.renderer.shader_version==130)
; 1828 : 			{
; 1829 : 				LogApp("Changing to VBO...");
; 1830 : 
; 1831 : 				if(strstr((char const*) glGetString(GL_EXTENSIONS),"GL_ARB_vertex_buffer_object")==NULL)
; 1832 : 				{
; 1833 : #ifdef _VA_RENDER
; 1834 : 					st.renderer.VA_ON=1;
; 1835 : 					LogApp("VBOs not supported, check your video's card driver for updates... Using VA instead!!");
; 1836 : #else
; 1837 : 					LogApp("Your video card is not adequate to play this game... Goodbye!!");
; 1838 : 					Quit();
; 1839 : #endif
; 1840 : 				}
; 1841 : 				else
; 1842 : 				{
; 1843 : 					st.renderer.VBO_ON=1;
; 1844 : 					st.renderer.shader_version=110;
; 1845 : 
; 1846 : 					glDeleteShader(st.renderer.VShader[0]);
; 1847 : 					glDeleteShader(st.renderer.VShader[3]);
; 1848 : 					glDeleteShader(st.renderer.VShader[4]);
; 1849 : 					glDeleteShader(st.renderer.VShader[5]);
; 1850 : 					glDeleteShader(st.renderer.VShader[6]);
; 1851 : 					glDeleteShader(st.renderer.VShader[7]);
; 1852 : 
; 1853 : 					goto SHADER_CREATION;
; 1854 : 				}
; 1855 : 			}
; 1856 : 			else
; 1857 : 			if(st.renderer.shader_version==110)
; 1858 : 			{
; 1859 : 
; 1860 : #ifdef _VA_RENDER
; 1861 : 
; 1862 : 				LogApp("Changing to VA...");
; 1863 : 
; 1864 : 				if(strstr((char const*) glGetString(GL_EXTENSIONS),"GL_EXT_vertex_array")==NULL)
; 1865 : 				{
; 1866 : 					LogApp("Your video card is not adequate to play this game... Goodbye!!");
; 1867 : 					Quit();
; 1868 : 				}
; 1869 : 				else
; 1870 : 				{
; 1871 : 					st.renderer.VA_ON=1;
; 1872 : 
; 1873 : 					glDeleteShader(st.renderer.VShader[0]);
; 1874 : 					glDeleteShader(st.renderer.VShader[3]);
; 1875 : 					glDeleteShader(st.renderer.VShader[4]);
; 1876 : 					glDeleteShader(st.renderer.VShader[5]);
; 1877 : 					glDeleteShader(st.renderer.VShader[6]);
; 1878 : 					glDeleteShader(st.renderer.VShader[7]);
; 1879 : 				}
; 1880 : 			}
; 1881 : #endif
; 1882 : 
; 1883 : #endif
; 1884 : 		}
; 1885 : 		else
; 1886 : 		if(statusCM[0] && statusCM[3] && statusCM[4] && statusCM[5] && statusCM[6] && statusCM[7])
; 1887 : 		{
; 1888 : 			//st.renderer.Program[0]=glCreateProgram();
; 1889 : 			//st.renderer.Program[1]=glCreateProgram();
; 1890 : 			st.renderer.Program[2]=glCreateProgram();

	call	DWORD PTR _GLeeFuncPtr_glCreateProgram
	mov	DWORD PTR _st+2336656, eax

; 1891 : 			st.renderer.Program[3]=glCreateProgram();

	call	DWORD PTR _GLeeFuncPtr_glCreateProgram
	mov	DWORD PTR _st+2336660, eax

; 1892 : 			st.renderer.Program[4]=glCreateProgram();

	call	DWORD PTR _GLeeFuncPtr_glCreateProgram
	mov	DWORD PTR _st+2336664, eax

; 1893 : 			st.renderer.Program[5]=glCreateProgram();

	call	DWORD PTR _GLeeFuncPtr_glCreateProgram
	mov	DWORD PTR _st+2336668, eax

; 1894 : 			st.renderer.Program[6]=glCreateProgram();

	call	DWORD PTR _GLeeFuncPtr_glCreateProgram

; 1895 : 
; 1896 : 			//glAttachShader(st.renderer.Program[0],st.renderer.VShader[0]);
; 1897 : 			//glAttachShader(st.renderer.Program[0],st.renderer.FShader[0]);
; 1898 : 			
; 1899 : 			//glAttachShader(st.renderer.Program[1],st.renderer.VShader[0]);
; 1900 : 			//glAttachShader(st.renderer.Program[1],st.renderer.FShader[1]);
; 1901 : 
; 1902 : 			glAttachShader(st.renderer.Program[2],st.renderer.VShader[0]);

	push	DWORD PTR _st+2336456
	mov	DWORD PTR _st+2336672, eax
	push	DWORD PTR _st+2336656
	call	DWORD PTR _GLeeFuncPtr_glAttachShader

; 1903 : 			glAttachShader(st.renderer.Program[2],st.renderer.FShader[2]);

	push	DWORD PTR _st+2336528
	push	DWORD PTR _st+2336656
	call	DWORD PTR _GLeeFuncPtr_glAttachShader

; 1904 : 			
; 1905 : 			glAttachShader(st.renderer.Program[3],st.renderer.VShader[0]);

	push	DWORD PTR _st+2336456
	push	DWORD PTR _st+2336660
	call	DWORD PTR _GLeeFuncPtr_glAttachShader

; 1906 : 			glAttachShader(st.renderer.Program[3],st.renderer.FShader[3]);

	push	DWORD PTR _st+2336532
	push	DWORD PTR _st+2336660
	call	DWORD PTR _GLeeFuncPtr_glAttachShader

; 1907 : 
; 1908 : 			glAttachShader(st.renderer.Program[4],st.renderer.VShader[0]);

	push	DWORD PTR _st+2336456
	push	DWORD PTR _st+2336664
	call	DWORD PTR _GLeeFuncPtr_glAttachShader

; 1909 : 			glAttachShader(st.renderer.Program[4],st.renderer.FShader[4]);

	push	DWORD PTR _st+2336536
	push	DWORD PTR _st+2336664
	call	DWORD PTR _GLeeFuncPtr_glAttachShader

; 1910 : 
; 1911 : 			glAttachShader(st.renderer.Program[5],st.renderer.VShader[0]);

	push	DWORD PTR _st+2336456
	push	DWORD PTR _st+2336668
	call	DWORD PTR _GLeeFuncPtr_glAttachShader

; 1912 : 			glAttachShader(st.renderer.Program[5],st.renderer.FShader[5]);

	push	DWORD PTR _st+2336540
	push	DWORD PTR _st+2336668
	call	DWORD PTR _GLeeFuncPtr_glAttachShader

; 1913 : 
; 1914 : 			glAttachShader(st.renderer.Program[6],st.renderer.VShader[0]);

	push	DWORD PTR _st+2336456
	push	DWORD PTR _st+2336672
	call	DWORD PTR _GLeeFuncPtr_glAttachShader

; 1915 : 			glAttachShader(st.renderer.Program[6],st.renderer.FShader[6]);

	push	DWORD PTR _st+2336544
	push	DWORD PTR _st+2336672
	call	DWORD PTR _GLeeFuncPtr_glAttachShader

; 1916 : 
; 1917 : 			//glLinkProgram(st.renderer.Program[0]);
; 1918 : 			//glLinkProgram(st.renderer.Program[1]);
; 1919 : 			glLinkProgram(st.renderer.Program[2]);

	push	DWORD PTR _st+2336656
	call	DWORD PTR _GLeeFuncPtr_glLinkProgram

; 1920 : 			glLinkProgram(st.renderer.Program[3]);

	push	DWORD PTR _st+2336660
	call	DWORD PTR _GLeeFuncPtr_glLinkProgram

; 1921 : 			glLinkProgram(st.renderer.Program[4]);

	push	DWORD PTR _st+2336664
	call	DWORD PTR _GLeeFuncPtr_glLinkProgram

; 1922 : 			glLinkProgram(st.renderer.Program[5]);

	push	DWORD PTR _st+2336668
	call	DWORD PTR _GLeeFuncPtr_glLinkProgram

; 1923 : 			glLinkProgram(st.renderer.Program[6]);

	push	DWORD PTR _st+2336672
	call	DWORD PTR _GLeeFuncPtr_glLinkProgram

; 1924 : 
; 1925 : 			//glGetProgramiv(st.renderer.Program[0],GL_LINK_STATUS,&statusLK[0]);
; 1926 : 			//glGetProgramiv(st.renderer.Program[1],GL_LINK_STATUS,&statusLK[1]);
; 1927 : 			glGetProgramiv(st.renderer.Program[2],GL_LINK_STATUS,&statusLK[2]);

	lea	eax, DWORD PTR _statusLK$[ebp+8]
	push	eax
	push	35714					; 00008b82H
	push	DWORD PTR _st+2336656
	call	DWORD PTR _GLeeFuncPtr_glGetProgramiv

; 1928 : 			glGetProgramiv(st.renderer.Program[3],GL_LINK_STATUS,&statusLK[3]);

	lea	eax, DWORD PTR _statusLK$[ebp+12]
	push	eax
	push	35714					; 00008b82H
	push	DWORD PTR _st+2336660
	call	DWORD PTR _GLeeFuncPtr_glGetProgramiv

; 1929 : 			glGetProgramiv(st.renderer.Program[4],GL_LINK_STATUS,&statusLK[4]);

	lea	eax, DWORD PTR _statusLK$[ebp+16]
	push	eax
	push	35714					; 00008b82H
	push	DWORD PTR _st+2336664
	call	DWORD PTR _GLeeFuncPtr_glGetProgramiv

; 1930 : 			glGetProgramiv(st.renderer.Program[5],GL_LINK_STATUS,&statusLK[5]);

	lea	eax, DWORD PTR _statusLK$[ebp+20]
	push	eax
	push	35714					; 00008b82H
	push	DWORD PTR _st+2336668
	call	DWORD PTR _GLeeFuncPtr_glGetProgramiv

; 1931 : 			glGetProgramiv(st.renderer.Program[6],GL_LINK_STATUS,&statusLK[6]);

	lea	eax, DWORD PTR _statusLK$[ebp+24]
	push	eax
	push	35714					; 00008b82H
	push	DWORD PTR _st+2336672
	call	DWORD PTR _GLeeFuncPtr_glGetProgramiv

; 1932 : 			/*
; 1933 : 			if(!statusLK[0])
; 1934 : 			{
; 1935 : 				glDeleteProgram(st.renderer.Program[0]);
; 1936 : 				glDeleteShader(st.renderer.VShader[0]);
; 1937 : 				glDeleteShader(st.renderer.FShader[0]);
; 1938 : 			}
; 1939 : 			else
; 1940 : 			{
; 1941 : 				glDetachShader(st.renderer.Program[0],st.renderer.VShader[0]);
; 1942 : 				glDetachShader(st.renderer.Program[0],st.renderer.FShader[0]);
; 1943 : 			}
; 1944 : 			
; 1945 : 			if(!statusLK[1])
; 1946 : 			{
; 1947 : 				glDeleteProgram(st.renderer.Program[1]);
; 1948 : 				glDeleteShader(st.renderer.VShader[0]);
; 1949 : 				glDeleteShader(st.renderer.FShader[1]);
; 1950 : 			}
; 1951 : 			else
; 1952 : 			{
; 1953 : 				glDetachShader(st.renderer.Program[1],st.renderer.VShader[0]);
; 1954 : 				glDetachShader(st.renderer.Program[1],st.renderer.FShader[1]);
; 1955 : 			}
; 1956 : 			*/
; 1957 : 			if(!statusLK[2])

	cmp	DWORD PTR _statusLK$[ebp+8], 0
	jne	SHORT $LN25@Init

; 1958 : 			{
; 1959 : 				glDeleteProgram(st.renderer.Program[2]);

	push	DWORD PTR _st+2336656
	call	DWORD PTR _GLeeFuncPtr_glDeleteProgram

; 1960 : 				glDeleteShader(st.renderer.VShader[0]);

	push	DWORD PTR _st+2336456
	call	DWORD PTR _GLeeFuncPtr_glDeleteShader

; 1961 : 				glDeleteShader(st.renderer.FShader[2]);

	push	DWORD PTR _st+2336528
	call	DWORD PTR _GLeeFuncPtr_glDeleteShader

; 1962 : 			}
; 1963 : 			else

	jmp	SHORT $LN24@Init
$LN25@Init:

; 1964 : 			{
; 1965 : 				glDetachShader(st.renderer.Program[2],st.renderer.VShader[0]);

	push	DWORD PTR _st+2336456
	push	DWORD PTR _st+2336656
	call	DWORD PTR _GLeeFuncPtr_glDetachShader

; 1966 : 				glDetachShader(st.renderer.Program[2],st.renderer.FShader[2]);

	push	DWORD PTR _st+2336528
	push	DWORD PTR _st+2336656
	call	DWORD PTR _GLeeFuncPtr_glDetachShader
$LN24@Init:

; 1967 : 			}
; 1968 : 			
; 1969 : 			if(!statusLK[3])

	cmp	DWORD PTR _statusLK$[ebp+12], 0
	jne	SHORT $LN23@Init

; 1970 : 			{
; 1971 : 				glGetProgramInfoLog(st.renderer.Program[3],1024,NULL,logs[0]);

	lea	eax, DWORD PTR _logs$[ebp]
	push	eax
	push	0
	push	1024					; 00000400H
	push	DWORD PTR _st+2336660
	call	DWORD PTR _GLeeFuncPtr_glGetProgramInfoLog

; 1972 : 				glDeleteProgram(st.renderer.Program[3]);

	push	DWORD PTR _st+2336660
	call	DWORD PTR _GLeeFuncPtr_glDeleteProgram

; 1973 : 				glDeleteShader(st.renderer.VShader[0]);

	push	DWORD PTR _st+2336456
	call	DWORD PTR _GLeeFuncPtr_glDeleteShader

; 1974 : 				glDeleteShader(st.renderer.FShader[3]);

	push	DWORD PTR _st+2336532
	call	DWORD PTR _GLeeFuncPtr_glDeleteShader

; 1975 : 			}
; 1976 : 			else

	jmp	SHORT $LN22@Init
$LN23@Init:

; 1977 : 			{
; 1978 : 				glDetachShader(st.renderer.Program[3],st.renderer.VShader[0]);

	push	DWORD PTR _st+2336456
	push	DWORD PTR _st+2336660
	call	DWORD PTR _GLeeFuncPtr_glDetachShader

; 1979 : 				glDetachShader(st.renderer.Program[3],st.renderer.FShader[3]);

	push	DWORD PTR _st+2336532
	push	DWORD PTR _st+2336660
	call	DWORD PTR _GLeeFuncPtr_glDetachShader
$LN22@Init:

; 1980 : 			}
; 1981 : 
; 1982 : 			if(!statusLK[4])

	cmp	DWORD PTR _statusLK$[ebp+16], 0
	jne	SHORT $LN21@Init

; 1983 : 			{
; 1984 : 				glGetProgramInfoLog(st.renderer.Program[4],1024,NULL,logs[0]);

	lea	eax, DWORD PTR _logs$[ebp]
	push	eax
	push	0
	push	1024					; 00000400H
	push	DWORD PTR _st+2336664
	call	DWORD PTR _GLeeFuncPtr_glGetProgramInfoLog

; 1985 : 				glDeleteProgram(st.renderer.Program[4]);

	push	DWORD PTR _st+2336664
	call	DWORD PTR _GLeeFuncPtr_glDeleteProgram

; 1986 : 				glDeleteShader(st.renderer.VShader[0]);

	push	DWORD PTR _st+2336456
	call	DWORD PTR _GLeeFuncPtr_glDeleteShader

; 1987 : 				glDeleteShader(st.renderer.FShader[4]);

	push	DWORD PTR _st+2336536
	call	DWORD PTR _GLeeFuncPtr_glDeleteShader

; 1988 : 			}
; 1989 : 			else

	jmp	SHORT $LN20@Init
$LN21@Init:

; 1990 : 			{
; 1991 : 				glDetachShader(st.renderer.Program[4],st.renderer.VShader[0]);

	push	DWORD PTR _st+2336456
	push	DWORD PTR _st+2336664
	call	DWORD PTR _GLeeFuncPtr_glDetachShader

; 1992 : 				glDetachShader(st.renderer.Program[4],st.renderer.FShader[4]);

	push	DWORD PTR _st+2336536
	push	DWORD PTR _st+2336664
	call	DWORD PTR _GLeeFuncPtr_glDetachShader
$LN20@Init:

; 1993 : 			}
; 1994 : 
; 1995 : 			if(!statusLK[5])

	cmp	DWORD PTR _statusLK$[ebp+20], 0
	jne	SHORT $LN19@Init

; 1996 : 			{
; 1997 : 				glGetProgramInfoLog(st.renderer.Program[5],1024,NULL,logs[0]);

	lea	eax, DWORD PTR _logs$[ebp]
	push	eax
	push	0
	push	1024					; 00000400H
	push	DWORD PTR _st+2336668
	call	DWORD PTR _GLeeFuncPtr_glGetProgramInfoLog

; 1998 : 				glDeleteProgram(st.renderer.Program[5]);

	push	DWORD PTR _st+2336668
	call	DWORD PTR _GLeeFuncPtr_glDeleteProgram

; 1999 : 				glDeleteShader(st.renderer.VShader[0]);

	push	DWORD PTR _st+2336456
	call	DWORD PTR _GLeeFuncPtr_glDeleteShader

; 2000 : 				glDeleteShader(st.renderer.FShader[5]);

	push	DWORD PTR _st+2336540
	call	DWORD PTR _GLeeFuncPtr_glDeleteShader

; 2001 : 			}
; 2002 : 			else

	jmp	SHORT $LN18@Init
$LN19@Init:

; 2003 : 			{
; 2004 : 				glDetachShader(st.renderer.Program[5],st.renderer.VShader[0]);

	push	DWORD PTR _st+2336456
	push	DWORD PTR _st+2336668
	call	DWORD PTR _GLeeFuncPtr_glDetachShader

; 2005 : 				glDetachShader(st.renderer.Program[5],st.renderer.FShader[5]);

	push	DWORD PTR _st+2336540
	push	DWORD PTR _st+2336668
	call	DWORD PTR _GLeeFuncPtr_glDetachShader
$LN18@Init:

; 2006 : 			}
; 2007 : 
; 2008 : 			if(!statusLK[6])

	cmp	DWORD PTR _statusLK$[ebp+24], 0
	jne	SHORT $LN17@Init

; 2009 : 			{
; 2010 : 				glGetProgramInfoLog(st.renderer.Program[6],1024,NULL,logs[0]);

	lea	eax, DWORD PTR _logs$[ebp]
	push	eax
	push	0
	push	1024					; 00000400H
	push	DWORD PTR _st+2336672
	call	DWORD PTR _GLeeFuncPtr_glGetProgramInfoLog

; 2011 : 				glDeleteProgram(st.renderer.Program[6]);

	push	DWORD PTR _st+2336672
	call	DWORD PTR _GLeeFuncPtr_glDeleteProgram

; 2012 : 				glDeleteShader(st.renderer.VShader[0]);

	push	DWORD PTR _st+2336456
	call	DWORD PTR _GLeeFuncPtr_glDeleteShader

; 2013 : 				glDeleteShader(st.renderer.FShader[6]);

	push	DWORD PTR _st+2336544
	call	DWORD PTR _GLeeFuncPtr_glDeleteShader

; 2014 : 			}
; 2015 : 			else

	jmp	SHORT $LN16@Init
$LN17@Init:

; 2016 : 			{
; 2017 : 				glDetachShader(st.renderer.Program[6],st.renderer.VShader[0]);

	push	DWORD PTR _st+2336456
	push	DWORD PTR _st+2336672
	call	DWORD PTR _GLeeFuncPtr_glDetachShader

; 2018 : 				glDetachShader(st.renderer.Program[6],st.renderer.FShader[6]);

	push	DWORD PTR _st+2336544
	push	DWORD PTR _st+2336672
	call	DWORD PTR _GLeeFuncPtr_glDetachShader
$LN16@Init:

; 2019 : 			}
; 2020 : 
; 2021 : 			if(!statusLK[2] || !statusLK[3] || !statusLK[4] || !statusLK[5] || !statusLK[6])
; 2022 : 			{
; 2023 : #ifdef _VA_RENDER
; 2024 : 
; 2025 : 				LogApp("Changing to VA...");
; 2026 : 
; 2027 : 				if(strstr((char const*) glGetString(GL_EXTENSIONS),"GL_EXT_vertex_array")==NULL)
; 2028 : 				{
; 2029 : 					LogApp("Your video card is not adequate to play this game... Goodbye!!");
; 2030 : 					Quit();
; 2031 : 				}
; 2032 : 				else
; 2033 : 					st.renderer.VA_ON=1;
; 2034 : #endif
; 2035 : 			}
; 2036 : 
; 2037 : 			//This is the main VAO/VBO, used for 1 Quad only objects
; 2038 : 
; 2039 : 			if(statusLK[0] || statusLK[3] || statusLK[4] || statusLK[5] || statusLK[6])

	cmp	DWORD PTR _statusLK$[ebp], 0
	jne	SHORT $LN12@Init
	cmp	DWORD PTR _statusLK$[ebp+12], 0
	jne	SHORT $LN12@Init
	cmp	DWORD PTR _statusLK$[ebp+16], 0
	jne	SHORT $LN12@Init
	cmp	DWORD PTR _statusLK$[ebp+20], 0
	jne	SHORT $LN12@Init
	cmp	DWORD PTR _statusLK$[ebp+24], 0
	je	$LN35@Init
$LN12@Init:

; 2040 : 			{
; 2041 : 				glUseProgram(st.renderer.Program[2]);

	push	DWORD PTR _st+2336656
	call	DWORD PTR _GLeeFuncPtr_glUseProgram

; 2042 : 				st.renderer.unifs[0]=glGetUniformLocation(st.renderer.Program[2],"texu");

	push	OFFSET ??_C@_04DBNNPNIH@texu?$AA@
	push	DWORD PTR _st+2336656
	call	DWORD PTR _GLeeFuncPtr_glGetUniformLocation

; 2043 : 				glUseProgram(st.renderer.Program[3]);

	push	DWORD PTR _st+2336660
	mov	DWORD PTR _st+2336712, eax
	call	DWORD PTR _GLeeFuncPtr_glUseProgram

; 2044 : 				st.renderer.unifs[1]=glGetUniformLocation(st.renderer.Program[3],"texu");

	push	OFFSET ??_C@_04DBNNPNIH@texu?$AA@
	push	DWORD PTR _st+2336660
	call	DWORD PTR _GLeeFuncPtr_glGetUniformLocation

; 2045 : 				st.renderer.unifs[2]=glGetUniformLocation(st.renderer.Program[3],"texu2");

	push	OFFSET ??_C@_05JOJNJPAP@texu2?$AA@
	push	DWORD PTR _st+2336660
	mov	DWORD PTR _st+2336716, eax
	call	DWORD PTR _GLeeFuncPtr_glGetUniformLocation

; 2046 : 				st.renderer.unifs[3]=glGetUniformLocation(st.renderer.Program[3],"texu3");

	push	OFFSET ??_C@_05IHIGKOEO@texu3?$AA@
	push	DWORD PTR _st+2336660
	mov	DWORD PTR _st+2336720, eax
	call	DWORD PTR _GLeeFuncPtr_glGetUniformLocation

; 2047 : 				st.renderer.unifs[4]=glGetUniformLocation(st.renderer.Program[3],"normal");

	push	OFFSET ??_C@_06IKLLLDHL@normal?$AA@
	push	DWORD PTR _st+2336660
	mov	DWORD PTR _st+2336724, eax
	call	DWORD PTR _GLeeFuncPtr_glGetUniformLocation

; 2048 : 				st.renderer.unifs[5]=glGetUniformLocation(st.renderer.Program[2],"light_type");

	push	OFFSET ??_C@_0L@GLKJCCIE@light_type?$AA@
	push	DWORD PTR _st+2336656
	mov	DWORD PTR _st+2336728, eax
	call	DWORD PTR _GLeeFuncPtr_glGetUniformLocation

; 2049 : 				//st.renderer.unifs[6]=glGetUniformLocation(st.renderer.Program[3],"Tile");
; 2050 : 				//st.renderer.unifs[7]=glGetUniformLocation(st.renderer.Program[3],"Tiles");
; 2051 : 
; 2052 : #ifdef _VAO_RENDER
; 2053 : 			CreateVAO(&vbd,1,3);

	push	ecx
	mov	dl, 1
	mov	DWORD PTR _st+2336732, eax
	mov	ecx, OFFSET _vbd
	call	_CreateVAO
	add	esp, 4
	jmp	SHORT $LN35@Init
$LN38@Init:

; 1805 : 		{
; 1806 : 			
; 1807 : 			for(i=0;i<8;i++)

	xor	esi, esi
	npad	1
$LL37@Init:

; 1808 : 			{
; 1809 : 				if(i==1 || i==2) continue;

	cmp	si, 1
	je	SHORT $LN36@Init
	cmp	si, 2
	je	SHORT $LN36@Init

; 1810 : 
; 1811 : 				if(!statusCM[i])

	movzx	ebx, si
	cmp	DWORD PTR _statusCM$[ebp+ebx*4], 0
	jne	SHORT $LN36@Init

; 1812 : 				{
; 1813 : 					if(i==1)
; 1814 : 						glGetShaderInfoLog(st.renderer.FShader[0],1024,NULL,logs[0]);
; 1815 : 					else
; 1816 : 					if(i==0)
; 1817 : 						glGetShaderInfoLog(st.renderer.VShader[0],1024,NULL,logs[0]);

	lea	eax, DWORD PTR _logs$[ebp]
	push	eax
	push	0
	push	1024					; 00000400H
	test	si, si
	jne	SHORT $LN29@Init
	push	DWORD PTR _st+2336456

; 1818 : 					else

	jmp	SHORT $LN95@Init
$LN29@Init:

; 1819 : 						glGetShaderInfoLog(st.renderer.FShader[i-1],1024,NULL,logs[0]);

	push	DWORD PTR _st[ebx*4+2336516]
$LN95@Init:
	call	DWORD PTR _GLeeFuncPtr_glGetShaderInfoLog

; 1820 : 
; 1821 : 					LogApp("Shader %d: %s",i ,logs[0]);

	lea	eax, DWORD PTR _logs$[ebp]
	push	eax
	push	ebx
	push	OFFSET ??_C@_0O@BNBOBIPB@Shader?5?$CFd?3?5?$CFs?$AA@
	call	edi
	add	esp, 12					; 0000000cH

; 1822 : 					LogApp("Counld not compile shader");

	push	OFFSET ??_C@_0BK@JJHKDBGE@Counld?5not?5compile?5shader?$AA@
	call	edi
	add	esp, 4
$LN36@Init:

; 1805 : 		{
; 1806 : 			
; 1807 : 			for(i=0;i<8;i++)

	inc	esi
	cmp	si, 8
	jb	SHORT $LL37@Init
	mov	ebx, DWORD PTR __imp__glGetString@4
$LN35@Init:

; 2054 : #elif _VBO_RENDER
; 2055 : 			CreateVBO(&vbd, 1);
; 2056 : #endif 
; 2057 : 			}
; 2058 : 		}
; 2059 : 	}
; 2060 : 
; 2061 : #endif
; 2062 : 
; 2063 : 	LogApp("Opengl initialized");

	push	OFFSET ??_C@_0BD@MFHDJABA@Opengl?5initialized?$AA@
	call	edi
	add	esp, 4

; 2064 : 
; 2065 : 	if(strstr((char const*) glGetString(GL_EXTENSIONS),"GL_ARB_texture_non_power_of_two")==NULL)

	push	OFFSET ??_C@_0CA@IICOLDCN@GL_ARB_texture_non_power_of_two?$AA@
	push	7939					; 00001f03H
	call	ebx
	push	eax
	call	_strstr
	add	esp, 8
	test	eax, eax
	jne	SHORT $LN11@Init

; 2066 : 	{
; 2067 : 		st.LOWRES=1;
; 2068 : 		LogApp("Non power of two textures not supported, loading times might increase and video's fps might decrease");

	push	OFFSET ??_C@_0GF@JPJDLJAN@Non?5power?5of?5two?5textures?5not?5su@
	mov	BYTE PTR _st+2335446, 1
	call	edi
	add	esp, 4
$LN11@Init:

; 2069 : 	}
; 2070 : 
; 2071 : 	if(strstr((char const*) glGetString(GL_EXTENSIONS),"GL_ARB_texture_rectangle")==NULL && strstr((char const*) glGetString(GL_EXTENSIONS),"GL_NV_texture_rectangle")==NULL && strstr((char const*) glGetString(GL_EXTENSIONS),"GL_NV_texture_rectangle")==NULL)

	push	OFFSET ??_C@_0BJ@NKHMPMDJ@GL_ARB_texture_rectangle?$AA@
	push	7939					; 00001f03H
	call	ebx
	push	eax
	call	_strstr
	add	esp, 8
	test	eax, eax
	jne	SHORT $LN10@Init
	push	OFFSET ??_C@_0BI@KIAKBMLM@GL_NV_texture_rectangle?$AA@
	push	7939					; 00001f03H
	call	ebx
	push	eax
	call	_strstr
	add	esp, 8
	test	eax, eax
	jne	SHORT $LN10@Init
	push	OFFSET ??_C@_0BI@KIAKBMLM@GL_NV_texture_rectangle?$AA@
	push	7939					; 00001f03H
	call	ebx
	push	eax
	call	_strstr
	add	esp, 8
	test	eax, eax
	jne	SHORT $LN10@Init

; 2072 : 		LogApp("Rectangle textures not supported, your video card is not supported or try updating your driver");

	push	OFFSET ??_C@_0FP@HOKOFLMI@Rectangle?5textures?5not?5supported@
	call	edi
	add	esp, 4
$LN10@Init:

; 2073 : 
; 2074 : 	st.quit=0;

	xorps	xmm0, xmm0
	mov	WORD PTR _st+66668, 0

; 2075 : 
; 2076 : 	st.time=0;

	movlpd	QWORD PTR _st+64272, xmm0

; 2077 : 
; 2078 : 	st.PlayingVideo=0;
; 2079 : 
; 2080 : 	InputInit();

	call	_InputInit

; 2081 : 
; 2082 : 	LogApp("Input initialized");

	push	OFFSET ??_C@_0BC@DHDBMALK@Input?5initialized?$AA@
	call	edi

; 2083 : 
; 2084 : 	st.Camera.position.x=0;
; 2085 : 	st.Camera.position.y=0;
; 2086 : 	st.Camera.dimension.x=1.0f;
; 2087 : 	st.Camera.dimension.y=1.0f;
; 2088 : 	st.Camera.angle=0.0;

	xor	eax, eax
	mov	DWORD PTR _st+2335380, 0
	add	esp, 4
	mov	DWORD PTR _st+2335384, 0
	mov	DWORD PTR _st+2335396, 1065353216	; 3f800000H
	mov	DWORD PTR _st+2335400, 1065353216	; 3f800000H
	mov	WORD PTR _st+2335392, ax

; 2089 : 
; 2090 : 	st.Current_Map.num_lights=0;
; 2091 : 	st.Current_Map.num_mgg=0;
; 2092 : 	st.Current_Map.num_obj=0;
; 2093 : 	st.Current_Map.num_sector=0;
; 2094 : 	st.Current_Map.num_sprites=0;
; 2095 : 
; 2096 : 	st.num_hud=0;
; 2097 : 	st.num_tex=0;
; 2098 : 	st.num_ui=0;
; 2099 : 
; 2100 : 	st.num_sprites=0;
; 2101 : 
; 2102 : 	st.num_uiwindow=0;
; 2103 : 
; 2104 : 	st.cursor_type=0;
; 2105 : 
; 2106 : 	memset(&ent,0,MAX_GRAPHICS*sizeof(_ENTITIES));

	push	540672					; 00084000H
	push	eax
	push	OFFSET _ent
	mov	DWORD PTR _st+66846, eax
	mov	WORD PTR _st+66850, ax
	mov	WORD PTR _st+66844, ax
	mov	DWORD PTR _st+252, eax
	mov	DWORD PTR _st+248, eax
	mov	DWORD PTR _st+256, eax
	mov	WORD PTR _st+2335376, ax
	mov	BYTE PTR _st+264, al
	mov	BYTE PTR _st+3307836, al
	call	_memset
	add	esp, 12					; 0000000cH

; 2107 : 
; 2108 : #ifndef MGEAR_CLEAN_VERSION
; 2109 : 	memset(&lmp,0,MAX_LIGHTMAPS*sizeof(_ENTITIES));
; 2110 : 	memset(&st.Game_Sprites,0,MAX_SPRITES*sizeof(_SPRITES));
; 2111 : #endif
; 2112 : 
; 2113 : 	memset(&st.strings,0,MAX_STRINGS*sizeof(StringsE));

	push	546816					; 00085800H
	push	0
	push	OFFSET _st+2761020
	call	_memset
	add	esp, 12					; 0000000cH
	xorps	xmm1, xmm1
$LL9@Init:

; 2114 : 
; 2115 : 	//Calculates Cos, Sin and Tan tables
; 2116 : 	for(k=0.0f;k<360.1f;k+=0.1f)
; 2117 : 	{
; 2118 : 		i=k*10;

	movaps	xmm0, xmm1
	mulss	xmm0, DWORD PTR __real@41200000
	cvttss2si eax, xmm0

; 2119 : 		st.CosTable[i]=cos((k*pi)/180);

	cvtps2pd xmm0, xmm1
	movzx	esi, ax
	mulsd	xmm0, QWORD PTR __real@400921fb53c8d4f1
	divsd	xmm0, QWORD PTR __real@4066800000000000
	movsd	QWORD PTR tv1645[ebp], xmm0
	call	__libm_sse2_cos_precise
	xorps	xmm1, xmm1
	cvtsd2ss xmm1, xmm0

; 2120 : 		st.SinTable[i]=sin((k*pi)/180);

	movsd	xmm0, QWORD PTR tv1645[ebp]
	movss	DWORD PTR _st[esi*4+2717808], xmm1
	call	__libm_sse2_sin_precise
	xorps	xmm1, xmm1
	cvtsd2ss xmm1, xmm0

; 2121 : 		st.TanTable[i]=tan((k*pi)/180);

	movsd	xmm0, QWORD PTR tv1645[ebp]
	movss	DWORD PTR _st[esi*4+2732212], xmm1
	call	__libm_sse2_tan_precise
	movss	xmm1, DWORD PTR _k$1$[ebp]
	addss	xmm1, DWORD PTR __real@3dcccccd
	cvtsd2ss xmm0, xmm0
	movss	DWORD PTR _k$1$[ebp], xmm1
	movss	DWORD PTR _st[esi*4+2746616], xmm0
	movss	xmm0, DWORD PTR __real@43b40ccd
	comiss	xmm0, xmm1
	ja	$LL9@Init

; 2122 : 	}
; 2123 : 
; 2124 : #ifndef MGEAR_CLEAN_VERSION
; 2125 : 	memset(&st.game_lightmaps,0,MAX_LIGHTMAPS*sizeof(_GAME_LIGHTMAPS));
; 2126 : 
; 2127 : 	st.game_lightmaps[0].stat=1;
; 2128 : 
; 2129 : 	st.game_lightmaps[0].W_w=GAME_WIDTH;
; 2130 : 	st.game_lightmaps[0].W_h=GAME_HEIGHT;
; 2131 : 
; 2132 : 	st.game_lightmaps[0].T_w=4;
; 2133 : 	st.game_lightmaps[0].T_h=2;
; 2134 : 
; 2135 : 	st.game_lightmaps[0].num_lights=1;
; 2136 : 	st.game_lightmaps[0].w_pos.x=GAME_HEIGHT;
; 2137 : 	st.game_lightmaps[0].w_pos.y=4096;
; 2138 : 	st.game_lightmaps[0].w_pos.z=0;
; 2139 : 
; 2140 : 	st.game_lightmaps[0].t_pos[0].x=2;
; 2141 : 	st.game_lightmaps[0].t_pos[0].y=1;
; 2142 : 	st.game_lightmaps[0].t_pos[0].z=0;
; 2143 : 
; 2144 : 	st.game_lightmaps[0].t_pos[1].x=0;
; 2145 : 	st.game_lightmaps[0].t_pos[1].y=0;
; 2146 : 	st.game_lightmaps[0].t_pos[1].z=0;
; 2147 : 
; 2148 : 	st.game_lightmaps[0].t_pos[2].x=200;
; 2149 : 	st.game_lightmaps[0].t_pos[2].y=95;
; 2150 : 	st.game_lightmaps[0].t_pos[2].z=0;
; 2151 : 
; 2152 : 	st.game_lightmaps[0].data=GenerateLightmap(st.game_lightmaps[0].T_w, st.game_lightmaps[0].T_h);
; 2153 : 	AddLightToLightmap(st.game_lightmaps[0].data,st.game_lightmaps[0].T_w,st.game_lightmaps[0].T_h,255,255,255,0.1,st.game_lightmaps[0].t_pos[0].x,st.game_lightmaps[0].t_pos[0].y,st.game_lightmaps[0].t_pos[0].z,255,POINT_LIGHT_NORMAL);
; 2154 : 	//AddLightToLightmap(st.game_lightmaps[0].data,st.game_lightmaps[0].T_w,st.game_lightmaps[0].T_h,255,255,255,16,st.game_lightmaps[0].t_pos[1].x,st.game_lightmaps[0].t_pos[1].y,st.game_lightmaps[0].t_pos[1].z,128);
; 2155 : 	//AddLightToLightmap(st.game_lightmaps[0].data,st.game_lightmaps[0].T_w,st.game_lightmaps[0].T_h,255,255,255,16,st.game_lightmaps[0].t_pos[2].x,st.game_lightmaps[0].t_pos[2].y,st.game_lightmaps[0].t_pos[0].z,255);
; 2156 : 
; 2157 : 	st.game_lightmaps[0].tex=GenerateLightmapTexture(st.game_lightmaps[0].data,st.game_lightmaps[0].T_w,st.game_lightmaps[0].T_h);
; 2158 : 
; 2159 : #endif
; 2160 : 
; 2161 : 	DataN=(unsigned char*) calloc(64*64*3,sizeof(unsigned char));

	push	1
	push	12288					; 00003000H
	call	_calloc
	add	esp, 8
	mov	DWORD PTR _DataN, eax
	add	eax, 2
	mov	edx, 64					; 00000040H
	npad	2
$LL6@Init:

; 2164 : 	{
; 2165 : 		for(j=0;j<64;j++)

	mov	ecx, 64					; 00000040H
	npad	11
$LL3@Init:

; 2166 : 		{
; 2167 : 			DataN[(i*64*3)+(j*3)]=255;

	mov	WORD PTR [eax-2], 65535			; 0000ffffH

; 2168 : 			DataN[(i*64*3)+(j*3)+1]=255;
; 2169 : 			DataN[(i*64*3)+(j*3)+2]=255;

	mov	BYTE PTR [eax], 255			; 000000ffH
	add	eax, 3
	dec	ecx
	jne	SHORT $LL3@Init

; 2162 : 
; 2163 : 	for(i=0;i<64;i++)

	dec	edx
	jne	SHORT $LL6@Init

; 2170 : 		}
; 2171 : 	}
; 2172 : 
; 2173 : 	glGenTextures(1,&DataNT);

	push	OFFSET _DataNT
	push	1
	call	DWORD PTR __imp__glGenTextures@8

; 2174 : 	glBindTexture(GL_TEXTURE_2D,DataNT);

	push	DWORD PTR _DataNT
	push	3553					; 00000de1H
	call	DWORD PTR __imp__glBindTexture@8

; 2175 : 
; 2176 : 	glTexImage2D(GL_TEXTURE_2D,0,GL_RGB8,64,64,0,GL_BGR,GL_UNSIGNED_BYTE,DataN);

	push	DWORD PTR _DataN
	push	5121					; 00001401H
	push	32992					; 000080e0H
	push	0
	push	64					; 00000040H
	push	64					; 00000040H
	push	32849					; 00008051H
	push	0
	push	3553					; 00000de1H
	call	DWORD PTR __imp__glTexImage2D@36

; 2177 : 
; 2178 : 	glGenerateMipmap(GL_TEXTURE_2D);

	push	3553					; 00000de1H
	call	DWORD PTR _GLeeFuncPtr_glGenerateMipmap

; 2179 : 
; 2180 : 	//glTexParameterf(GL_TEXTURE_2D, GL_TEXTURE_MAG_FILTER, GL_LINEAR);
; 2181 : 	//glTexParameterf(GL_TEXTURE_2D, GL_TEXTURE_MIN_FILTER, GL_LINEAR);
; 2182 : 	
; 2183 : }

	mov	ecx, DWORD PTR __$ArrayPad$[ebp]
	pop	edi
	pop	esi
	xor	ecx, ebp
	pop	ebx
	call	@__security_check_cookie@4
	mov	esp, ebp
	pop	ebp
	ret	0
$LN96@Init:

; 1498 : 	{
; 1499 : 		LogApp("SDL Initilization failed %s",SDL_GetError());

	call	DWORD PTR __imp__SDL_GetError
	push	eax
	push	OFFSET ??_C@_0BM@HCNBMJIE@SDL?5Initilization?5failed?5?$CFs?$AA@
	call	DWORD PTR __imp__SDL_Log
	add	esp, 8

; 1500 : 			Quit();

	call	_Quit
$LN103@Init:
$LN98@Init:

; 1531 : 	{
; 1532 : 		LogApp("Error while initializing SDL TTF : %s",TTF_GetError());

	call	DWORD PTR __imp__SDL_GetError
	push	eax
	push	OFFSET ??_C@_0CG@LLIBEPGC@Error?5while?5initializing?5SDL?5TTF@
	call	edi
	add	esp, 8

; 1533 : 			Quit();

	call	_Quit
$LN104@Init:
$LN99@Init:

; 1547 : 		{
; 1548 : 			LogApp("Error setting fullscreen video mode %d x %d %d bits - %s",st.screenx,st.screeny,st.bpp,SDL_GetError());

	call	DWORD PTR __imp__SDL_GetError
	push	eax
	movzx	eax, BYTE PTR _st+232
	push	eax
	movzx	eax, WORD PTR _st+230
	push	eax
	movzx	eax, WORD PTR _st+228
	push	eax
	push	OFFSET ??_C@_0DJ@GHPNMNEC@Error?5setting?5fullscreen?5video?5m@
	call	edi
	add	esp, 20					; 00000014H

; 1549 : 				Quit();

	call	_Quit
$LN105@Init:
$LN100@Init:

; 1556 : 		{
; 1557 : 			LogApp("Error setting widowed video mode %d x %d %d bits - %s",st.screenx,st.screeny,st.bpp,SDL_GetError());

	call	DWORD PTR __imp__SDL_GetError
	push	eax
	movzx	eax, BYTE PTR _st+232
	push	eax
	movzx	eax, WORD PTR _st+230
	push	eax
	movzx	eax, WORD PTR _st+228
	push	eax
	push	OFFSET ??_C@_0DG@HINKMIAE@Error?5setting?5widowed?5video?5mode@
	call	edi
	add	esp, 20					; 00000014H

; 1558 : 				Quit();

	call	_Quit
$LN106@Init:
$LN101@Init:

; 1565 : 	{
; 1566 : 		LogApp("Error setting renderer: %s",SDL_GetError());

	call	DWORD PTR __imp__SDL_GetError
	push	eax
	push	OFFSET ??_C@_0BL@JKBAOCCM@Error?5setting?5renderer?3?5?$CFs?$AA@
	call	edi
	add	esp, 8

; 1567 : 				Quit();

	call	_Quit
$LN107@Init:
$LN102@Init:

; 1648 : 	{
; 1649 : #ifdef _VA_RENDER
; 1650 : 		st.renderer.VA_ON=1;
; 1651 : 		LogApp("Framebuffer object not support, check your video's card driver for updates... Usign VA instead!");
; 1652 : #else
; 1653 : 		LogApp("Your video card is not adequate to play this game... Goodbye!!");

	push	OFFSET ??_C@_0DP@GKIFJBKD@Your?5video?5card?5is?5not?5adequate?5@
	call	edi
	add	esp, 4

; 1654 : 		Quit();

	call	_Quit
$LN108@Init:
$LN93@Init:
	int	3
_Init	ENDP
_TEXT	ENDS
; Function compile flags: /Ogtp
; File c:\users\marcos\desktop\prj\mgear-1\mgear-1\engine.c
;	COMDAT _OpenFont
_TEXT	SEGMENT
_OpenFont PROC						; COMDAT
; _name$ = ecx
; _index$ = dl

; 2187 : 	if((st.fonts[index].font=TTF_OpenFont(file,font_size))==NULL)
; 2188 : 	{
; 2189 : 		LogApp("Error while opening TTF font : %s",TTF_GetError());
; 2190 : 		return 0;
; 2191 : 	}
; 2192 : 
; 2193 : 	st.fonts[index].size_h_px=font_size;

	movzx	eax, dl
	imul	eax, eax, 84

; 2194 : 	st.fonts[index].size_w_px=font_size/2;
; 2195 : 	st.fonts[index].size_w_gm=font_size;
; 2196 : 	st.fonts[index].size_h_gm=font_size;
; 2197 : 	
; 2198 : 	strcpy(st.fonts[index].name,name);

	lea	edx, DWORD PTR _st[eax+64280]
	mov	DWORD PTR _st[eax+64352], 128		; 00000080H
	mov	DWORD PTR _st[eax+64348], 64		; 00000040H
	sub	edx, ecx
	mov	DWORD PTR _st[eax+64356], 128		; 00000080H
	mov	DWORD PTR _st[eax+64360], 128		; 00000080H
$LL4@OpenFont:
	mov	al, BYTE PTR [ecx]
	lea	ecx, DWORD PTR [ecx+1]
	mov	BYTE PTR [edx+ecx-1], al
	test	al, al
	jne	SHORT $LL4@OpenFont

; 2199 : 
; 2200 : 	return 1;

	mov	al, 1

; 2201 : }

	ret	0
_OpenFont ENDP
_TEXT	ENDS
; Function compile flags: /Ogtp
; File c:\users\marcos\desktop\prj\mgear-1\mgear-1\engine.c
;	COMDAT _RestartVideo
_TEXT	SEGMENT
_RestartVideo PROC					; COMDAT

; 2204 : {

	push	esi

; 2205 : 	
; 2206 : 	LogApp("Video restarted");

	mov	esi, DWORD PTR __imp__SDL_Log
	push	edi
	push	OFFSET ??_C@_0BA@NDONFOIB@Video?5restarted?$AA@
	call	esi
	add	esp, 4

; 2207 : 
; 2208 : 	//SDL_DestroyWindow(wn);
; 2209 : 
; 2210 : //	wn=SDL_CreateWindow(st.WINDOW_NAME,SDL_WINDOWPOS_CENTERED,SDL_WINDOWPOS_CENTERED,st.screenx,st.screeny, st.fullscreen==1 ? SDL_WINDOW_FULLSCREEN : NULL | SDL_WINDOW_OPENGL);
; 2211 : 
; 2212 : 	if(wn==NULL)

	cmp	DWORD PTR _wn, 0
	jne	SHORT $LN2@RestartVid

; 2213 : 	{
; 2214 : 		if(st.fullscreen) LogApp("Error setting fullscreen video mode %d x %d %d bits - %s",st.screenx,st.screeny,st.bpp,SDL_GetError());

	cmp	BYTE PTR _st+233, 0
	je	SHORT $LN3@RestartVid
	call	DWORD PTR __imp__SDL_GetError
	push	eax
	movzx	eax, BYTE PTR _st+232
	push	eax
	movzx	eax, WORD PTR _st+230
	push	eax
	movzx	eax, WORD PTR _st+228
	push	eax
	push	OFFSET ??_C@_0DJ@GHPNMNEC@Error?5setting?5fullscreen?5video?5m@
	jmp	SHORT $LN7@RestartVid
$LN3@RestartVid:

; 2215 : 		else LogApp("Error setting windowed video mode %d x %d %d bits - %s",st.screenx,st.screeny,st.bpp,SDL_GetError());

	call	DWORD PTR __imp__SDL_GetError
	push	eax
	movzx	eax, BYTE PTR _st+232
	push	eax
	movzx	eax, WORD PTR _st+230
	push	eax
	movzx	eax, WORD PTR _st+228
	push	eax
	push	OFFSET ??_C@_0DH@KKJPEJIP@Error?5setting?5windowed?5video?5mod@
$LN7@RestartVid:
	call	esi
	add	esp, 20					; 00000014H
$LN2@RestartVid:

; 2216 : 	}
; 2217 : 
; 2218 : 	//LogApp("Window created, %d x %d, %d bits",st.screenx,st.screeny,st.bpp);
; 2219 : 
; 2220 : 	//SDL_GL_MakeCurrent(wn,st.glc);
; 2221 : 
; 2222 : 	//SDL_GL_SetAttribute( SDL_GL_DOUBLEBUFFER, 1 );
; 2223 : //	SDL_RenderPresent(st.glc);
; 2224 : 
; 2225 : 	glViewport(0,0,st.screenx,st.screeny);

	movzx	eax, WORD PTR _st+230
	push	eax
	movzx	eax, WORD PTR _st+228
	push	eax
	push	0
	push	0
	call	DWORD PTR __imp__glViewport@16

; 2226 : 
; 2227 : 	glClearColor(0,0,0,0);

	sub	esp, 16					; 00000010H
	mov	DWORD PTR [esp+12], 0
	mov	DWORD PTR [esp+8], 0
	mov	DWORD PTR [esp+4], 0
	mov	DWORD PTR [esp], 0
	call	DWORD PTR __imp__glClearColor@16

; 2228 : 	glMatrixMode(GL_PROJECTION);

	mov	edi, DWORD PTR __imp__glMatrixMode@4
	push	5889					; 00001701H
	call	edi

; 2229 : 	glLoadIdentity();

	mov	esi, DWORD PTR __imp__glLoadIdentity@0
	call	esi

; 2230 : 	glOrtho(0,st.screenx,st.screeny,0,0,1);

	movzx	eax, WORD PTR _st+230
	sub	esp, 48					; 00000030H
	movsd	xmm0, QWORD PTR __real@3ff0000000000000
	xorps	xmm1, xmm1
	movsd	QWORD PTR [esp+40], xmm0
	movd	xmm0, eax
	movzx	eax, WORD PTR _st+228
	cvtdq2pd xmm0, xmm0
	movups	XMMWORD PTR [esp+24], xmm1
	movsd	QWORD PTR [esp+16], xmm0
	movd	xmm0, eax
	cvtdq2pd xmm0, xmm0
	movsd	QWORD PTR [esp+8], xmm0
	movsd	QWORD PTR [esp], xmm1
	call	DWORD PTR __imp__glOrtho@48

; 2231 : 	glMatrixMode(GL_MODELVIEW);

	push	5888					; 00001700H
	call	edi

; 2232 : 	glLoadIdentity();

	call	esi

; 2233 : 	glEnable(GL_BLEND);

	mov	esi, DWORD PTR __imp__glEnable@4
	push	3042					; 00000be2H
	call	esi

; 2234 : 	glBlendFunc(GL_SRC_ALPHA, GL_ONE_MINUS_SRC_ALPHA);

	push	771					; 00000303H
	push	770					; 00000302H
	call	DWORD PTR __imp__glBlendFunc@8

; 2235 : 	glEnable(GL_TEXTURE_2D);

	push	3553					; 00000de1H
	call	esi

; 2236 : 	SDL_GL_SetSwapInterval(st.vsync);

	movzx	eax, BYTE PTR _st+241
	push	eax
	call	DWORD PTR __imp__SDL_GL_SetSwapInterval
	add	esp, 4

; 2237 : 
; 2238 : 	glBindRenderbuffer(GL_RENDERBUFFER, st.renderer.RBO[0]);

	push	DWORD PTR _st+2336824
	push	36161					; 00008d41H
	call	DWORD PTR _GLeeFuncPtr_glBindRenderbuffer

; 2239 : 	glRenderbufferStorage(GL_RENDERBUFFER, GL_DEPTH_COMPONENT, st.screenx, st.screeny);

	movzx	eax, WORD PTR _st+230
	push	eax
	movzx	eax, WORD PTR _st+228
	push	eax
	push	6402					; 00001902H
	push	36161					; 00008d41H
	call	DWORD PTR _GLeeFuncPtr_glRenderbufferStorage

; 2240 : 
; 2241 : 	glBindRenderbuffer(GL_RENDERBUFFER, 0);

	push	0
	push	36161					; 00008d41H
	call	DWORD PTR _GLeeFuncPtr_glBindRenderbuffer

; 2242 : 
; 2243 : 	glBindTexture(GL_TEXTURE_2D, st.renderer.FBTex[0]);

	push	DWORD PTR _st+2336792
	mov	edi, DWORD PTR __imp__glBindTexture@8
	push	3553					; 00000de1H
	call	edi

; 2244 : 	glTexImage2D(GL_TEXTURE_2D, 0, GL_RGBA8, st.screenx, st.screeny, 0, GL_BGRA, GL_UNSIGNED_BYTE, NULL);

	movzx	eax, WORD PTR _st+230
	mov	esi, DWORD PTR __imp__glTexImage2D@36
	push	0
	push	5121					; 00001401H
	push	32993					; 000080e1H
	push	0
	push	eax
	movzx	eax, WORD PTR _st+228
	push	eax
	push	32856					; 00008058H
	push	0
	push	3553					; 00000de1H
	call	esi

; 2245 : 
; 2246 : 	glFramebufferTexture2D(GL_FRAMEBUFFER, GL_COLOR_ATTACHMENT0, GL_TEXTURE_2D, st.renderer.FBTex[0], 0);

	push	0
	push	DWORD PTR _st+2336792
	push	3553					; 00000de1H
	push	36064					; 00008ce0H
	push	36160					; 00008d40H
	call	DWORD PTR _GLeeFuncPtr_glFramebufferTexture2D

; 2247 : 
; 2248 : 	glFramebufferRenderbuffer(GL_FRAMEBUFFER, GL_DEPTH_ATTACHMENT, GL_RENDERBUFFER, st.renderer.RBO[0]);

	push	DWORD PTR _st+2336824
	push	36161					; 00008d41H
	push	36096					; 00008d00H
	push	36160					; 00008d40H
	call	DWORD PTR _GLeeFuncPtr_glFramebufferRenderbuffer

; 2249 : 
; 2250 : 	glBindTexture(GL_TEXTURE_2D, st.renderer.FBTex[1]);

	push	DWORD PTR _st+2336796
	push	3553					; 00000de1H
	call	edi

; 2251 : 	glTexImage2D(GL_TEXTURE_2D, 0, GL_RGBA8, st.screenx, st.screeny, 0, GL_BGRA, GL_UNSIGNED_BYTE, NULL);

	movzx	eax, WORD PTR _st+230
	push	0
	push	5121					; 00001401H
	push	32993					; 000080e1H
	push	0
	push	eax
	movzx	eax, WORD PTR _st+228
	push	eax
	push	32856					; 00008058H
	push	0
	push	3553					; 00000de1H
	call	esi

; 2252 : 
; 2253 : 	glFramebufferTexture2D(GL_FRAMEBUFFER, GL_COLOR_ATTACHMENT1, GL_TEXTURE_2D, st.renderer.FBTex[1], 0);

	push	0
	push	DWORD PTR _st+2336796
	push	3553					; 00000de1H
	push	36065					; 00008ce1H
	push	36160					; 00008d40H
	call	DWORD PTR _GLeeFuncPtr_glFramebufferTexture2D

; 2254 : 
; 2255 : 	glBindTexture(GL_TEXTURE_2D, st.renderer.FBTex[2]);

	push	DWORD PTR _st+2336800
	push	3553					; 00000de1H
	call	edi

; 2256 : 	glTexImage2D(GL_TEXTURE_2D, 0, GL_RGBA8, st.screenx, st.screeny, 0, GL_BGRA, GL_UNSIGNED_BYTE, NULL);

	movzx	eax, WORD PTR _st+230
	push	0
	push	5121					; 00001401H
	push	32993					; 000080e1H
	push	0
	push	eax
	movzx	eax, WORD PTR _st+228
	push	eax
	push	32856					; 00008058H
	push	0
	push	3553					; 00000de1H
	call	esi

; 2257 : 
; 2258 : 	glFramebufferTexture2D(GL_FRAMEBUFFER, GL_COLOR_ATTACHMENT2, GL_TEXTURE_2D, st.renderer.FBTex[2], 0);

	push	0
	push	DWORD PTR _st+2336800
	push	3553					; 00000de1H
	push	36066					; 00008ce2H
	push	36160					; 00008d40H
	call	DWORD PTR _GLeeFuncPtr_glFramebufferTexture2D

; 2259 : 
; 2260 : 	glBindTexture(GL_TEXTURE_2D, st.renderer.FBTex[3]);

	push	DWORD PTR _st+2336804
	push	3553					; 00000de1H
	call	edi

; 2261 : 	glTexImage2D(GL_TEXTURE_2D, 0, GL_RGBA8, st.screenx, st.screeny, 0, GL_BGRA, GL_UNSIGNED_BYTE, NULL);

	movzx	eax, WORD PTR _st+230
	push	0
	push	5121					; 00001401H
	push	32993					; 000080e1H
	push	0
	push	eax
	movzx	eax, WORD PTR _st+228
	push	eax
	push	32856					; 00008058H
	push	0
	push	3553					; 00000de1H
	call	esi

; 2262 : 
; 2263 : 	glFramebufferTexture2D(GL_FRAMEBUFFER, GL_COLOR_ATTACHMENT3, GL_TEXTURE_2D, st.renderer.FBTex[3], 0);

	push	0
	push	DWORD PTR _st+2336804
	push	3553					; 00000de1H
	push	36067					; 00008ce3H
	push	36160					; 00008d40H
	call	DWORD PTR _GLeeFuncPtr_glFramebufferTexture2D

; 2264 : 
; 2265 : 	glBindFramebuffer(GL_FRAMEBUFFER, 0);

	push	0
	push	36160					; 00008d40H
	call	DWORD PTR _GLeeFuncPtr_glBindFramebuffer

; 2266 : 	
; 2267 : 	if(SDL_GetRelativeMouseMode())

	call	DWORD PTR __imp__SDL_GetRelativeMouseMode
	test	eax, eax
	je	SHORT $LN1@RestartVid

; 2268 : 	{
; 2269 : 		SDL_SetRelativeMouseMode(SDL_FALSE);

	mov	esi, DWORD PTR __imp__SDL_SetRelativeMouseMode
	push	0
	call	esi

; 2270 : 		SDL_SetRelativeMouseMode(SDL_TRUE);

	push	1
	call	esi
	add	esp, 8
$LN1@RestartVid:

; 2271 : 	}
; 2272 : 	
; 2273 : }

	pop	edi
	pop	esi
	ret	0
_RestartVideo ENDP
_TEXT	ENDS
; Function compile flags: /Ogtp
; File c:\users\marcos\desktop\prj\mgear-1\mgear-1\engine.c
;	COMDAT _WindowEvents
_TEXT	SEGMENT
_WindowEvents PROC					; COMDAT

; 2276 : {

	push	ecx

; 2277 : 	if (events.type == SDL_QUIT) st.quit = 1;

	movzx	eax, BYTE PTR _st+66668
	mov	ecx, 1
	cmp	DWORD PTR _events, 256			; 00000100H
	cmove	eax, ecx
	mov	BYTE PTR _st+66668, al

; 2278 : 
; 2279 : 	InputProcess();

	call	_InputProcess

; 2280 : 
; 2281 : 	if (events.type == SDL_WINDOWEVENT)

	cmp	DWORD PTR _events, 512			; 00000200H
	jne	SHORT $LN1@WindowEven

; 2282 : 	{
; 2283 : 		if (events.window.event == SDL_WINDOWEVENT_SIZE_CHANGED)

	cmp	BYTE PTR _events+12, 6
	jne	SHORT $LN1@WindowEven

; 2284 : 		{
; 2285 : 			LogApp("Window resized to %d x %d", events.window.data1, events.window.data2);

	push	DWORD PTR _events+20
	push	DWORD PTR _events+16
	push	OFFSET ??_C@_0BK@MKEONLB@Window?5resized?5to?5?$CFd?5x?5?$CFd?$AA@
	call	DWORD PTR __imp__SDL_Log

; 2286 : 			st.screenx = events.window.data1;

	movzx	eax, WORD PTR _events+16
	add	esp, 12					; 0000000cH
	mov	WORD PTR _st+228, ax

; 2287 : 			st.screeny = events.window.data2;

	movzx	eax, WORD PTR _events+20
	mov	WORD PTR _st+230, ax

; 2288 : 			RestartVideo();

	call	_RestartVideo
$LN1@WindowEven:
	pop	ecx

; 2289 : 		}
; 2290 : 	}
; 2291 : }

	ret	0
_WindowEvents ENDP
_TEXT	ENDS
; Function compile flags: /Ogtp
; File c:\users\marcos\desktop\prj\mgear-1\mgear-1\engine.c
;	COMDAT _CheckMGGInSystem
_TEXT	SEGMENT
_mggf$ = -104						; size = 76
_header$ = -28						; size = 21
__$ArrayPad$ = -4					; size = 4
_CheckMGGInSystem PROC					; COMDAT
; _name$dead$ = ecx

; 2330 : {

	push	ebp
	mov	ebp, esp
	sub	esp, 104				; 00000068H
	mov	eax, DWORD PTR ___security_cookie
	xor	eax, ebp
	mov	DWORD PTR __$ArrayPad$[ebp], eax
	push	edi

; 2331 : 	FILE *file;
; 2332 : 	char header[21];
; 2333 : 	int8 i;
; 2334 : 
; 2335 : 	_MGGFORMAT mggf;
; 2336 : 	/*
; 2337 : 	if((file=DecompressFile(name))==NULL)
; 2338 : 	{
; 2339 : 		LogApp("Error reading MGG file %s",name);
; 2340 : 			return -2;
; 2341 : 	}
; 2342 : 	*/
; 2343 : 
; 2344 : 	if((file=fopen(name,"rb"))==NULL)

	push	OFFSET ??_C@_02JDPG@rb?$AA@
	push	OFFSET ??_C@_0BA@GLINHHCI@data?1mEngUI?4mgg?$AA@
	call	_fopen
	mov	edi, eax
	add	esp, 8
	test	edi, edi
	jne	SHORT $LN14@CheckMGGIn

; 2345 : 	{
; 2346 : 		LogApp("Error reading MGG file %s",name);

	push	OFFSET ??_C@_0BA@GLINHHCI@data?1mEngUI?4mgg?$AA@
	push	OFFSET ??_C@_0BK@JNFOJKPO@Error?5reading?5MGG?5file?5?$CFs?$AA@
	call	DWORD PTR __imp__SDL_Log
	add	esp, 8

; 2347 : 			return -2;

	lea	eax, DWORD PTR [edi-2]
	pop	edi

; 2393 : }

	mov	ecx, DWORD PTR __$ArrayPad$[ebp]
	xor	ecx, ebp
	call	@__security_check_cookie@4
	mov	esp, ebp
	pop	ebp
	ret	0
$LN14@CheckMGGIn:

; 2348 : 	}
; 2349 : 
; 2350 : 	rewind(file);

	push	edi
	call	_rewind

; 2351 : 
; 2352 : 	fread(header,21,1,file);

	push	edi
	push	1
	lea	eax, DWORD PTR _header$[ebp]
	push	21					; 00000015H
	push	eax
	call	_fread
	add	esp, 20					; 00000014H

; 2353 : 
; 2354 : 	if(strcmp(header,"MGG File Version 1")!=NULL)

	lea	eax, DWORD PTR _header$[ebp]
	mov	ecx, OFFSET ??_C@_0BD@IGEJGLBO@MGG?5File?5Version?51?$AA@
	npad	3
$LL32@CheckMGGIn:
	mov	dl, BYTE PTR [eax]
	cmp	dl, BYTE PTR [ecx]
	jne	SHORT $LN33@CheckMGGIn
	test	dl, dl
	je	SHORT $LN34@CheckMGGIn
	mov	dl, BYTE PTR [eax+1]
	cmp	dl, BYTE PTR [ecx+1]
	jne	SHORT $LN33@CheckMGGIn
	add	eax, 2
	add	ecx, 2
	test	dl, dl
	jne	SHORT $LL32@CheckMGGIn
$LN34@CheckMGGIn:
	xor	eax, eax
	jmp	SHORT $LN35@CheckMGGIn
$LN33@CheckMGGIn:
	sbb	eax, eax
	or	eax, 1
$LN35@CheckMGGIn:
	test	eax, eax
	je	SHORT $LN13@CheckMGGIn

; 2355 : 	{
; 2356 : 		LogApp("Invalid MGG file header %s",header);

	lea	eax, DWORD PTR _header$[ebp]
	push	eax
	push	OFFSET ??_C@_0BL@HGJNDNHB@Invalid?5MGG?5file?5header?5?$CFs?$AA@
	call	DWORD PTR __imp__SDL_Log

; 2357 : 		fclose(file);

	push	edi
	call	_fclose
	add	esp, 12					; 0000000cH

; 2358 : 		return -2;

	mov	eax, -2					; fffffffeH
	pop	edi

; 2393 : }

	mov	ecx, DWORD PTR __$ArrayPad$[ebp]
	xor	ecx, ebp
	call	@__security_check_cookie@4
	mov	esp, ebp
	pop	ebp
	ret	0
$LN13@CheckMGGIn:
	push	ebx
	push	esi

; 2359 : 	}
; 2360 : 
; 2361 : 	fread(&mggf,sizeof(_MGGFORMAT),1,file);

	push	edi
	push	1
	lea	eax, DWORD PTR _mggf$[ebp]
	push	76					; 0000004cH
	push	eax
	call	_fread

; 2362 : 
; 2363 : 	for(i=0;i<st.num_mgg_basic;i++)

	movzx	esi, BYTE PTR _st+266
	add	esp, 16					; 00000010H
	xor	bl, bl
	test	esi, esi
	jle	SHORT $LN10@CheckMGGIn
	xor	ecx, ecx
$LL12@CheckMGGIn:

; 2364 : 	{
; 2365 : 		if(strcmp(mggf.name,mgg_sys[i].name)==NULL)

	mov	eax, ecx
	shl	eax, 4
	sub	eax, ecx
	lea	ecx, DWORD PTR _mgg_sys[eax*4]
	lea	eax, DWORD PTR _mggf$[ebp]
$LL36@CheckMGGIn:
	mov	dl, BYTE PTR [eax]
	cmp	dl, BYTE PTR [ecx]
	jne	SHORT $LN37@CheckMGGIn
	test	dl, dl
	je	SHORT $LN38@CheckMGGIn
	mov	dl, BYTE PTR [eax+1]
	cmp	dl, BYTE PTR [ecx+1]
	jne	SHORT $LN37@CheckMGGIn
	add	eax, 2
	add	ecx, 2
	test	dl, dl
	jne	SHORT $LL36@CheckMGGIn
$LN38@CheckMGGIn:
	xor	eax, eax
	jmp	SHORT $LN39@CheckMGGIn
$LN37@CheckMGGIn:
	sbb	eax, eax
	or	eax, 1
$LN39@CheckMGGIn:
	test	eax, eax
	je	SHORT $LN20@CheckMGGIn

; 2362 : 
; 2363 : 	for(i=0;i<st.num_mgg_basic;i++)

	inc	bl
	movsx	ecx, bl
	cmp	ecx, esi
	jl	SHORT $LL12@CheckMGGIn
$LN10@CheckMGGIn:

; 2369 : 		}
; 2370 : 	}
; 2371 : 
; 2372 : 	for(i=0;i<st.num_mgg;i++)

	movzx	esi, BYTE PTR _st+265
	xor	bl, bl
	test	esi, esi
	jle	SHORT $LN6@CheckMGGIn
	xor	ecx, ecx
	npad	7
$LL8@CheckMGGIn:

; 2373 : 	{
; 2374 : 		if(strcmp(mggf.name,mgg_game[i].name)==NULL)

	mov	eax, ecx
	shl	eax, 4
	sub	eax, ecx
	lea	ecx, DWORD PTR _mgg_game[eax*4]
	lea	eax, DWORD PTR _mggf$[ebp]
$LL40@CheckMGGIn:
	mov	dl, BYTE PTR [eax]
	cmp	dl, BYTE PTR [ecx]
	jne	SHORT $LN41@CheckMGGIn
	test	dl, dl
	je	SHORT $LN42@CheckMGGIn
	mov	dl, BYTE PTR [eax+1]
	cmp	dl, BYTE PTR [ecx+1]
	jne	SHORT $LN41@CheckMGGIn
	add	eax, 2
	add	ecx, 2
	test	dl, dl
	jne	SHORT $LL40@CheckMGGIn
$LN42@CheckMGGIn:
	xor	eax, eax
	jmp	SHORT $LN43@CheckMGGIn
$LN20@CheckMGGIn:

; 2366 : 		{
; 2367 : 			fclose(file);

	push	edi
	call	_fclose
	add	esp, 4

; 2368 : 			return i+1000;

	movsx	eax, bl
	add	eax, 1000				; 000003e8H
	pop	esi
	pop	ebx
	pop	edi

; 2393 : }

	mov	ecx, DWORD PTR __$ArrayPad$[ebp]
	xor	ecx, ebp
	call	@__security_check_cookie@4
	mov	esp, ebp
	pop	ebp
	ret	0
$LN41@CheckMGGIn:

; 2373 : 	{
; 2374 : 		if(strcmp(mggf.name,mgg_game[i].name)==NULL)

	sbb	eax, eax
	or	eax, 1
$LN43@CheckMGGIn:
	test	eax, eax
	je	SHORT $LN21@CheckMGGIn

; 2369 : 		}
; 2370 : 	}
; 2371 : 
; 2372 : 	for(i=0;i<st.num_mgg;i++)

	inc	bl
	movsx	ecx, bl
	cmp	ecx, esi
	jl	SHORT $LL8@CheckMGGIn
$LN6@CheckMGGIn:

; 2378 : 		}
; 2379 : 	}
; 2380 : 
; 2381 : 	for(i=0;i<st.Current_Map.num_mgg;i++)

	movzx	esi, BYTE PTR _st+66848
	xor	bl, bl
	test	esi, esi
	jle	SHORT $LN2@CheckMGGIn
	xor	ecx, ecx
$LL4@CheckMGGIn:

; 2382 : 	{
; 2383 : 		if(strcmp(mggf.name,mgg_map[i].name)==NULL)

	mov	eax, ecx
	shl	eax, 4
	sub	eax, ecx
	lea	ecx, DWORD PTR _mgg_map[eax*4]
	lea	eax, DWORD PTR _mggf$[ebp]
$LL44@CheckMGGIn:
	mov	dl, BYTE PTR [eax]
	cmp	dl, BYTE PTR [ecx]
	jne	SHORT $LN45@CheckMGGIn
	test	dl, dl
	je	SHORT $LN46@CheckMGGIn
	mov	dl, BYTE PTR [eax+1]
	cmp	dl, BYTE PTR [ecx+1]
	jne	SHORT $LN45@CheckMGGIn
	add	eax, 2
	add	ecx, 2
	test	dl, dl
	jne	SHORT $LL44@CheckMGGIn
$LN46@CheckMGGIn:
	xor	eax, eax
	jmp	SHORT $LN47@CheckMGGIn
$LN21@CheckMGGIn:

; 2375 : 		{
; 2376 : 			fclose(file);

	push	edi
	call	_fclose
	add	esp, 4

; 2377 : 			return i+10000;

	movsx	eax, bl
	add	eax, 10000				; 00002710H
	pop	esi
	pop	ebx
	pop	edi

; 2393 : }

	mov	ecx, DWORD PTR __$ArrayPad$[ebp]
	xor	ecx, ebp
	call	@__security_check_cookie@4
	mov	esp, ebp
	pop	ebp
	ret	0
$LN45@CheckMGGIn:

; 2382 : 	{
; 2383 : 		if(strcmp(mggf.name,mgg_map[i].name)==NULL)

	sbb	eax, eax
	or	eax, 1
$LN47@CheckMGGIn:
	test	eax, eax
	je	SHORT $LN22@CheckMGGIn

; 2378 : 		}
; 2379 : 	}
; 2380 : 
; 2381 : 	for(i=0;i<st.Current_Map.num_mgg;i++)

	inc	bl
	movsx	ecx, bl
	cmp	ecx, esi
	jl	SHORT $LL4@CheckMGGIn
$LN2@CheckMGGIn:

; 2386 : 			return i+100000;
; 2387 : 		}
; 2388 : 	}
; 2389 : 
; 2390 : 	fclose(file);

	push	edi
	call	_fclose
	add	esp, 4

; 2391 : 
; 2392 : 	return -1;

	or	eax, -1
	pop	esi
	pop	ebx
	pop	edi

; 2393 : }

	mov	ecx, DWORD PTR __$ArrayPad$[ebp]
	xor	ecx, ebp
	call	@__security_check_cookie@4
	mov	esp, ebp
	pop	ebp
	ret	0
$LN22@CheckMGGIn:

; 2384 : 		{
; 2385 : 			fclose(file);

	push	edi
	call	_fclose

; 2393 : }

	mov	ecx, DWORD PTR __$ArrayPad$[ebp]
	add	esp, 4
	movsx	eax, bl
	xor	ecx, ebp
	add	eax, 100000				; 000186a0H
	pop	esi
	pop	ebx
	pop	edi
	call	@__security_check_cookie@4
	mov	esp, ebp
	pop	ebp
	ret	0
_CheckMGGInSystem ENDP
_TEXT	ENDS
; Function compile flags: /Ogtp
; File c:\users\marcos\desktop\prj\mgear-1\mgear-1\engine.c
;	COMDAT _LoadMGG
_TEXT	SEGMENT
tv3572 = -106696					; size = 4
_k$1$ = -106692						; size = 4
_imgdata$ = -106692					; size = 4
_sizex$1$ = -106688					; size = 4
_posy$1$ = -106684					; size = 4
_posx$1$ = -106680					; size = 4
tv3447 = -106676					; size = 4
tv3404 = -106676					; size = 4
tv3393 = -106676					; size = 4
_framealone$1$ = -106672				; size = 4
tv3347 = -106668					; size = 4
tv3346 = -106668					; size = 4
tv3305 = -106668					; size = 4
_file$1$ = -106664					; size = 4
_l$1$ = -106660						; size = 4
tv3449 = -106656					; size = 4
tv3289 = -106656					; size = 4
_imgw$ = -106656					; size = 2
$T1 = -106652						; size = 4
tv3503 = -106652					; size = 4
tv3458 = -106652					; size = 4
tv3351 = -106652					; size = 4
tv3013 = -106652					; size = 4
tv3001 = -106652					; size = 4
_j$1$ = -106648						; size = 4
tv3400 = -106648					; size = 4
tv3323 = -106648					; size = 4
tv3286 = -106648					; size = 4
_sizey$1$ = -106644					; size = 4
tv3561 = -106644					; size = 4
tv3559 = -106644					; size = 4
tv3558 = -106644					; size = 4
tv3556 = -106644					; size = 4
_n$3$ = -106640						; size = 4
_offx$1$ = -106640					; size = 4
_imgdata$3$ = -106640					; size = 4
tv3462 = -106640					; size = 4
tv2984 = -106640					; size = 4
tv2752 = -106640					; size = 4
_currh$ = -106636					; size = 4
_h$ = -106632						; size = 4
_channel2$ = -106628					; size = 2
_imgh$ = -106628					; size = 2
_offy$1$ = -106624					; size = 4
_imgdata$6$ = -106624					; size = 4
_imgdata$2$ = -106624					; size = 4
_data$1$ = -106624					; size = 4
tv3466 = -106624					; size = 4
tv3461 = -106624					; size = 4
_imgatlas$1$ = -106620					; size = 4
tv3566 = -106620					; size = 4
tv3565 = -106620					; size = 4
tv3564 = -106620					; size = 4
tv3563 = -106620					; size = 4
tv3562 = -106620					; size = 4
tv3511 = -106620					; size = 4
_data$3$ = -106616					; size = 4
tv3554 = -106616					; size = 4
tv3550 = -106616					; size = 4
tv3549 = -106616					; size = 4
tv3445 = -106616					; size = 4
_w$ = -106612						; size = 4
_MGIcolor$ = -106605					; size = 1
_i$ = -106604						; size = 2
_mggf$ = -106600					; size = 76
_framesize$ = -106524					; size = 32768
_normalsize$ = -73756					; size = 32768
_frameoffset$ = -40988					; size = 32768
_normals$ = -8220					; size = 8192
_header$ = -28						; size = 21
__$ArrayPad$ = -4					; size = 4
_LoadMGG PROC						; COMDAT
; _mgg$dead$ = ecx
; _name$dead$ = edx

; 2444 : {

	push	ebp
	mov	ebp, esp
	mov	eax, 106696				; 0001a0c8H
	call	__chkstk
	mov	eax, DWORD PTR ___security_cookie
	xor	eax, ebp
	mov	DWORD PTR __$ArrayPad$[ebp], eax

; 2445 : 	FILE *file, *file2;
; 2446 : 	unsigned char *data;
; 2447 : 	_MGGFORMAT mggf;
; 2448 : 	char header[21];
; 2449 : 	 uint16 i=0, j=0, k=0, l=0, m=0, n=0, o=0;

	mov	DWORD PTR _l$1$[ebp], 0

; 2450 : 	uint32 framesize[MAX_FRAMES], frameoffset[MAX_FRAMES], *framealone;
; 2451 : 	uint16 *posx, *posy, *sizex, *sizey, *dimx, *dimy, channel2;
; 2452 : 	uint8 *imgatlas;
; 2453 : 	uint16 *w, *h, *currh, *offx, *offy;
; 2454 : 	int width, height, channel;
; 2455 : 	unsigned char *imgdata;
; 2456 : 	uint8 normals[MAX_FRAMES];
; 2457 : 	uint32 normalsize[MAX_FRAMES];
; 2458 : 	_MGGANIM *mga;
; 2459 : 	int32 checkmgg;
; 2460 : 
; 2461 : 	//MGI format specs
; 2462 : 	char mgiheader[3];
; 2463 : 	uint8 MGIcolor;
; 2464 : 	uint8 RLE;
; 2465 : 	uint16 imgw, imgh;
; 2466 : 
; 2467 : 	size_t mgisize;
; 2468 : 
; 2469 : 	checkmgg=CheckMGGInSystem(name);

	call	_CheckMGGInSystem

; 2470 : 
; 2471 : 	if(checkmgg==-2)

	cmp	eax, -2					; fffffffeH
	jne	SHORT $LN140@LoadMGG
$LN234@LoadMGG:

; 2472 : 		return 0;

	xor	eax, eax

; 3425 : 		
; 3426 : }

	mov	ecx, DWORD PTR __$ArrayPad$[ebp]
	xor	ecx, ebp
	call	@__security_check_cookie@4
	mov	esp, ebp
	pop	ebp
	ret	0
$LN140@LoadMGG:

; 2473 : 	else
; 2474 : 	if(checkmgg>0)

	test	eax, eax
	jg	SHORT $LN234@LoadMGG

